
rv32ui-v-and:     file format elf32-littleriscv


Disassembly of section .text.init:

80000000 <reset_vector>:
80000000:	00c0006f          	j	8000000c <handle_reset>

80000004 <nmi_vector>:
80000004:	2640206f          	j	80002268 <wtf>

80000008 <trap_vector>:
80000008:	2600206f          	j	80002268 <wtf>

8000000c <handle_reset>:
8000000c:	00000297          	auipc	t0,0x0
80000010:	ffc28293          	addi	t0,t0,-4 # 80000008 <trap_vector>
80000014:	30529073          	csrw	mtvec,t0
80000018:	00008117          	auipc	sp,0x8
8000001c:	35010113          	addi	sp,sp,848 # 80008368 <_end+0xf70>
80000020:	f14022f3          	csrr	t0,mhartid
80000024:	00c29293          	slli	t0,t0,0xc
80000028:	00510133          	add	sp,sp,t0
8000002c:	34011073          	csrw	mscratch,sp
80000030:	00003517          	auipc	a0,0x3
80000034:	9b850513          	addi	a0,a0,-1608 # 800029e8 <userstart>
80000038:	0190206f          	j	80002850 <vm_boot>

8000003c <pop_tf>:
8000003c:	08452283          	lw	t0,132(a0)
80000040:	14129073          	csrw	sepc,t0
80000044:	00452083          	lw	ra,4(a0)
80000048:	00852103          	lw	sp,8(a0)
8000004c:	00c52183          	lw	gp,12(a0)
80000050:	01052203          	lw	tp,16(a0)
80000054:	01452283          	lw	t0,20(a0)
80000058:	01852303          	lw	t1,24(a0)
8000005c:	01c52383          	lw	t2,28(a0)
80000060:	02052403          	lw	s0,32(a0)
80000064:	02452483          	lw	s1,36(a0)
80000068:	02c52583          	lw	a1,44(a0)
8000006c:	03052603          	lw	a2,48(a0)
80000070:	03452683          	lw	a3,52(a0)
80000074:	03852703          	lw	a4,56(a0)
80000078:	03c52783          	lw	a5,60(a0)
8000007c:	04052803          	lw	a6,64(a0)
80000080:	04452883          	lw	a7,68(a0)
80000084:	04852903          	lw	s2,72(a0)
80000088:	04c52983          	lw	s3,76(a0)
8000008c:	05052a03          	lw	s4,80(a0)
80000090:	05452a83          	lw	s5,84(a0)
80000094:	05852b03          	lw	s6,88(a0)
80000098:	05c52b83          	lw	s7,92(a0)
8000009c:	06052c03          	lw	s8,96(a0)
800000a0:	06452c83          	lw	s9,100(a0)
800000a4:	06852d03          	lw	s10,104(a0)
800000a8:	06c52d83          	lw	s11,108(a0)
800000ac:	07052e03          	lw	t3,112(a0)
800000b0:	07452e83          	lw	t4,116(a0)
800000b4:	07852f03          	lw	t5,120(a0)
800000b8:	07c52f83          	lw	t6,124(a0)
800000bc:	02852503          	lw	a0,40(a0)
800000c0:	10200073          	sret

800000c4 <trap_entry>:
800000c4:	14011173          	csrrw	sp,sscratch,sp
800000c8:	00112223          	sw	ra,4(sp)
800000cc:	00312623          	sw	gp,12(sp)
800000d0:	00412823          	sw	tp,16(sp)
800000d4:	00512a23          	sw	t0,20(sp)
800000d8:	00612c23          	sw	t1,24(sp)
800000dc:	00712e23          	sw	t2,28(sp)
800000e0:	02812023          	sw	s0,32(sp)
800000e4:	02912223          	sw	s1,36(sp)
800000e8:	02a12423          	sw	a0,40(sp)
800000ec:	02b12623          	sw	a1,44(sp)
800000f0:	02c12823          	sw	a2,48(sp)
800000f4:	02d12a23          	sw	a3,52(sp)
800000f8:	02e12c23          	sw	a4,56(sp)
800000fc:	02f12e23          	sw	a5,60(sp)
80000100:	05012023          	sw	a6,64(sp)
80000104:	05112223          	sw	a7,68(sp)
80000108:	05212423          	sw	s2,72(sp)
8000010c:	05312623          	sw	s3,76(sp)
80000110:	05412823          	sw	s4,80(sp)
80000114:	05512a23          	sw	s5,84(sp)
80000118:	05612c23          	sw	s6,88(sp)
8000011c:	05712e23          	sw	s7,92(sp)
80000120:	07812023          	sw	s8,96(sp)
80000124:	07912223          	sw	s9,100(sp)
80000128:	07a12423          	sw	s10,104(sp)
8000012c:	07b12623          	sw	s11,108(sp)
80000130:	07c12823          	sw	t3,112(sp)
80000134:	07d12a23          	sw	t4,116(sp)
80000138:	07e12c23          	sw	t5,120(sp)
8000013c:	07f12e23          	sw	t6,124(sp)
80000140:	140112f3          	csrrw	t0,sscratch,sp
80000144:	00512423          	sw	t0,8(sp)
80000148:	100022f3          	csrr	t0,sstatus
8000014c:	08512023          	sw	t0,128(sp)
80000150:	141022f3          	csrr	t0,sepc
80000154:	08512223          	sw	t0,132(sp)
80000158:	143022f3          	csrr	t0,sbadaddr
8000015c:	08512423          	sw	t0,136(sp)
80000160:	142022f3          	csrr	t0,scause
80000164:	08512623          	sw	t0,140(sp)
80000168:	00010513          	mv	a0,sp
8000016c:	3840206f          	j	800024f0 <handle_trap>

Disassembly of section .text:

80002000 <memcpy>:
80002000:	00c5e7b3          	or	a5,a1,a2
80002004:	00f567b3          	or	a5,a0,a5
80002008:	0037f793          	andi	a5,a5,3
8000200c:	00c506b3          	add	a3,a0,a2
80002010:	02078463          	beqz	a5,80002038 <memcpy+0x38>
80002014:	00c58633          	add	a2,a1,a2
80002018:	00050793          	mv	a5,a0
8000201c:	02d57e63          	bleu	a3,a0,80002058 <memcpy+0x58>
80002020:	00158593          	addi	a1,a1,1
80002024:	fff5c703          	lbu	a4,-1(a1)
80002028:	00178793          	addi	a5,a5,1
8000202c:	fee78fa3          	sb	a4,-1(a5)
80002030:	feb618e3          	bne	a2,a1,80002020 <memcpy+0x20>
80002034:	00008067          	ret
80002038:	fed57ee3          	bleu	a3,a0,80002034 <memcpy+0x34>
8000203c:	00050793          	mv	a5,a0
80002040:	00458593          	addi	a1,a1,4
80002044:	ffc5a703          	lw	a4,-4(a1)
80002048:	00478793          	addi	a5,a5,4
8000204c:	fee7ae23          	sw	a4,-4(a5)
80002050:	fed7e8e3          	bltu	a5,a3,80002040 <memcpy+0x40>
80002054:	00008067          	ret
80002058:	00008067          	ret

8000205c <memset>:
8000205c:	00c567b3          	or	a5,a0,a2
80002060:	0037f793          	andi	a5,a5,3
80002064:	00c50633          	add	a2,a0,a2
80002068:	02078063          	beqz	a5,80002088 <memset+0x2c>
8000206c:	0ff5f593          	andi	a1,a1,255
80002070:	00050793          	mv	a5,a0
80002074:	04c57063          	bleu	a2,a0,800020b4 <memset+0x58>
80002078:	00178793          	addi	a5,a5,1
8000207c:	feb78fa3          	sb	a1,-1(a5)
80002080:	fef61ce3          	bne	a2,a5,80002078 <memset+0x1c>
80002084:	00008067          	ret
80002088:	0ff5f593          	andi	a1,a1,255
8000208c:	00859793          	slli	a5,a1,0x8
80002090:	00b7e7b3          	or	a5,a5,a1
80002094:	01079593          	slli	a1,a5,0x10
80002098:	00f5e5b3          	or	a1,a1,a5
8000209c:	fec574e3          	bleu	a2,a0,80002084 <memset+0x28>
800020a0:	00050793          	mv	a5,a0
800020a4:	00478793          	addi	a5,a5,4
800020a8:	feb7ae23          	sw	a1,-4(a5)
800020ac:	fec7ece3          	bltu	a5,a2,800020a4 <memset+0x48>
800020b0:	00008067          	ret
800020b4:	00008067          	ret

800020b8 <strlen>:
800020b8:	00054783          	lbu	a5,0(a0)
800020bc:	00050713          	mv	a4,a0
800020c0:	00078c63          	beqz	a5,800020d8 <strlen+0x20>
800020c4:	00150513          	addi	a0,a0,1
800020c8:	00054783          	lbu	a5,0(a0)
800020cc:	fe079ce3          	bnez	a5,800020c4 <strlen+0xc>
800020d0:	40e50533          	sub	a0,a0,a4
800020d4:	00008067          	ret
800020d8:	00000513          	li	a0,0
800020dc:	00008067          	ret

800020e0 <strcmp>:
800020e0:	00150513          	addi	a0,a0,1
800020e4:	fff54783          	lbu	a5,-1(a0)
800020e8:	00158593          	addi	a1,a1,1
800020ec:	fff5c703          	lbu	a4,-1(a1)
800020f0:	00078863          	beqz	a5,80002100 <strcmp+0x20>
800020f4:	fee786e3          	beq	a5,a4,800020e0 <strcmp>
800020f8:	40e78533          	sub	a0,a5,a4
800020fc:	00008067          	ret
80002100:	00000793          	li	a5,0
80002104:	ff5ff06f          	j	800020f8 <strcmp+0x18>

80002108 <memcmp>:
80002108:	00b567b3          	or	a5,a0,a1
8000210c:	0037f793          	andi	a5,a5,3
80002110:	04079263          	bnez	a5,80002154 <memcmp+0x4c>
80002114:	ffc67693          	andi	a3,a2,-4
80002118:	00d506b3          	add	a3,a0,a3
8000211c:	00050813          	mv	a6,a0
80002120:	02d57a63          	bleu	a3,a0,80002154 <memcmp+0x4c>
80002124:	0005a703          	lw	a4,0(a1)
80002128:	00052783          	lw	a5,0(a0)
8000212c:	00f70a63          	beq	a4,a5,80002140 <memcmp+0x38>
80002130:	0240006f          	j	80002154 <memcmp+0x4c>
80002134:	00052703          	lw	a4,0(a0)
80002138:	0005a783          	lw	a5,0(a1)
8000213c:	00f71863          	bne	a4,a5,8000214c <memcmp+0x44>
80002140:	00450513          	addi	a0,a0,4
80002144:	00458593          	addi	a1,a1,4
80002148:	fed566e3          	bltu	a0,a3,80002134 <memcmp+0x2c>
8000214c:	41050833          	sub	a6,a0,a6
80002150:	41060633          	sub	a2,a2,a6
80002154:	00c58633          	add	a2,a1,a2
80002158:	0140006f          	j	8000216c <memcmp+0x64>
8000215c:	00158593          	addi	a1,a1,1
80002160:	fff54783          	lbu	a5,-1(a0)
80002164:	fff5c703          	lbu	a4,-1(a1)
80002168:	00e79a63          	bne	a5,a4,8000217c <memcmp+0x74>
8000216c:	00150513          	addi	a0,a0,1
80002170:	fec596e3          	bne	a1,a2,8000215c <memcmp+0x54>
80002174:	00000513          	li	a0,0
80002178:	00008067          	ret
8000217c:	40e78533          	sub	a0,a5,a4
80002180:	00008067          	ret

80002184 <strcpy>:
80002184:	00050793          	mv	a5,a0
80002188:	00158593          	addi	a1,a1,1
8000218c:	fff5c703          	lbu	a4,-1(a1)
80002190:	00178793          	addi	a5,a5,1
80002194:	fee78fa3          	sb	a4,-1(a5)
80002198:	fe0718e3          	bnez	a4,80002188 <strcpy+0x4>
8000219c:	00008067          	ret

800021a0 <atol>:
800021a0:	00054783          	lbu	a5,0(a0)
800021a4:	02000713          	li	a4,32
800021a8:	00e79863          	bne	a5,a4,800021b8 <atol+0x18>
800021ac:	00150513          	addi	a0,a0,1
800021b0:	00054783          	lbu	a5,0(a0)
800021b4:	fee78ce3          	beq	a5,a4,800021ac <atol+0xc>
800021b8:	fd578713          	addi	a4,a5,-43
800021bc:	0fd77713          	andi	a4,a4,253
800021c0:	04070263          	beqz	a4,80002204 <atol+0x64>
800021c4:	00054683          	lbu	a3,0(a0)
800021c8:	00050793          	mv	a5,a0
800021cc:	00000613          	li	a2,0
800021d0:	04068863          	beqz	a3,80002220 <atol+0x80>
800021d4:	00000513          	li	a0,0
800021d8:	00178793          	addi	a5,a5,1
800021dc:	fd068593          	addi	a1,a3,-48
800021e0:	00251713          	slli	a4,a0,0x2
800021e4:	0007c683          	lbu	a3,0(a5)
800021e8:	00a70533          	add	a0,a4,a0
800021ec:	00151513          	slli	a0,a0,0x1
800021f0:	00a58533          	add	a0,a1,a0
800021f4:	fe0692e3          	bnez	a3,800021d8 <atol+0x38>
800021f8:	00060463          	beqz	a2,80002200 <atol+0x60>
800021fc:	40a00533          	neg	a0,a0
80002200:	00008067          	ret
80002204:	00154683          	lbu	a3,1(a0)
80002208:	fd378793          	addi	a5,a5,-45
8000220c:	0017b613          	seqz	a2,a5
80002210:	00150793          	addi	a5,a0,1
80002214:	fc0690e3          	bnez	a3,800021d4 <atol+0x34>
80002218:	00000513          	li	a0,0
8000221c:	fddff06f          	j	800021f8 <atol+0x58>
80002220:	00000513          	li	a0,0
80002224:	00008067          	ret

80002228 <terminate>:
80002228:	fffff697          	auipc	a3,0xfffff
8000222c:	dd868693          	addi	a3,a3,-552 # 80001000 <tohost>
80002230:	00a6a023          	sw	a0,0(a3)
80002234:	41f55793          	srai	a5,a0,0x1f
80002238:	00f6a223          	sw	a5,4(a3)
8000223c:	fffff697          	auipc	a3,0xfffff
80002240:	e0468693          	addi	a3,a3,-508 # 80001040 <fromhost>
80002244:	0006a703          	lw	a4,0(a3)
80002248:	0046a783          	lw	a5,4(a3)
8000224c:	00f76733          	or	a4,a4,a5
80002250:	fe070ae3          	beqz	a4,80002244 <terminate+0x1c>
80002254:	00000793          	li	a5,0
80002258:	00000813          	li	a6,0
8000225c:	00f6a023          	sw	a5,0(a3)
80002260:	0106a223          	sw	a6,4(a3)
80002264:	0000006f          	j	80002264 <terminate+0x3c>

80002268 <wtf>:
80002268:	ff010113          	addi	sp,sp,-16
8000226c:	34900513          	li	a0,841
80002270:	00112623          	sw	ra,12(sp)
80002274:	fb5ff0ef          	jal	ra,80002228 <terminate>

80002278 <printhex>:
80002278:	fe010113          	addi	sp,sp,-32
8000227c:	01b10793          	addi	a5,sp,27
80002280:	00b10e93          	addi	t4,sp,11
80002284:	00900e13          	li	t3,9
80002288:	00f57693          	andi	a3,a0,15
8000228c:	01c59313          	slli	t1,a1,0x1c
80002290:	00455513          	srli	a0,a0,0x4
80002294:	05700613          	li	a2,87
80002298:	0ff6f713          	andi	a4,a3,255
8000229c:	00de6463          	bltu	t3,a3,800022a4 <printhex+0x2c>
800022a0:	03000613          	li	a2,48
800022a4:	00c70733          	add	a4,a4,a2
800022a8:	00e78023          	sb	a4,0(a5)
800022ac:	fff78793          	addi	a5,a5,-1
800022b0:	00a36533          	or	a0,t1,a0
800022b4:	0045d593          	srli	a1,a1,0x4
800022b8:	fdd798e3          	bne	a5,t4,80002288 <printhex+0x10>
800022bc:	00c14783          	lbu	a5,12(sp)
800022c0:	00010e23          	sb	zero,28(sp)
800022c4:	04078863          	beqz	a5,80002314 <printhex+0x9c>
800022c8:	00c10613          	addi	a2,sp,12
800022cc:	fffff597          	auipc	a1,0xfffff
800022d0:	d3458593          	addi	a1,a1,-716 # 80001000 <tohost>
800022d4:	fffff697          	auipc	a3,0xfffff
800022d8:	d6c68693          	addi	a3,a3,-660 # 80001040 <fromhost>
800022dc:	010108b7          	lui	a7,0x1010
800022e0:	00f5a023          	sw	a5,0(a1)
800022e4:	00160613          	addi	a2,a2,1
800022e8:	0115a223          	sw	a7,4(a1)
800022ec:	0006a703          	lw	a4,0(a3)
800022f0:	0046a783          	lw	a5,4(a3)
800022f4:	00f76733          	or	a4,a4,a5
800022f8:	fe070ae3          	beqz	a4,800022ec <printhex+0x74>
800022fc:	00000313          	li	t1,0
80002300:	00064783          	lbu	a5,0(a2)
80002304:	00000393          	li	t2,0
80002308:	0066a023          	sw	t1,0(a3)
8000230c:	0076a223          	sw	t2,4(a3)
80002310:	fc0796e3          	bnez	a5,800022dc <printhex+0x64>
80002314:	02010113          	addi	sp,sp,32
80002318:	00008067          	ret

8000231c <handle_fault>:
8000231c:	00050793          	mv	a5,a0
80002320:	ff010113          	addi	sp,sp,-16
80002324:	fffff537          	lui	a0,0xfffff
80002328:	00112623          	sw	ra,12(sp)
8000232c:	00a786b3          	add	a3,a5,a0
80002330:	0003e737          	lui	a4,0x3e
80002334:	10e6f663          	bleu	a4,a3,80002440 <handle_fault+0x124>
80002338:	00005697          	auipc	a3,0x5
8000233c:	0bc6a683          	lw	a3,188(a3) # 800073f4 <freelist_head>
80002340:	00a7f533          	and	a0,a5,a0
80002344:	0a068063          	beqz	a3,800023e4 <handle_fault+0xc8>
80002348:	0046a703          	lw	a4,4(a3)
8000234c:	00005617          	auipc	a2,0x5
80002350:	0a462603          	lw	a2,164(a2) # 800073f0 <freelist_tail>
80002354:	00005597          	auipc	a1,0x5
80002358:	0ae5a023          	sw	a4,160(a1) # 800073f4 <freelist_head>
8000235c:	06c70e63          	beq	a4,a2,800023d8 <handle_fault+0xbc>
80002360:	0006a703          	lw	a4,0(a3)
80002364:	00c7d793          	srli	a5,a5,0xc
80002368:	40078613          	addi	a2,a5,1024
8000236c:	00c75713          	srli	a4,a4,0xc
80002370:	00261593          	slli	a1,a2,0x2
80002374:	00a71713          	slli	a4,a4,0xa
80002378:	00002617          	auipc	a2,0x2
8000237c:	c8860613          	addi	a2,a2,-888 # 80004000 <begin_signature>
80002380:	00b60633          	add	a2,a2,a1
80002384:	01f76713          	ori	a4,a4,31
80002388:	00e62023          	sw	a4,0(a2)
8000238c:	10400073          	sfence.vm
80002390:	00005717          	auipc	a4,0x5
80002394:	e6870713          	addi	a4,a4,-408 # 800071f8 <user_mapping>
80002398:	00379793          	slli	a5,a5,0x3
8000239c:	00f707b3          	add	a5,a4,a5
800023a0:	0007a703          	lw	a4,0(a5)
800023a4:	0e071a63          	bnez	a4,80002498 <handle_fault+0x17c>
800023a8:	0006a703          	lw	a4,0(a3)
800023ac:	ffc005b7          	lui	a1,0xffc00
800023b0:	00001637          	lui	a2,0x1
800023b4:	00e7a023          	sw	a4,0(a5)
800023b8:	0046a703          	lw	a4,4(a3)
800023bc:	00b505b3          	add	a1,a0,a1
800023c0:	00e7a223          	sw	a4,4(a5)
800023c4:	c3dff0ef          	jal	ra,80002000 <memcpy>
800023c8:	0000100f          	fence.i
800023cc:	00c12083          	lw	ra,12(sp)
800023d0:	01010113          	addi	sp,sp,16
800023d4:	00008067          	ret
800023d8:	00005717          	auipc	a4,0x5
800023dc:	00072c23          	sw	zero,24(a4) # 800073f0 <freelist_tail>
800023e0:	f81ff06f          	j	80002360 <handle_fault+0x44>
800023e4:	04100793          	li	a5,65
800023e8:	00001597          	auipc	a1,0x1
800023ec:	b1858593          	addi	a1,a1,-1256 # 80002f00 <pass+0x50>
800023f0:	fffff617          	auipc	a2,0xfffff
800023f4:	c1060613          	addi	a2,a2,-1008 # 80001000 <tohost>
800023f8:	fffff697          	auipc	a3,0xfffff
800023fc:	c4868693          	addi	a3,a3,-952 # 80001040 <fromhost>
80002400:	010103b7          	lui	t2,0x1010
80002404:	00f62023          	sw	a5,0(a2)
80002408:	00158593          	addi	a1,a1,1
8000240c:	00762223          	sw	t2,4(a2)
80002410:	0006a703          	lw	a4,0(a3)
80002414:	0046a783          	lw	a5,4(a3)
80002418:	00f76733          	or	a4,a4,a5
8000241c:	fe070ae3          	beqz	a4,80002410 <handle_fault+0xf4>
80002420:	00000813          	li	a6,0
80002424:	0005c783          	lbu	a5,0(a1)
80002428:	00000893          	li	a7,0
8000242c:	0106a023          	sw	a6,0(a3)
80002430:	0116a223          	sw	a7,4(a3)
80002434:	fc0796e3          	bnez	a5,80002400 <handle_fault+0xe4>
80002438:	00300513          	li	a0,3
8000243c:	dedff0ef          	jal	ra,80002228 <terminate>
80002440:	04100793          	li	a5,65
80002444:	00001597          	auipc	a1,0x1
80002448:	a7858593          	addi	a1,a1,-1416 # 80002ebc <pass+0xc>
8000244c:	fffff617          	auipc	a2,0xfffff
80002450:	bb460613          	addi	a2,a2,-1100 # 80001000 <tohost>
80002454:	fffff697          	auipc	a3,0xfffff
80002458:	bec68693          	addi	a3,a3,-1044 # 80001040 <fromhost>
8000245c:	01010eb7          	lui	t4,0x1010
80002460:	00f62023          	sw	a5,0(a2)
80002464:	00158593          	addi	a1,a1,1
80002468:	01d62223          	sw	t4,4(a2)
8000246c:	0006a703          	lw	a4,0(a3)
80002470:	0046a783          	lw	a5,4(a3)
80002474:	00f76733          	or	a4,a4,a5
80002478:	fe070ae3          	beqz	a4,8000246c <handle_fault+0x150>
8000247c:	00000813          	li	a6,0
80002480:	0005c783          	lbu	a5,0(a1)
80002484:	00000893          	li	a7,0
80002488:	0106a023          	sw	a6,0(a3)
8000248c:	0116a223          	sw	a7,4(a3)
80002490:	fc0796e3          	bnez	a5,8000245c <handle_fault+0x140>
80002494:	fa5ff06f          	j	80002438 <handle_fault+0x11c>
80002498:	04100793          	li	a5,65
8000249c:	00001597          	auipc	a1,0x1
800024a0:	a7c58593          	addi	a1,a1,-1412 # 80002f18 <pass+0x68>
800024a4:	fffff617          	auipc	a2,0xfffff
800024a8:	b5c60613          	addi	a2,a2,-1188 # 80001000 <tohost>
800024ac:	fffff697          	auipc	a3,0xfffff
800024b0:	b9468693          	addi	a3,a3,-1132 # 80001040 <fromhost>
800024b4:	010108b7          	lui	a7,0x1010
800024b8:	00f62023          	sw	a5,0(a2)
800024bc:	00158593          	addi	a1,a1,1
800024c0:	01162223          	sw	a7,4(a2)
800024c4:	0006a703          	lw	a4,0(a3)
800024c8:	0046a783          	lw	a5,4(a3)
800024cc:	00f76733          	or	a4,a4,a5
800024d0:	fe070ae3          	beqz	a4,800024c4 <handle_fault+0x1a8>
800024d4:	00000313          	li	t1,0
800024d8:	0005c783          	lbu	a5,0(a1)
800024dc:	00000393          	li	t2,0
800024e0:	0066a023          	sw	t1,0(a3)
800024e4:	0076a223          	sw	t2,4(a3)
800024e8:	fc0796e3          	bnez	a5,800024b4 <handle_fault+0x198>
800024ec:	f4dff06f          	j	80002438 <handle_fault+0x11c>

800024f0 <handle_trap>:
800024f0:	08c52783          	lw	a5,140(a0) # fffff08c <_end+0x7fff7c94>
800024f4:	fb010113          	addi	sp,sp,-80
800024f8:	03412c23          	sw	s4,56(sp)
800024fc:	04112623          	sw	ra,76(sp)
80002500:	04812423          	sw	s0,72(sp)
80002504:	04912223          	sw	s1,68(sp)
80002508:	05212023          	sw	s2,64(sp)
8000250c:	03312e23          	sw	s3,60(sp)
80002510:	03512a23          	sw	s5,52(sp)
80002514:	03612823          	sw	s6,48(sp)
80002518:	03712623          	sw	s7,44(sp)
8000251c:	03812423          	sw	s8,40(sp)
80002520:	03912223          	sw	s9,36(sp)
80002524:	03a12023          	sw	s10,32(sp)
80002528:	01b12e23          	sw	s11,28(sp)
8000252c:	00800713          	li	a4,8
80002530:	00050a13          	mv	s4,a0
80002534:	14e78263          	beq	a5,a4,80002678 <handle_trap+0x188>
80002538:	00200713          	li	a4,2
8000253c:	06e78063          	beq	a5,a4,8000259c <handle_trap+0xac>
80002540:	ffb7f713          	andi	a4,a5,-5
80002544:	00100693          	li	a3,1
80002548:	00d70663          	beq	a4,a3,80002554 <handle_trap+0x64>
8000254c:	00700713          	li	a4,7
80002550:	1ee79863          	bne	a5,a4,80002740 <handle_trap+0x250>
80002554:	088a2503          	lw	a0,136(s4)
80002558:	dc5ff0ef          	jal	ra,8000231c <handle_fault>
8000255c:	04812403          	lw	s0,72(sp)
80002560:	04c12083          	lw	ra,76(sp)
80002564:	04412483          	lw	s1,68(sp)
80002568:	04012903          	lw	s2,64(sp)
8000256c:	03c12983          	lw	s3,60(sp)
80002570:	03412a83          	lw	s5,52(sp)
80002574:	03012b03          	lw	s6,48(sp)
80002578:	02c12b83          	lw	s7,44(sp)
8000257c:	02812c03          	lw	s8,40(sp)
80002580:	02412c83          	lw	s9,36(sp)
80002584:	02012d03          	lw	s10,32(sp)
80002588:	01c12d83          	lw	s11,28(sp)
8000258c:	000a0513          	mv	a0,s4
80002590:	03812a03          	lw	s4,56(sp)
80002594:	05010113          	addi	sp,sp,80
80002598:	aa5fd06f          	j	8000003c <pop_tf>
8000259c:	08452703          	lw	a4,132(a0)
800025a0:	00377793          	andi	a5,a4,3
800025a4:	06079e63          	bnez	a5,80002620 <handle_trap+0x130>
800025a8:	008007ef          	jal	a5,800025b0 <handle_trap+0xc0>
800025ac:	00301073          	fssr	zero
800025b0:	00072703          	lw	a4,0(a4)
800025b4:	0007a783          	lw	a5,0(a5)
800025b8:	06f70063          	beq	a4,a5,80002618 <handle_trap+0x128>
800025bc:	04100793          	li	a5,65
800025c0:	00001617          	auipc	a2,0x1
800025c4:	a2060613          	addi	a2,a2,-1504 # 80002fe0 <pass+0x130>
800025c8:	fffff597          	auipc	a1,0xfffff
800025cc:	a3858593          	addi	a1,a1,-1480 # 80001000 <tohost>
800025d0:	fffff697          	auipc	a3,0xfffff
800025d4:	a7068693          	addi	a3,a3,-1424 # 80001040 <fromhost>
800025d8:	010108b7          	lui	a7,0x1010
800025dc:	00f5a023          	sw	a5,0(a1)
800025e0:	00160613          	addi	a2,a2,1
800025e4:	0115a223          	sw	a7,4(a1)
800025e8:	0006a703          	lw	a4,0(a3)
800025ec:	0046a783          	lw	a5,4(a3)
800025f0:	00f76733          	or	a4,a4,a5
800025f4:	fe070ae3          	beqz	a4,800025e8 <handle_trap+0xf8>
800025f8:	00000313          	li	t1,0
800025fc:	00064783          	lbu	a5,0(a2)
80002600:	00000393          	li	t2,0
80002604:	0066a023          	sw	t1,0(a3)
80002608:	0076a223          	sw	t2,4(a3)
8000260c:	fc0796e3          	bnez	a5,800025d8 <handle_trap+0xe8>
80002610:	00300513          	li	a0,3
80002614:	c15ff0ef          	jal	ra,80002228 <terminate>
80002618:	00100513          	li	a0,1
8000261c:	c0dff0ef          	jal	ra,80002228 <terminate>
80002620:	00001617          	auipc	a2,0x1
80002624:	99c60613          	addi	a2,a2,-1636 # 80002fbc <pass+0x10c>
80002628:	04100793          	li	a5,65
8000262c:	fffff597          	auipc	a1,0xfffff
80002630:	9d458593          	addi	a1,a1,-1580 # 80001000 <tohost>
80002634:	fffff697          	auipc	a3,0xfffff
80002638:	a0c68693          	addi	a3,a3,-1524 # 80001040 <fromhost>
8000263c:	01010eb7          	lui	t4,0x1010
80002640:	00f5a023          	sw	a5,0(a1)
80002644:	00160613          	addi	a2,a2,1
80002648:	01d5a223          	sw	t4,4(a1)
8000264c:	0006a703          	lw	a4,0(a3)
80002650:	0046a783          	lw	a5,4(a3)
80002654:	00f76733          	or	a4,a4,a5
80002658:	fe070ae3          	beqz	a4,8000264c <handle_trap+0x15c>
8000265c:	00000813          	li	a6,0
80002660:	00064783          	lbu	a5,0(a2)
80002664:	00000893          	li	a7,0
80002668:	0106a023          	sw	a6,0(a3)
8000266c:	0116a223          	sw	a7,4(a3)
80002670:	fc0796e3          	bnez	a5,8000263c <handle_trap+0x14c>
80002674:	f9dff06f          	j	80002610 <handle_trap+0x120>
80002678:	02852b83          	lw	s7,40(a0)
8000267c:	00001a37          	lui	s4,0x1
80002680:	00005d97          	auipc	s11,0x5
80002684:	b78d8d93          	addi	s11,s11,-1160 # 800071f8 <user_mapping>
80002688:	00002c97          	auipc	s9,0x2
8000268c:	978c8c93          	addi	s9,s9,-1672 # 80004000 <begin_signature>
80002690:	ffc00c37          	lui	s8,0xffc00
80002694:	0003fb37          	lui	s6,0x3f
80002698:	01c0006f          	j	800026b4 <handle_trap+0x1c4>
8000269c:	00f72223          	sw	a5,4(a4)
800026a0:	00005717          	auipc	a4,0x5
800026a4:	d4f72823          	sw	a5,-688(a4) # 800073f0 <freelist_tail>
800026a8:	000017b7          	lui	a5,0x1
800026ac:	00fa0a33          	add	s4,s4,a5
800026b0:	196a0c63          	beq	s4,s6,80002848 <handle_trap+0x358>
800026b4:	00ca5793          	srli	a5,s4,0xc
800026b8:	00379a93          	slli	s5,a5,0x3
800026bc:	015d8733          	add	a4,s11,s5
800026c0:	00072703          	lw	a4,0(a4)
800026c4:	fe0702e3          	beqz	a4,800026a8 <handle_trap+0x1b8>
800026c8:	40078793          	addi	a5,a5,1024 # 1400 <reset_vector-0x7fffec00>
800026cc:	00279793          	slli	a5,a5,0x2
800026d0:	00fc87b3          	add	a5,s9,a5
800026d4:	0007ad03          	lw	s10,0(a5)
800026d8:	040d7793          	andi	a5,s10,64
800026dc:	10078a63          	beqz	a5,800027f0 <handle_trap+0x300>
800026e0:	018a07b3          	add	a5,s4,s8
800026e4:	00001637          	lui	a2,0x1
800026e8:	00078593          	mv	a1,a5
800026ec:	000a0513          	mv	a0,s4
800026f0:	00f12623          	sw	a5,12(sp)
800026f4:	a15ff0ef          	jal	ra,80002108 <memcmp>
800026f8:	02050063          	beqz	a0,80002718 <handle_trap+0x228>
800026fc:	080d7d13          	andi	s10,s10,128
80002700:	00c12783          	lw	a5,12(sp)
80002704:	080d0a63          	beqz	s10,80002798 <handle_trap+0x2a8>
80002708:	00001637          	lui	a2,0x1
8000270c:	00078593          	mv	a1,a5
80002710:	000a0513          	mv	a0,s4
80002714:	8edff0ef          	jal	ra,80002000 <memcpy>
80002718:	015d87b3          	add	a5,s11,s5
8000271c:	0007a023          	sw	zero,0(a5)
80002720:	00005717          	auipc	a4,0x5
80002724:	cd072703          	lw	a4,-816(a4) # 800073f0 <freelist_tail>
80002728:	f6071ae3          	bnez	a4,8000269c <handle_trap+0x1ac>
8000272c:	00005717          	auipc	a4,0x5
80002730:	ccf72223          	sw	a5,-828(a4) # 800073f0 <freelist_tail>
80002734:	00005717          	auipc	a4,0x5
80002738:	ccf72023          	sw	a5,-832(a4) # 800073f4 <freelist_head>
8000273c:	f6dff06f          	j	800026a8 <handle_trap+0x1b8>
80002740:	04100793          	li	a5,65
80002744:	00001617          	auipc	a2,0x1
80002748:	8c860613          	addi	a2,a2,-1848 # 8000300c <pass+0x15c>
8000274c:	fffff597          	auipc	a1,0xfffff
80002750:	8b458593          	addi	a1,a1,-1868 # 80001000 <tohost>
80002754:	fffff697          	auipc	a3,0xfffff
80002758:	8ec68693          	addi	a3,a3,-1812 # 80001040 <fromhost>
8000275c:	010103b7          	lui	t2,0x1010
80002760:	00f5a023          	sw	a5,0(a1)
80002764:	00160613          	addi	a2,a2,1
80002768:	0075a223          	sw	t2,4(a1)
8000276c:	0006a703          	lw	a4,0(a3)
80002770:	0046a783          	lw	a5,4(a3)
80002774:	00f76733          	or	a4,a4,a5
80002778:	fe070ae3          	beqz	a4,8000276c <handle_trap+0x27c>
8000277c:	00000813          	li	a6,0
80002780:	00064783          	lbu	a5,0(a2)
80002784:	00000893          	li	a7,0
80002788:	0106a023          	sw	a6,0(a3)
8000278c:	0116a223          	sw	a7,4(a3)
80002790:	fc0796e3          	bnez	a5,8000275c <handle_trap+0x26c>
80002794:	e7dff06f          	j	80002610 <handle_trap+0x120>
80002798:	04100793          	li	a5,65
8000279c:	00000617          	auipc	a2,0x0
800027a0:	7ec60613          	addi	a2,a2,2028 # 80002f88 <pass+0xd8>
800027a4:	fffff597          	auipc	a1,0xfffff
800027a8:	85c58593          	addi	a1,a1,-1956 # 80001000 <tohost>
800027ac:	fffff697          	auipc	a3,0xfffff
800027b0:	89468693          	addi	a3,a3,-1900 # 80001040 <fromhost>
800027b4:	010104b7          	lui	s1,0x1010
800027b8:	00f5a023          	sw	a5,0(a1)
800027bc:	00160613          	addi	a2,a2,1
800027c0:	0095a223          	sw	s1,4(a1)
800027c4:	0006a703          	lw	a4,0(a3)
800027c8:	0046a783          	lw	a5,4(a3)
800027cc:	00f76733          	or	a4,a4,a5
800027d0:	fe070ae3          	beqz	a4,800027c4 <handle_trap+0x2d4>
800027d4:	00000813          	li	a6,0
800027d8:	00064783          	lbu	a5,0(a2)
800027dc:	00000893          	li	a7,0
800027e0:	0106a023          	sw	a6,0(a3)
800027e4:	0116a223          	sw	a7,4(a3)
800027e8:	fc0796e3          	bnez	a5,800027b4 <handle_trap+0x2c4>
800027ec:	e25ff06f          	j	80002610 <handle_trap+0x120>
800027f0:	04100793          	li	a5,65
800027f4:	00000617          	auipc	a2,0x0
800027f8:	76060613          	addi	a2,a2,1888 # 80002f54 <pass+0xa4>
800027fc:	fffff597          	auipc	a1,0xfffff
80002800:	80458593          	addi	a1,a1,-2044 # 80001000 <tohost>
80002804:	fffff697          	auipc	a3,0xfffff
80002808:	83c68693          	addi	a3,a3,-1988 # 80001040 <fromhost>
8000280c:	010109b7          	lui	s3,0x1010
80002810:	00f5a023          	sw	a5,0(a1)
80002814:	00160613          	addi	a2,a2,1
80002818:	0135a223          	sw	s3,4(a1)
8000281c:	0006a703          	lw	a4,0(a3)
80002820:	0046a783          	lw	a5,4(a3)
80002824:	00f76733          	or	a4,a4,a5
80002828:	fe070ae3          	beqz	a4,8000281c <handle_trap+0x32c>
8000282c:	00000813          	li	a6,0
80002830:	00064783          	lbu	a5,0(a2)
80002834:	00000893          	li	a7,0
80002838:	0106a023          	sw	a6,0(a3)
8000283c:	0116a223          	sw	a7,4(a3)
80002840:	fc0796e3          	bnez	a5,8000280c <handle_trap+0x31c>
80002844:	dcdff06f          	j	80002610 <handle_trap+0x120>
80002848:	000b8513          	mv	a0,s7
8000284c:	9ddff0ef          	jal	ra,80002228 <terminate>

80002850 <vm_boot>:
80002850:	f14027f3          	csrr	a5,mhartid
80002854:	14079663          	bnez	a5,800029a0 <vm_boot+0x150>
80002858:	f6010113          	addi	sp,sp,-160
8000285c:	00001797          	auipc	a5,0x1
80002860:	7a478793          	addi	a5,a5,1956 # 80004000 <begin_signature>
80002864:	08112e23          	sw	ra,156(sp)
80002868:	08812c23          	sw	s0,152(sp)
8000286c:	00c7d793          	srli	a5,a5,0xc
80002870:	18079073          	csrw	sptbr,a5
80002874:	00003697          	auipc	a3,0x3
80002878:	78c68693          	addi	a3,a3,1932 # 80006000 <begin_signature+0x2000>
8000287c:	00002797          	auipc	a5,0x2
80002880:	78478793          	addi	a5,a5,1924 # 80005000 <begin_signature+0x1000>
80002884:	00c6d713          	srli	a4,a3,0xc
80002888:	00c7d793          	srli	a5,a5,0xc
8000288c:	00a71713          	slli	a4,a4,0xa
80002890:	00a79793          	slli	a5,a5,0xa
80002894:	00176713          	ori	a4,a4,1
80002898:	0017e793          	ori	a5,a5,1
8000289c:	00002617          	auipc	a2,0x2
800028a0:	76e62023          	sw	a4,1888(a2) # 80004ffc <begin_signature+0xffc>
800028a4:	00001717          	auipc	a4,0x1
800028a8:	74f72e23          	sw	a5,1884(a4) # 80004000 <begin_signature>
800028ac:	7fbfe797          	auipc	a5,0x7fbfe
800028b0:	81878793          	addi	a5,a5,-2024 # ffc000c4 <_end+0x7fbf8ccc>
800028b4:	10579073          	csrw	stvec,a5
800028b8:	340027f3          	csrr	a5,mscratch
800028bc:	7fc00e37          	lui	t3,0x7fc00
800028c0:	01c787b3          	add	a5,a5,t3
800028c4:	14079073          	csrw	sscratch,a5
800028c8:	1a200793          	li	a5,418
800028cc:	30279073          	csrw	medeleg,a5
800028d0:	0801e7b7          	lui	a5,0x801e
800028d4:	30079073          	csrw	mstatus,a5
800028d8:	30405073          	csrwi	mie,0
800028dc:	7fc04797          	auipc	a5,0x7fc04
800028e0:	72478793          	addi	a5,a5,1828 # ffc07000 <_end+0x7fbffc08>
800028e4:	00005717          	auipc	a4,0x5
800028e8:	b0f72823          	sw	a5,-1264(a4) # 800073f4 <freelist_head>
800028ec:	7fc05797          	auipc	a5,0x7fc05
800028f0:	90478793          	addi	a5,a5,-1788 # ffc071f0 <_end+0x7fbffdf8>
800028f4:	00005717          	auipc	a4,0x5
800028f8:	aef72e23          	sw	a5,-1284(a4) # 800073f0 <freelist_tail>
800028fc:	00080eb7          	lui	t4,0x80
80002900:	00004717          	auipc	a4,0x4
80002904:	70070713          	addi	a4,a4,1792 # 80007000 <freelist_nodes>
80002908:	00003f17          	auipc	t5,0x3
8000290c:	7f4f0f13          	addi	t5,t5,2036 # 800060fc <begin_signature+0x20fc>
80002910:	200005b7          	lui	a1,0x20000
80002914:	00b00793          	li	a5,11
80002918:	03fe8e93          	addi	t4,t4,63 # 8003f <reset_vector-0x7ff7ffc1>
8000291c:	008e0e13          	addi	t3,t3,8 # 7fc00008 <reset_vector-0x3ffff8>
80002920:	0017d813          	srli	a6,a5,0x1
80002924:	01d78633          	add	a2,a5,t4
80002928:	00f847b3          	xor	a5,a6,a5
8000292c:	01c70333          	add	t1,a4,t3
80002930:	00f5e893          	ori	a7,a1,15
80002934:	00c61613          	slli	a2,a2,0xc
80002938:	00579793          	slli	a5,a5,0x5
8000293c:	00c72023          	sw	a2,0(a4)
80002940:	00672223          	sw	t1,4(a4)
80002944:	0207f793          	andi	a5,a5,32
80002948:	0116a023          	sw	a7,0(a3)
8000294c:	00468693          	addi	a3,a3,4
80002950:	00f867b3          	or	a5,a6,a5
80002954:	00870713          	addi	a4,a4,8
80002958:	40058593          	addi	a1,a1,1024 # 20000400 <reset_vector-0x5ffffc00>
8000295c:	fcdf12e3          	bne	t5,a3,80002920 <vm_boot+0xd0>
80002960:	00050413          	mv	s0,a0
80002964:	09000613          	li	a2,144
80002968:	00000593          	li	a1,0
8000296c:	00010513          	mv	a0,sp
80002970:	00005797          	auipc	a5,0x5
80002974:	8807a223          	sw	zero,-1916(a5) # 800071f4 <freelist_nodes+0x1f4>
80002978:	ee4ff0ef          	jal	ra,8000205c <memset>
8000297c:	800007b7          	lui	a5,0x80000
80002980:	00f40433          	add	s0,s0,a5
80002984:	00010513          	mv	a0,sp
80002988:	08812223          	sw	s0,132(sp)
8000298c:	eb0fd0ef          	jal	ra,8000003c <pop_tf>
80002990:	09c12083          	lw	ra,156(sp)
80002994:	09812403          	lw	s0,152(sp)
80002998:	0a010113          	addi	sp,sp,160
8000299c:	00008067          	ret
800029a0:	07c677b7          	lui	a5,0x7c67
800029a4:	00080637          	lui	a2,0x80
800029a8:	35c78793          	addi	a5,a5,860 # 7c6735c <reset_vector-0x78398ca4>
800029ac:	ffc60613          	addi	a2,a2,-4 # 7fffc <reset_vector-0x7ff80004>
800029b0:	800005b7          	lui	a1,0x80000
800029b4:	00c7f733          	and	a4,a5,a2
800029b8:	0017f693          	andi	a3,a5,1
800029bc:	00b70733          	add	a4,a4,a1
800029c0:	00068e63          	beqz	a3,800029dc <vm_boot+0x18c>
800029c4:	0007202f          	amoadd.w	zero,zero,(a4)
800029c8:	0017d793          	srli	a5,a5,0x1
800029cc:	00c7f733          	and	a4,a5,a2
800029d0:	0017f693          	andi	a3,a5,1
800029d4:	00b70733          	add	a4,a4,a1
800029d8:	fe0696e3          	bnez	a3,800029c4 <vm_boot+0x174>
800029dc:	00072003          	lw	zero,0(a4)
800029e0:	0017d793          	srli	a5,a5,0x1
800029e4:	fe9ff06f          	j	800029cc <vm_boot+0x17c>

800029e8 <userstart>:
800029e8:	ff0100b7          	lui	ra,0xff010
800029ec:	f0008093          	addi	ra,ra,-256 # ff00ff00 <_end+0x7f008b08>
800029f0:	0f0f1137          	lui	sp,0xf0f1
800029f4:	f0f10113          	addi	sp,sp,-241 # f0f0f0f <reset_vector-0x70f0f0f1>
800029f8:	0020f1b3          	and	gp,ra,sp
800029fc:	0f001eb7          	lui	t4,0xf001
80002a00:	f00e8e93          	addi	t4,t4,-256 # f000f00 <reset_vector-0x70fff100>
80002a04:	00200e13          	li	t3,2
80002a08:	49d19c63          	bne	gp,t4,80002ea0 <fail>

80002a0c <test_3>:
80002a0c:	0ff010b7          	lui	ra,0xff01
80002a10:	ff008093          	addi	ra,ra,-16 # ff00ff0 <reset_vector-0x700ff010>
80002a14:	f0f0f137          	lui	sp,0xf0f0f
80002a18:	0f010113          	addi	sp,sp,240 # f0f0f0f0 <_end+0x70f07cf8>
80002a1c:	0020f1b3          	and	gp,ra,sp
80002a20:	00f00eb7          	lui	t4,0xf00
80002a24:	0f0e8e93          	addi	t4,t4,240 # f000f0 <reset_vector-0x7f0fff10>
80002a28:	00300e13          	li	t3,3
80002a2c:	47d19a63          	bne	gp,t4,80002ea0 <fail>

80002a30 <test_4>:
80002a30:	00ff00b7          	lui	ra,0xff0
80002a34:	0ff08093          	addi	ra,ra,255 # ff00ff <reset_vector-0x7f00ff01>
80002a38:	0f0f1137          	lui	sp,0xf0f1
80002a3c:	f0f10113          	addi	sp,sp,-241 # f0f0f0f <reset_vector-0x70f0f0f1>
80002a40:	0020f1b3          	and	gp,ra,sp
80002a44:	000f0eb7          	lui	t4,0xf0
80002a48:	00fe8e93          	addi	t4,t4,15 # f000f <reset_vector-0x7ff0fff1>
80002a4c:	00400e13          	li	t3,4
80002a50:	45d19863          	bne	gp,t4,80002ea0 <fail>

80002a54 <test_5>:
80002a54:	f00ff0b7          	lui	ra,0xf00ff
80002a58:	00f08093          	addi	ra,ra,15 # f00ff00f <_end+0x700f7c17>
80002a5c:	f0f0f137          	lui	sp,0xf0f0f
80002a60:	0f010113          	addi	sp,sp,240 # f0f0f0f0 <_end+0x70f07cf8>
80002a64:	0020f1b3          	and	gp,ra,sp
80002a68:	f000feb7          	lui	t4,0xf000f
80002a6c:	00500e13          	li	t3,5
80002a70:	43d19863          	bne	gp,t4,80002ea0 <fail>

80002a74 <test_6>:
80002a74:	ff0100b7          	lui	ra,0xff010
80002a78:	f0008093          	addi	ra,ra,-256 # ff00ff00 <_end+0x7f008b08>
80002a7c:	0f0f1137          	lui	sp,0xf0f1
80002a80:	f0f10113          	addi	sp,sp,-241 # f0f0f0f <reset_vector-0x70f0f0f1>
80002a84:	0020f0b3          	and	ra,ra,sp
80002a88:	0f001eb7          	lui	t4,0xf001
80002a8c:	f00e8e93          	addi	t4,t4,-256 # f000f00 <reset_vector-0x70fff100>
80002a90:	00600e13          	li	t3,6
80002a94:	41d09663          	bne	ra,t4,80002ea0 <fail>

80002a98 <test_7>:
80002a98:	0ff010b7          	lui	ra,0xff01
80002a9c:	ff008093          	addi	ra,ra,-16 # ff00ff0 <reset_vector-0x700ff010>
80002aa0:	f0f0f137          	lui	sp,0xf0f0f
80002aa4:	0f010113          	addi	sp,sp,240 # f0f0f0f0 <_end+0x70f07cf8>
80002aa8:	0020f133          	and	sp,ra,sp
80002aac:	00f00eb7          	lui	t4,0xf00
80002ab0:	0f0e8e93          	addi	t4,t4,240 # f000f0 <reset_vector-0x7f0fff10>
80002ab4:	00700e13          	li	t3,7
80002ab8:	3fd11463          	bne	sp,t4,80002ea0 <fail>

80002abc <test_8>:
80002abc:	ff0100b7          	lui	ra,0xff010
80002ac0:	f0008093          	addi	ra,ra,-256 # ff00ff00 <_end+0x7f008b08>
80002ac4:	0010f0b3          	and	ra,ra,ra
80002ac8:	ff010eb7          	lui	t4,0xff010
80002acc:	f00e8e93          	addi	t4,t4,-256 # ff00ff00 <_end+0x7f008b08>
80002ad0:	00800e13          	li	t3,8
80002ad4:	3dd09663          	bne	ra,t4,80002ea0 <fail>

80002ad8 <test_9>:
80002ad8:	00000213          	li	tp,0
80002adc:	ff0100b7          	lui	ra,0xff010
80002ae0:	f0008093          	addi	ra,ra,-256 # ff00ff00 <_end+0x7f008b08>
80002ae4:	0f0f1137          	lui	sp,0xf0f1
80002ae8:	f0f10113          	addi	sp,sp,-241 # f0f0f0f <reset_vector-0x70f0f0f1>
80002aec:	0020f1b3          	and	gp,ra,sp
80002af0:	00018313          	mv	t1,gp
80002af4:	00120213          	addi	tp,tp,1 # 1 <reset_vector-0x7fffffff>
80002af8:	00200293          	li	t0,2
80002afc:	fe5210e3          	bne	tp,t0,80002adc <test_9+0x4>
80002b00:	0f001eb7          	lui	t4,0xf001
80002b04:	f00e8e93          	addi	t4,t4,-256 # f000f00 <reset_vector-0x70fff100>
80002b08:	00900e13          	li	t3,9
80002b0c:	39d31a63          	bne	t1,t4,80002ea0 <fail>

80002b10 <test_10>:
80002b10:	00000213          	li	tp,0
80002b14:	0ff010b7          	lui	ra,0xff01
80002b18:	ff008093          	addi	ra,ra,-16 # ff00ff0 <reset_vector-0x700ff010>
80002b1c:	f0f0f137          	lui	sp,0xf0f0f
80002b20:	0f010113          	addi	sp,sp,240 # f0f0f0f0 <_end+0x70f07cf8>
80002b24:	0020f1b3          	and	gp,ra,sp
80002b28:	00000013          	nop
80002b2c:	00018313          	mv	t1,gp
80002b30:	00120213          	addi	tp,tp,1 # 1 <reset_vector-0x7fffffff>
80002b34:	00200293          	li	t0,2
80002b38:	fc521ee3          	bne	tp,t0,80002b14 <test_10+0x4>
80002b3c:	00f00eb7          	lui	t4,0xf00
80002b40:	0f0e8e93          	addi	t4,t4,240 # f000f0 <reset_vector-0x7f0fff10>
80002b44:	00a00e13          	li	t3,10
80002b48:	35d31c63          	bne	t1,t4,80002ea0 <fail>

80002b4c <test_11>:
80002b4c:	00000213          	li	tp,0
80002b50:	00ff00b7          	lui	ra,0xff0
80002b54:	0ff08093          	addi	ra,ra,255 # ff00ff <reset_vector-0x7f00ff01>
80002b58:	0f0f1137          	lui	sp,0xf0f1
80002b5c:	f0f10113          	addi	sp,sp,-241 # f0f0f0f <reset_vector-0x70f0f0f1>
80002b60:	0020f1b3          	and	gp,ra,sp
80002b64:	00000013          	nop
80002b68:	00000013          	nop
80002b6c:	00018313          	mv	t1,gp
80002b70:	00120213          	addi	tp,tp,1 # 1 <reset_vector-0x7fffffff>
80002b74:	00200293          	li	t0,2
80002b78:	fc521ce3          	bne	tp,t0,80002b50 <test_11+0x4>
80002b7c:	000f0eb7          	lui	t4,0xf0
80002b80:	00fe8e93          	addi	t4,t4,15 # f000f <reset_vector-0x7ff0fff1>
80002b84:	00b00e13          	li	t3,11
80002b88:	31d31c63          	bne	t1,t4,80002ea0 <fail>

80002b8c <test_12>:
80002b8c:	00000213          	li	tp,0
80002b90:	ff0100b7          	lui	ra,0xff010
80002b94:	f0008093          	addi	ra,ra,-256 # ff00ff00 <_end+0x7f008b08>
80002b98:	0f0f1137          	lui	sp,0xf0f1
80002b9c:	f0f10113          	addi	sp,sp,-241 # f0f0f0f <reset_vector-0x70f0f0f1>
80002ba0:	0020f1b3          	and	gp,ra,sp
80002ba4:	00120213          	addi	tp,tp,1 # 1 <reset_vector-0x7fffffff>
80002ba8:	00200293          	li	t0,2
80002bac:	fe5212e3          	bne	tp,t0,80002b90 <test_12+0x4>
80002bb0:	0f001eb7          	lui	t4,0xf001
80002bb4:	f00e8e93          	addi	t4,t4,-256 # f000f00 <reset_vector-0x70fff100>
80002bb8:	00c00e13          	li	t3,12
80002bbc:	2fd19263          	bne	gp,t4,80002ea0 <fail>

80002bc0 <test_13>:
80002bc0:	00000213          	li	tp,0
80002bc4:	0ff010b7          	lui	ra,0xff01
80002bc8:	ff008093          	addi	ra,ra,-16 # ff00ff0 <reset_vector-0x700ff010>
80002bcc:	f0f0f137          	lui	sp,0xf0f0f
80002bd0:	0f010113          	addi	sp,sp,240 # f0f0f0f0 <_end+0x70f07cf8>
80002bd4:	00000013          	nop
80002bd8:	0020f1b3          	and	gp,ra,sp
80002bdc:	00120213          	addi	tp,tp,1 # 1 <reset_vector-0x7fffffff>
80002be0:	00200293          	li	t0,2
80002be4:	fe5210e3          	bne	tp,t0,80002bc4 <test_13+0x4>
80002be8:	00f00eb7          	lui	t4,0xf00
80002bec:	0f0e8e93          	addi	t4,t4,240 # f000f0 <reset_vector-0x7f0fff10>
80002bf0:	00d00e13          	li	t3,13
80002bf4:	2bd19663          	bne	gp,t4,80002ea0 <fail>

80002bf8 <test_14>:
80002bf8:	00000213          	li	tp,0
80002bfc:	00ff00b7          	lui	ra,0xff0
80002c00:	0ff08093          	addi	ra,ra,255 # ff00ff <reset_vector-0x7f00ff01>
80002c04:	0f0f1137          	lui	sp,0xf0f1
80002c08:	f0f10113          	addi	sp,sp,-241 # f0f0f0f <reset_vector-0x70f0f0f1>
80002c0c:	00000013          	nop
80002c10:	00000013          	nop
80002c14:	0020f1b3          	and	gp,ra,sp
80002c18:	00120213          	addi	tp,tp,1 # 1 <reset_vector-0x7fffffff>
80002c1c:	00200293          	li	t0,2
80002c20:	fc521ee3          	bne	tp,t0,80002bfc <test_14+0x4>
80002c24:	000f0eb7          	lui	t4,0xf0
80002c28:	00fe8e93          	addi	t4,t4,15 # f000f <reset_vector-0x7ff0fff1>
80002c2c:	00e00e13          	li	t3,14
80002c30:	27d19863          	bne	gp,t4,80002ea0 <fail>

80002c34 <test_15>:
80002c34:	00000213          	li	tp,0
80002c38:	ff0100b7          	lui	ra,0xff010
80002c3c:	f0008093          	addi	ra,ra,-256 # ff00ff00 <_end+0x7f008b08>
80002c40:	00000013          	nop
80002c44:	0f0f1137          	lui	sp,0xf0f1
80002c48:	f0f10113          	addi	sp,sp,-241 # f0f0f0f <reset_vector-0x70f0f0f1>
80002c4c:	0020f1b3          	and	gp,ra,sp
80002c50:	00120213          	addi	tp,tp,1 # 1 <reset_vector-0x7fffffff>
80002c54:	00200293          	li	t0,2
80002c58:	fe5210e3          	bne	tp,t0,80002c38 <test_15+0x4>
80002c5c:	0f001eb7          	lui	t4,0xf001
80002c60:	f00e8e93          	addi	t4,t4,-256 # f000f00 <reset_vector-0x70fff100>
80002c64:	00f00e13          	li	t3,15
80002c68:	23d19c63          	bne	gp,t4,80002ea0 <fail>

80002c6c <test_16>:
80002c6c:	00000213          	li	tp,0
80002c70:	0ff010b7          	lui	ra,0xff01
80002c74:	ff008093          	addi	ra,ra,-16 # ff00ff0 <reset_vector-0x700ff010>
80002c78:	00000013          	nop
80002c7c:	f0f0f137          	lui	sp,0xf0f0f
80002c80:	0f010113          	addi	sp,sp,240 # f0f0f0f0 <_end+0x70f07cf8>
80002c84:	00000013          	nop
80002c88:	0020f1b3          	and	gp,ra,sp
80002c8c:	00120213          	addi	tp,tp,1 # 1 <reset_vector-0x7fffffff>
80002c90:	00200293          	li	t0,2
80002c94:	fc521ee3          	bne	tp,t0,80002c70 <test_16+0x4>
80002c98:	00f00eb7          	lui	t4,0xf00
80002c9c:	0f0e8e93          	addi	t4,t4,240 # f000f0 <reset_vector-0x7f0fff10>
80002ca0:	01000e13          	li	t3,16
80002ca4:	1fd19e63          	bne	gp,t4,80002ea0 <fail>

80002ca8 <test_17>:
80002ca8:	00000213          	li	tp,0
80002cac:	00ff00b7          	lui	ra,0xff0
80002cb0:	0ff08093          	addi	ra,ra,255 # ff00ff <reset_vector-0x7f00ff01>
80002cb4:	00000013          	nop
80002cb8:	00000013          	nop
80002cbc:	0f0f1137          	lui	sp,0xf0f1
80002cc0:	f0f10113          	addi	sp,sp,-241 # f0f0f0f <reset_vector-0x70f0f0f1>
80002cc4:	0020f1b3          	and	gp,ra,sp
80002cc8:	00120213          	addi	tp,tp,1 # 1 <reset_vector-0x7fffffff>
80002ccc:	00200293          	li	t0,2
80002cd0:	fc521ee3          	bne	tp,t0,80002cac <test_17+0x4>
80002cd4:	000f0eb7          	lui	t4,0xf0
80002cd8:	00fe8e93          	addi	t4,t4,15 # f000f <reset_vector-0x7ff0fff1>
80002cdc:	01100e13          	li	t3,17
80002ce0:	1dd19063          	bne	gp,t4,80002ea0 <fail>

80002ce4 <test_18>:
80002ce4:	00000213          	li	tp,0
80002ce8:	0f0f1137          	lui	sp,0xf0f1
80002cec:	f0f10113          	addi	sp,sp,-241 # f0f0f0f <reset_vector-0x70f0f0f1>
80002cf0:	ff0100b7          	lui	ra,0xff010
80002cf4:	f0008093          	addi	ra,ra,-256 # ff00ff00 <_end+0x7f008b08>
80002cf8:	0020f1b3          	and	gp,ra,sp
80002cfc:	00120213          	addi	tp,tp,1 # 1 <reset_vector-0x7fffffff>
80002d00:	00200293          	li	t0,2
80002d04:	fe5212e3          	bne	tp,t0,80002ce8 <test_18+0x4>
80002d08:	0f001eb7          	lui	t4,0xf001
80002d0c:	f00e8e93          	addi	t4,t4,-256 # f000f00 <reset_vector-0x70fff100>
80002d10:	01200e13          	li	t3,18
80002d14:	19d19663          	bne	gp,t4,80002ea0 <fail>

80002d18 <test_19>:
80002d18:	00000213          	li	tp,0
80002d1c:	f0f0f137          	lui	sp,0xf0f0f
80002d20:	0f010113          	addi	sp,sp,240 # f0f0f0f0 <_end+0x70f07cf8>
80002d24:	0ff010b7          	lui	ra,0xff01
80002d28:	ff008093          	addi	ra,ra,-16 # ff00ff0 <reset_vector-0x700ff010>
80002d2c:	00000013          	nop
80002d30:	0020f1b3          	and	gp,ra,sp
80002d34:	00120213          	addi	tp,tp,1 # 1 <reset_vector-0x7fffffff>
80002d38:	00200293          	li	t0,2
80002d3c:	fe5210e3          	bne	tp,t0,80002d1c <test_19+0x4>
80002d40:	00f00eb7          	lui	t4,0xf00
80002d44:	0f0e8e93          	addi	t4,t4,240 # f000f0 <reset_vector-0x7f0fff10>
80002d48:	01300e13          	li	t3,19
80002d4c:	15d19a63          	bne	gp,t4,80002ea0 <fail>

80002d50 <test_20>:
80002d50:	00000213          	li	tp,0
80002d54:	0f0f1137          	lui	sp,0xf0f1
80002d58:	f0f10113          	addi	sp,sp,-241 # f0f0f0f <reset_vector-0x70f0f0f1>
80002d5c:	00ff00b7          	lui	ra,0xff0
80002d60:	0ff08093          	addi	ra,ra,255 # ff00ff <reset_vector-0x7f00ff01>
80002d64:	00000013          	nop
80002d68:	00000013          	nop
80002d6c:	0020f1b3          	and	gp,ra,sp
80002d70:	00120213          	addi	tp,tp,1 # 1 <reset_vector-0x7fffffff>
80002d74:	00200293          	li	t0,2
80002d78:	fc521ee3          	bne	tp,t0,80002d54 <test_20+0x4>
80002d7c:	000f0eb7          	lui	t4,0xf0
80002d80:	00fe8e93          	addi	t4,t4,15 # f000f <reset_vector-0x7ff0fff1>
80002d84:	01400e13          	li	t3,20
80002d88:	11d19c63          	bne	gp,t4,80002ea0 <fail>

80002d8c <test_21>:
80002d8c:	00000213          	li	tp,0
80002d90:	0f0f1137          	lui	sp,0xf0f1
80002d94:	f0f10113          	addi	sp,sp,-241 # f0f0f0f <reset_vector-0x70f0f0f1>
80002d98:	00000013          	nop
80002d9c:	ff0100b7          	lui	ra,0xff010
80002da0:	f0008093          	addi	ra,ra,-256 # ff00ff00 <_end+0x7f008b08>
80002da4:	0020f1b3          	and	gp,ra,sp
80002da8:	00120213          	addi	tp,tp,1 # 1 <reset_vector-0x7fffffff>
80002dac:	00200293          	li	t0,2
80002db0:	fe5210e3          	bne	tp,t0,80002d90 <test_21+0x4>
80002db4:	0f001eb7          	lui	t4,0xf001
80002db8:	f00e8e93          	addi	t4,t4,-256 # f000f00 <reset_vector-0x70fff100>
80002dbc:	01500e13          	li	t3,21
80002dc0:	0fd19063          	bne	gp,t4,80002ea0 <fail>

80002dc4 <test_22>:
80002dc4:	00000213          	li	tp,0
80002dc8:	f0f0f137          	lui	sp,0xf0f0f
80002dcc:	0f010113          	addi	sp,sp,240 # f0f0f0f0 <_end+0x70f07cf8>
80002dd0:	00000013          	nop
80002dd4:	0ff010b7          	lui	ra,0xff01
80002dd8:	ff008093          	addi	ra,ra,-16 # ff00ff0 <reset_vector-0x700ff010>
80002ddc:	00000013          	nop
80002de0:	0020f1b3          	and	gp,ra,sp
80002de4:	00120213          	addi	tp,tp,1 # 1 <reset_vector-0x7fffffff>
80002de8:	00200293          	li	t0,2
80002dec:	fc521ee3          	bne	tp,t0,80002dc8 <test_22+0x4>
80002df0:	00f00eb7          	lui	t4,0xf00
80002df4:	0f0e8e93          	addi	t4,t4,240 # f000f0 <reset_vector-0x7f0fff10>
80002df8:	01600e13          	li	t3,22
80002dfc:	0bd19263          	bne	gp,t4,80002ea0 <fail>

80002e00 <test_23>:
80002e00:	00000213          	li	tp,0
80002e04:	0f0f1137          	lui	sp,0xf0f1
80002e08:	f0f10113          	addi	sp,sp,-241 # f0f0f0f <reset_vector-0x70f0f0f1>
80002e0c:	00000013          	nop
80002e10:	00000013          	nop
80002e14:	00ff00b7          	lui	ra,0xff0
80002e18:	0ff08093          	addi	ra,ra,255 # ff00ff <reset_vector-0x7f00ff01>
80002e1c:	0020f1b3          	and	gp,ra,sp
80002e20:	00120213          	addi	tp,tp,1 # 1 <reset_vector-0x7fffffff>
80002e24:	00200293          	li	t0,2
80002e28:	fc521ee3          	bne	tp,t0,80002e04 <test_23+0x4>
80002e2c:	000f0eb7          	lui	t4,0xf0
80002e30:	00fe8e93          	addi	t4,t4,15 # f000f <reset_vector-0x7ff0fff1>
80002e34:	01700e13          	li	t3,23
80002e38:	07d19463          	bne	gp,t4,80002ea0 <fail>

80002e3c <test_24>:
80002e3c:	ff0100b7          	lui	ra,0xff010
80002e40:	f0008093          	addi	ra,ra,-256 # ff00ff00 <_end+0x7f008b08>
80002e44:	00107133          	and	sp,zero,ra
80002e48:	00000e93          	li	t4,0
80002e4c:	01800e13          	li	t3,24
80002e50:	05d11863          	bne	sp,t4,80002ea0 <fail>

80002e54 <test_25>:
80002e54:	00ff00b7          	lui	ra,0xff0
80002e58:	0ff08093          	addi	ra,ra,255 # ff00ff <reset_vector-0x7f00ff01>
80002e5c:	0000f133          	and	sp,ra,zero
80002e60:	00000e93          	li	t4,0
80002e64:	01900e13          	li	t3,25
80002e68:	03d11c63          	bne	sp,t4,80002ea0 <fail>

80002e6c <test_26>:
80002e6c:	000070b3          	and	ra,zero,zero
80002e70:	00000e93          	li	t4,0
80002e74:	01a00e13          	li	t3,26
80002e78:	03d09463          	bne	ra,t4,80002ea0 <fail>

80002e7c <test_27>:
80002e7c:	111110b7          	lui	ra,0x11111
80002e80:	11108093          	addi	ra,ra,273 # 11111111 <reset_vector-0x6eeeeeef>
80002e84:	22222137          	lui	sp,0x22222
80002e88:	22210113          	addi	sp,sp,546 # 22222222 <reset_vector-0x5dddddde>
80002e8c:	0020f033          	and	zero,ra,sp
80002e90:	00000e93          	li	t4,0
80002e94:	01b00e13          	li	t3,27
80002e98:	01d01463          	bne	zero,t4,80002ea0 <fail>
80002e9c:	01c01a63          	bne	zero,t3,80002eb0 <pass>

80002ea0 <fail>:
80002ea0:	001e1513          	slli	a0,t3,0x1
80002ea4:	00050063          	beqz	a0,80002ea4 <fail+0x4>
80002ea8:	00156513          	ori	a0,a0,1
80002eac:	00000073          	ecall

80002eb0 <pass>:
80002eb0:	00100513          	li	a0,1
80002eb4:	00000073          	ecall
80002eb8:	c0001073          	unimp
