
rv64ui-p-ld:     file format elf64-littleriscv


Disassembly of section .text.init:

0000000000000000 <_start>:
   0:	04c0006f          	j	4c <reset_vector>

0000000000000004 <trap_vector>:
   4:	34202f73          	csrr	t5,mcause
   8:	00800f93          	li	t6,8
   c:	03ff0a63          	beq	t5,t6,40 <write_tohost>
  10:	00900f93          	li	t6,9
  14:	03ff0663          	beq	t5,t6,40 <write_tohost>
  18:	00b00f93          	li	t6,11
  1c:	03ff0263          	beq	t5,t6,40 <write_tohost>
  20:	00000f17          	auipc	t5,0x0
  24:	fe0f0f13          	addi	t5,t5,-32 # 0 <_start>
  28:	000f0463          	beqz	t5,30 <trap_vector+0x2c>
  2c:	000f0067          	jr	t5
  30:	34202f73          	csrr	t5,mcause
  34:	000f5463          	bgez	t5,3c <handle_exception>
  38:	0040006f          	j	3c <handle_exception>

000000000000003c <handle_exception>:
  3c:	539e6e13          	ori	t3,t3,1337

0000000000000040 <write_tohost>:
  40:	00001f17          	auipc	t5,0x1
  44:	fdcf2023          	sw	t3,-64(t5) # 1000 <tohost>
  48:	ff9ff06f          	j	40 <write_tohost>

000000000000004c <reset_vector>:
  4c:	f1402573          	csrr	a0,mhartid
  50:	00051063          	bnez	a0,50 <reset_vector+0x4>
  54:	30102573          	csrr	a0,misa
  58:	00054863          	bltz	a0,68 <reset_vector+0x1c>
  5c:	0ff0000f          	fence
  60:	00100e13          	li	t3,1
  64:	00000073          	ecall
  68:	00000e13          	li	t3,0
  6c:	00000297          	auipc	t0,0x0
  70:	f9828293          	addi	t0,t0,-104 # 4 <trap_vector>
  74:	30529073          	csrw	mtvec,t0
  78:	30205073          	csrwi	medeleg,0
  7c:	30305073          	csrwi	mideleg,0
  80:	30405073          	csrwi	mie,0
  84:	00000297          	auipc	t0,0x0
  88:	f7c28293          	addi	t0,t0,-132 # 0 <_start>
  8c:	00028c63          	beqz	t0,a4 <reset_vector+0x58>
  90:	10529073          	csrw	stvec,t0
  94:	1ab00293          	li	t0,427
  98:	30229073          	csrw	medeleg,t0
  9c:	30202373          	csrr	t1,medeleg
  a0:	f8629ee3          	bne	t0,t1,3c <handle_exception>
  a4:	30005073          	csrwi	mstatus,0
  a8:	00000297          	auipc	t0,0x0
  ac:	01428293          	addi	t0,t0,20 # bc <test_2>
  b0:	34129073          	csrw	mepc,t0
  b4:	f1402573          	csrr	a0,mhartid
  b8:	30200073          	mret

00000000000000bc <test_2>:
  bc:	00002097          	auipc	ra,0x2
  c0:	f4408093          	addi	ra,ra,-188 # 2000 <begin_signature>
  c4:	0000b183          	ld	gp,0(ra)
  c8:	00ff0eb7          	lui	t4,0xff0
  cc:	0ffe8e9b          	addiw	t4,t4,255
  d0:	010e9e93          	slli	t4,t4,0x10
  d4:	0ffe8e93          	addi	t4,t4,255 # ff00ff <_end+0xfee0df>
  d8:	010e9e93          	slli	t4,t4,0x10
  dc:	0ffe8e93          	addi	t4,t4,255
  e0:	00200e13          	li	t3,2
  e4:	3bd19263          	bne	gp,t4,488 <fail>

00000000000000e8 <test_3>:
  e8:	00002097          	auipc	ra,0x2
  ec:	f1808093          	addi	ra,ra,-232 # 2000 <begin_signature>
  f0:	0080b183          	ld	gp,8(ra)
  f4:	ff010eb7          	lui	t4,0xff010
  f8:	f01e8e9b          	addiw	t4,t4,-255
  fc:	010e9e93          	slli	t4,t4,0x10
 100:	f01e8e93          	addi	t4,t4,-255 # ffffffffff00ff01 <_end+0xffffffffff00dee1>
 104:	010e9e93          	slli	t4,t4,0x10
 108:	f00e8e93          	addi	t4,t4,-256
 10c:	00300e13          	li	t3,3
 110:	37d19c63          	bne	gp,t4,488 <fail>

0000000000000114 <test_4>:
 114:	00002097          	auipc	ra,0x2
 118:	eec08093          	addi	ra,ra,-276 # 2000 <begin_signature>
 11c:	0100b183          	ld	gp,16(ra)
 120:	00010eb7          	lui	t4,0x10
 124:	f01e8e9b          	addiw	t4,t4,-255
 128:	010e9e93          	slli	t4,t4,0x10
 12c:	f01e8e93          	addi	t4,t4,-255 # ff01 <_end+0xdee1>
 130:	010e9e93          	slli	t4,t4,0x10
 134:	f01e8e93          	addi	t4,t4,-255
 138:	00ce9e93          	slli	t4,t4,0xc
 13c:	ff0e8e93          	addi	t4,t4,-16
 140:	00400e13          	li	t3,4
 144:	35d19263          	bne	gp,t4,488 <fail>

0000000000000148 <test_5>:
 148:	00002097          	auipc	ra,0x2
 14c:	eb808093          	addi	ra,ra,-328 # 2000 <begin_signature>
 150:	0180b183          	ld	gp,24(ra)
 154:	ffff0eb7          	lui	t4,0xffff0
 158:	0ffe8e9b          	addiw	t4,t4,255
 15c:	010e9e93          	slli	t4,t4,0x10
 160:	0ffe8e93          	addi	t4,t4,255 # ffffffffffff00ff <_end+0xfffffffffffee0df>
 164:	010e9e93          	slli	t4,t4,0x10
 168:	0ffe8e93          	addi	t4,t4,255
 16c:	00ce9e93          	slli	t4,t4,0xc
 170:	00fe8e93          	addi	t4,t4,15
 174:	00500e13          	li	t3,5
 178:	31d19863          	bne	gp,t4,488 <fail>

000000000000017c <test_6>:
 17c:	00002097          	auipc	ra,0x2
 180:	e9c08093          	addi	ra,ra,-356 # 2018 <tdat4>
 184:	fe80b183          	ld	gp,-24(ra)
 188:	00ff0eb7          	lui	t4,0xff0
 18c:	0ffe8e9b          	addiw	t4,t4,255
 190:	010e9e93          	slli	t4,t4,0x10
 194:	0ffe8e93          	addi	t4,t4,255 # ff00ff <_end+0xfee0df>
 198:	010e9e93          	slli	t4,t4,0x10
 19c:	0ffe8e93          	addi	t4,t4,255
 1a0:	00600e13          	li	t3,6
 1a4:	2fd19263          	bne	gp,t4,488 <fail>

00000000000001a8 <test_7>:
 1a8:	00002097          	auipc	ra,0x2
 1ac:	e7008093          	addi	ra,ra,-400 # 2018 <tdat4>
 1b0:	ff00b183          	ld	gp,-16(ra)
 1b4:	ff010eb7          	lui	t4,0xff010
 1b8:	f01e8e9b          	addiw	t4,t4,-255
 1bc:	010e9e93          	slli	t4,t4,0x10
 1c0:	f01e8e93          	addi	t4,t4,-255 # ffffffffff00ff01 <_end+0xffffffffff00dee1>
 1c4:	010e9e93          	slli	t4,t4,0x10
 1c8:	f00e8e93          	addi	t4,t4,-256
 1cc:	00700e13          	li	t3,7
 1d0:	2bd19c63          	bne	gp,t4,488 <fail>

00000000000001d4 <test_8>:
 1d4:	00002097          	auipc	ra,0x2
 1d8:	e4408093          	addi	ra,ra,-444 # 2018 <tdat4>
 1dc:	ff80b183          	ld	gp,-8(ra)
 1e0:	00010eb7          	lui	t4,0x10
 1e4:	f01e8e9b          	addiw	t4,t4,-255
 1e8:	010e9e93          	slli	t4,t4,0x10
 1ec:	f01e8e93          	addi	t4,t4,-255 # ff01 <_end+0xdee1>
 1f0:	010e9e93          	slli	t4,t4,0x10
 1f4:	f01e8e93          	addi	t4,t4,-255
 1f8:	00ce9e93          	slli	t4,t4,0xc
 1fc:	ff0e8e93          	addi	t4,t4,-16
 200:	00800e13          	li	t3,8
 204:	29d19263          	bne	gp,t4,488 <fail>

0000000000000208 <test_9>:
 208:	00002097          	auipc	ra,0x2
 20c:	e1008093          	addi	ra,ra,-496 # 2018 <tdat4>
 210:	0000b183          	ld	gp,0(ra)
 214:	ffff0eb7          	lui	t4,0xffff0
 218:	0ffe8e9b          	addiw	t4,t4,255
 21c:	010e9e93          	slli	t4,t4,0x10
 220:	0ffe8e93          	addi	t4,t4,255 # ffffffffffff00ff <_end+0xfffffffffffee0df>
 224:	010e9e93          	slli	t4,t4,0x10
 228:	0ffe8e93          	addi	t4,t4,255
 22c:	00ce9e93          	slli	t4,t4,0xc
 230:	00fe8e93          	addi	t4,t4,15
 234:	00900e13          	li	t3,9
 238:	25d19863          	bne	gp,t4,488 <fail>

000000000000023c <test_10>:
 23c:	00002097          	auipc	ra,0x2
 240:	dc408093          	addi	ra,ra,-572 # 2000 <begin_signature>
 244:	fe008093          	addi	ra,ra,-32
 248:	0200b183          	ld	gp,32(ra)
 24c:	00ff0eb7          	lui	t4,0xff0
 250:	0ffe8e9b          	addiw	t4,t4,255
 254:	010e9e93          	slli	t4,t4,0x10
 258:	0ffe8e93          	addi	t4,t4,255 # ff00ff <_end+0xfee0df>
 25c:	010e9e93          	slli	t4,t4,0x10
 260:	0ffe8e93          	addi	t4,t4,255
 264:	00a00e13          	li	t3,10
 268:	23d19063          	bne	gp,t4,488 <fail>

000000000000026c <test_11>:
 26c:	00002097          	auipc	ra,0x2
 270:	d9408093          	addi	ra,ra,-620 # 2000 <begin_signature>
 274:	ffd08093          	addi	ra,ra,-3
 278:	00b0b183          	ld	gp,11(ra)
 27c:	ff010eb7          	lui	t4,0xff010
 280:	f01e8e9b          	addiw	t4,t4,-255
 284:	010e9e93          	slli	t4,t4,0x10
 288:	f01e8e93          	addi	t4,t4,-255 # ffffffffff00ff01 <_end+0xffffffffff00dee1>
 28c:	010e9e93          	slli	t4,t4,0x10
 290:	f00e8e93          	addi	t4,t4,-256
 294:	00b00e13          	li	t3,11
 298:	1fd19863          	bne	gp,t4,488 <fail>

000000000000029c <test_12>:
 29c:	00c00e13          	li	t3,12
 2a0:	00000213          	li	tp,0
 2a4:	00002097          	auipc	ra,0x2
 2a8:	d6408093          	addi	ra,ra,-668 # 2008 <tdat2>
 2ac:	0080b183          	ld	gp,8(ra)
 2b0:	00018313          	mv	t1,gp
 2b4:	00010eb7          	lui	t4,0x10
 2b8:	f01e8e9b          	addiw	t4,t4,-255
 2bc:	010e9e93          	slli	t4,t4,0x10
 2c0:	f01e8e93          	addi	t4,t4,-255 # ff01 <_end+0xdee1>
 2c4:	010e9e93          	slli	t4,t4,0x10
 2c8:	f01e8e93          	addi	t4,t4,-255
 2cc:	00ce9e93          	slli	t4,t4,0xc
 2d0:	ff0e8e93          	addi	t4,t4,-16
 2d4:	1bd31a63          	bne	t1,t4,488 <fail>
 2d8:	00120213          	addi	tp,tp,1 # 1 <_start+0x1>
 2dc:	00200293          	li	t0,2
 2e0:	fc5212e3          	bne	tp,t0,2a4 <test_12+0x8>

00000000000002e4 <test_13>:
 2e4:	00d00e13          	li	t3,13
 2e8:	00000213          	li	tp,0
 2ec:	00002097          	auipc	ra,0x2
 2f0:	d2408093          	addi	ra,ra,-732 # 2010 <tdat3>
 2f4:	0080b183          	ld	gp,8(ra)
 2f8:	00000013          	nop
 2fc:	00018313          	mv	t1,gp
 300:	ffff0eb7          	lui	t4,0xffff0
 304:	0ffe8e9b          	addiw	t4,t4,255
 308:	010e9e93          	slli	t4,t4,0x10
 30c:	0ffe8e93          	addi	t4,t4,255 # ffffffffffff00ff <_end+0xfffffffffffee0df>
 310:	010e9e93          	slli	t4,t4,0x10
 314:	0ffe8e93          	addi	t4,t4,255
 318:	00ce9e93          	slli	t4,t4,0xc
 31c:	00fe8e93          	addi	t4,t4,15
 320:	17d31463          	bne	t1,t4,488 <fail>
 324:	00120213          	addi	tp,tp,1 # 1 <_start+0x1>
 328:	00200293          	li	t0,2
 32c:	fc5210e3          	bne	tp,t0,2ec <test_13+0x8>

0000000000000330 <test_14>:
 330:	00e00e13          	li	t3,14
 334:	00000213          	li	tp,0
 338:	00002097          	auipc	ra,0x2
 33c:	cc808093          	addi	ra,ra,-824 # 2000 <begin_signature>
 340:	0080b183          	ld	gp,8(ra)
 344:	00000013          	nop
 348:	00000013          	nop
 34c:	00018313          	mv	t1,gp
 350:	ff010eb7          	lui	t4,0xff010
 354:	f01e8e9b          	addiw	t4,t4,-255
 358:	010e9e93          	slli	t4,t4,0x10
 35c:	f01e8e93          	addi	t4,t4,-255 # ffffffffff00ff01 <_end+0xffffffffff00dee1>
 360:	010e9e93          	slli	t4,t4,0x10
 364:	f00e8e93          	addi	t4,t4,-256
 368:	13d31063          	bne	t1,t4,488 <fail>
 36c:	00120213          	addi	tp,tp,1 # 1 <_start+0x1>
 370:	00200293          	li	t0,2
 374:	fc5212e3          	bne	tp,t0,338 <test_14+0x8>

0000000000000378 <test_15>:
 378:	00f00e13          	li	t3,15
 37c:	00000213          	li	tp,0
 380:	00002097          	auipc	ra,0x2
 384:	c8808093          	addi	ra,ra,-888 # 2008 <tdat2>
 388:	0080b183          	ld	gp,8(ra)
 38c:	00010eb7          	lui	t4,0x10
 390:	f01e8e9b          	addiw	t4,t4,-255
 394:	010e9e93          	slli	t4,t4,0x10
 398:	f01e8e93          	addi	t4,t4,-255 # ff01 <_end+0xdee1>
 39c:	010e9e93          	slli	t4,t4,0x10
 3a0:	f01e8e93          	addi	t4,t4,-255
 3a4:	00ce9e93          	slli	t4,t4,0xc
 3a8:	ff0e8e93          	addi	t4,t4,-16
 3ac:	0dd19e63          	bne	gp,t4,488 <fail>
 3b0:	00120213          	addi	tp,tp,1 # 1 <_start+0x1>
 3b4:	00200293          	li	t0,2
 3b8:	fc5214e3          	bne	tp,t0,380 <test_15+0x8>

00000000000003bc <test_16>:
 3bc:	01000e13          	li	t3,16
 3c0:	00000213          	li	tp,0
 3c4:	00002097          	auipc	ra,0x2
 3c8:	c4c08093          	addi	ra,ra,-948 # 2010 <tdat3>
 3cc:	00000013          	nop
 3d0:	0080b183          	ld	gp,8(ra)
 3d4:	ffff0eb7          	lui	t4,0xffff0
 3d8:	0ffe8e9b          	addiw	t4,t4,255
 3dc:	010e9e93          	slli	t4,t4,0x10
 3e0:	0ffe8e93          	addi	t4,t4,255 # ffffffffffff00ff <_end+0xfffffffffffee0df>
 3e4:	010e9e93          	slli	t4,t4,0x10
 3e8:	0ffe8e93          	addi	t4,t4,255
 3ec:	00ce9e93          	slli	t4,t4,0xc
 3f0:	00fe8e93          	addi	t4,t4,15
 3f4:	09d19a63          	bne	gp,t4,488 <fail>
 3f8:	00120213          	addi	tp,tp,1 # 1 <_start+0x1>
 3fc:	00200293          	li	t0,2
 400:	fc5212e3          	bne	tp,t0,3c4 <test_16+0x8>

0000000000000404 <test_17>:
 404:	01100e13          	li	t3,17
 408:	00000213          	li	tp,0
 40c:	00002097          	auipc	ra,0x2
 410:	bf408093          	addi	ra,ra,-1036 # 2000 <begin_signature>
 414:	00000013          	nop
 418:	00000013          	nop
 41c:	0080b183          	ld	gp,8(ra)
 420:	ff010eb7          	lui	t4,0xff010
 424:	f01e8e9b          	addiw	t4,t4,-255
 428:	010e9e93          	slli	t4,t4,0x10
 42c:	f01e8e93          	addi	t4,t4,-255 # ffffffffff00ff01 <_end+0xffffffffff00dee1>
 430:	010e9e93          	slli	t4,t4,0x10
 434:	f00e8e93          	addi	t4,t4,-256
 438:	05d19863          	bne	gp,t4,488 <fail>
 43c:	00120213          	addi	tp,tp,1 # 1 <_start+0x1>
 440:	00200293          	li	t0,2
 444:	fc5214e3          	bne	tp,t0,40c <test_17+0x8>

0000000000000448 <test_18>:
 448:	00002197          	auipc	gp,0x2
 44c:	bb818193          	addi	gp,gp,-1096 # 2000 <begin_signature>
 450:	0001b103          	ld	sp,0(gp)
 454:	00200113          	li	sp,2
 458:	00200e93          	li	t4,2
 45c:	01200e13          	li	t3,18
 460:	03d11463          	bne	sp,t4,488 <fail>

0000000000000464 <test_19>:
 464:	00002197          	auipc	gp,0x2
 468:	b9c18193          	addi	gp,gp,-1124 # 2000 <begin_signature>
 46c:	0001b103          	ld	sp,0(gp)
 470:	00000013          	nop
 474:	00200113          	li	sp,2
 478:	00200e93          	li	t4,2
 47c:	01300e13          	li	t3,19
 480:	01d11463          	bne	sp,t4,488 <fail>
 484:	01c01c63          	bne	zero,t3,49c <pass>

0000000000000488 <fail>:
 488:	0ff0000f          	fence
 48c:	000e0063          	beqz	t3,48c <fail+0x4>
 490:	001e1e13          	slli	t3,t3,0x1
 494:	001e6e13          	ori	t3,t3,1
 498:	00000073          	ecall

000000000000049c <pass>:
 49c:	0ff0000f          	fence
 4a0:	00100e13          	li	t3,1
 4a4:	00000073          	ecall
 4a8:	c0001073          	unimp
 4ac:	0000                	unimp
 4ae:	0000                	unimp
 4b0:	0000                	unimp
 4b2:	0000                	unimp
 4b4:	0000                	unimp
 4b6:	0000                	unimp
 4b8:	0000                	unimp
 4ba:	0000                	unimp
 4bc:	0000                	unimp
 4be:	0000                	unimp
 4c0:	0000                	unimp
 4c2:	0000                	unimp
