
rv64si-p-dirty:     file format elf64-littleriscv


Disassembly of section .text.init:

0000000000000000 <_start>:
   0:	04c0006f          	j	4c <reset_vector>

0000000000000004 <trap_vector>:
   4:	34202f73          	csrr	t5,mcause
   8:	00800f93          	li	t6,8
   c:	03ff0a63          	beq	t5,t6,40 <write_tohost>
  10:	00900f93          	li	t6,9
  14:	03ff0663          	beq	t5,t6,40 <write_tohost>
  18:	00b00f93          	li	t6,11
  1c:	03ff0263          	beq	t5,t6,40 <write_tohost>
  20:	00000f17          	auipc	t5,0x0
  24:	fe0f0f13          	addi	t5,t5,-32 # 0 <_start>
  28:	000f0463          	beqz	t5,30 <trap_vector+0x2c>
  2c:	000f0067          	jr	t5
  30:	34202f73          	csrr	t5,mcause
  34:	000f5463          	bgez	t5,3c <handle_exception>
  38:	0040006f          	j	3c <handle_exception>

000000000000003c <handle_exception>:
  3c:	539e6e13          	ori	t3,t3,1337

0000000000000040 <write_tohost>:
  40:	00001f17          	auipc	t5,0x1
  44:	fdcf2023          	sw	t3,-64(t5) # 1000 <tohost>
  48:	ff9ff06f          	j	40 <write_tohost>

000000000000004c <reset_vector>:
  4c:	f1402573          	csrr	a0,mhartid
  50:	00051063          	bnez	a0,50 <reset_vector+0x4>
  54:	30102573          	csrr	a0,misa
  58:	00054863          	bltz	a0,68 <reset_vector+0x1c>
  5c:	0ff0000f          	fence
  60:	00100e13          	li	t3,1
  64:	00000073          	ecall
  68:	00000e13          	li	t3,0
  6c:	00000297          	auipc	t0,0x0
  70:	f9828293          	addi	t0,t0,-104 # 4 <trap_vector>
  74:	30529073          	csrw	mtvec,t0
  78:	30205073          	csrwi	medeleg,0
  7c:	30305073          	csrwi	mideleg,0
  80:	30405073          	csrwi	mie,0
  84:	00000297          	auipc	t0,0x0
  88:	0f428293          	addi	t0,t0,244 # 178 <stvec_handler>
  8c:	00028c63          	beqz	t0,a4 <reset_vector+0x58>
  90:	10529073          	csrw	stvec,t0
  94:	1ab00293          	li	t0,427
  98:	30229073          	csrw	medeleg,t0
  9c:	30202373          	csrr	t1,medeleg
  a0:	f8629ee3          	bne	t0,t1,3c <handle_exception>
  a4:	30005073          	csrwi	mstatus,0
  a8:	00002537          	lui	a0,0x2
  ac:	8005051b          	addiw	a0,a0,-2048
  b0:	30052073          	csrs	mstatus,a0
  b4:	00000297          	auipc	t0,0x0
  b8:	01428293          	addi	t0,t0,20 # c8 <reset_vector+0x7c>
  bc:	34129073          	csrw	mepc,t0
  c0:	f1402573          	csrr	a0,mhartid
  c4:	30200073          	mret
  c8:	00002597          	auipc	a1,0x2
  cc:	f3858593          	addi	a1,a1,-200 # 2000 <begin_signature>
  d0:	00c5d593          	srli	a1,a1,0xc
  d4:	00003617          	auipc	a2,0x3
  d8:	f2c60613          	addi	a2,a2,-212 # 3000 <page_table_2>
  dc:	00c65613          	srli	a2,a2,0xc
  e0:	18059073          	csrw	sptbr,a1
  e4:	10400073          	sfence.vm
  e8:	090015b7          	lui	a1,0x9001
  ec:	8005859b          	addiw	a1,a1,-2048
  f0:	3005a073          	csrs	mstatus,a1
  f4:	80000597          	auipc	a1,0x80000
  f8:	01c58593          	addi	a1,a1,28 # ffffffff80000110 <_end+0xffffffff7fffd100>
  fc:	34159073          	csrw	mepc,a1
 100:	80000597          	auipc	a1,0x80000
 104:	07858593          	addi	a1,a1,120 # ffffffff80000178 <_end+0xffffffff7fffd168>
 108:	10559073          	csrw	stvec,a1
 10c:	30200073          	mret
 110:	00200e13          	li	t3,2
 114:	00100293          	li	t0,1
 118:	00002317          	auipc	t1,0x2
 11c:	ee532823          	sw	t0,-272(t1) # 2008 <dummy>
 120:	00300e13          	li	t3,3
 124:	18061073          	csrw	sptbr,a2
 128:	10400073          	sfence.vm
 12c:	00002317          	auipc	t1,0x2
 130:	ec532e23          	sw	t0,-292(t1) # 2008 <dummy>
 134:	00003297          	auipc	t0,0x3
 138:	ecc2a283          	lw	t0,-308(t0) # 3000 <page_table_2>
 13c:	0c000313          	li	t1,192
 140:	0062f2b3          	and	t0,t0,t1
 144:	06629c63          	bne	t0,t1,1bc <die>
 148:	0ff0000f          	fence
 14c:	00100e13          	li	t3,1
 150:	00000073          	ecall
 154:	01c01c63          	bne	zero,t3,16c <pass>

0000000000000158 <fail>:
 158:	0ff0000f          	fence
 15c:	000e0063          	beqz	t3,15c <fail+0x4>
 160:	001e1e13          	slli	t3,t3,0x1
 164:	001e6e13          	ori	t3,t3,1
 168:	00000073          	ecall

000000000000016c <pass>:
 16c:	0ff0000f          	fence
 170:	00100e13          	li	t3,1
 174:	00000073          	ecall

0000000000000178 <stvec_handler>:
 178:	142022f3          	csrr	t0,scause
 17c:	00200313          	li	t1,2
 180:	046e1063          	bne	t3,t1,1c0 <die+0x4>
 184:	00002297          	auipc	t0,0x2
 188:	e7c2a283          	lw	t0,-388(t0) # 2000 <begin_signature>
 18c:	04000313          	li	t1,64
 190:	0062f2b3          	and	t0,t0,t1
 194:	02629463          	bne	t0,t1,1bc <die>
 198:	00002297          	auipc	t0,0x2
 19c:	e682a283          	lw	t0,-408(t0) # 2000 <begin_signature>
 1a0:	08000313          	li	t1,128
 1a4:	0062f2b3          	and	t0,t0,t1
 1a8:	00628a63          	beq	t0,t1,1bc <die>
 1ac:	141022f3          	csrr	t0,sepc
 1b0:	00428293          	addi	t0,t0,4
 1b4:	14129073          	csrw	sepc,t0
 1b8:	10200073          	sret

00000000000001bc <die>:
 1bc:	0ff0000f          	fence
 1c0:	000e0063          	beqz	t3,1c0 <die+0x4>
 1c4:	001e1e13          	slli	t3,t3,0x1
 1c8:	001e6e13          	ori	t3,t3,1
 1cc:	00000073          	ecall
 1d0:	c0001073          	unimp
 1d4:	0000                	unimp
 1d6:	0000                	unimp
 1d8:	0000                	unimp
 1da:	0000                	unimp
 1dc:	0000                	unimp
 1de:	0000                	unimp
 1e0:	0000                	unimp
 1e2:	0000                	unimp
 1e4:	0000                	unimp
 1e6:	0000                	unimp
 1e8:	0000                	unimp
 1ea:	0000                	unimp
 1ec:	0000                	unimp
 1ee:	0000                	unimp
 1f0:	0000                	unimp
 1f2:	0000                	unimp
 1f4:	0000                	unimp
 1f6:	0000                	unimp
 1f8:	0000                	unimp
 1fa:	0000                	unimp
 1fc:	0000                	unimp
 1fe:	0000                	unimp
 200:	0000                	unimp
 202:	0000                	unimp
