
rv64mi-p-csr:     file format elf64-littleriscv


Disassembly of section .text.init:

0000000000000000 <_start>:
   0:	04c0006f          	j	4c <reset_vector>

0000000000000004 <trap_vector>:
   4:	34202f73          	csrr	t5,mcause
   8:	00800f93          	li	t6,8
   c:	03ff0a63          	beq	t5,t6,40 <write_tohost>
  10:	00900f93          	li	t6,9
  14:	03ff0663          	beq	t5,t6,40 <write_tohost>
  18:	00b00f93          	li	t6,11
  1c:	03ff0263          	beq	t5,t6,40 <write_tohost>
  20:	00000f17          	auipc	t5,0x0
  24:	208f0f13          	addi	t5,t5,520 # 228 <mtvec_handler>
  28:	000f0463          	beqz	t5,30 <trap_vector+0x2c>
  2c:	000f0067          	jr	t5
  30:	34202f73          	csrr	t5,mcause
  34:	000f5463          	bgez	t5,3c <handle_exception>
  38:	0040006f          	j	3c <handle_exception>

000000000000003c <handle_exception>:
  3c:	539e6e13          	ori	t3,t3,1337

0000000000000040 <write_tohost>:
  40:	00001f17          	auipc	t5,0x1
  44:	fdcf2023          	sw	t3,-64(t5) # 1000 <tohost>
  48:	ff9ff06f          	j	40 <write_tohost>

000000000000004c <reset_vector>:
  4c:	f1402573          	csrr	a0,mhartid
  50:	00051063          	bnez	a0,50 <reset_vector+0x4>
  54:	30102573          	csrr	a0,misa
  58:	00054863          	bltz	a0,68 <reset_vector+0x1c>
  5c:	0ff0000f          	fence
  60:	00100e13          	li	t3,1
  64:	00000073          	ecall
  68:	00000e13          	li	t3,0
  6c:	00000297          	auipc	t0,0x0
  70:	f9828293          	addi	t0,t0,-104 # 4 <trap_vector>
  74:	30529073          	csrw	mtvec,t0
  78:	30205073          	csrwi	medeleg,0
  7c:	30305073          	csrwi	mideleg,0
  80:	30405073          	csrwi	mie,0
  84:	00000297          	auipc	t0,0x0
  88:	f7c28293          	addi	t0,t0,-132 # 0 <_start>
  8c:	00028c63          	beqz	t0,a4 <reset_vector+0x58>
  90:	10529073          	csrw	stvec,t0
  94:	1ab00293          	li	t0,427
  98:	30229073          	csrw	medeleg,t0
  9c:	30202373          	csrr	t1,medeleg
  a0:	f8629ee3          	bne	t0,t1,3c <handle_exception>
  a4:	30005073          	csrwi	mstatus,0
  a8:	00002537          	lui	a0,0x2
  ac:	8005051b          	addiw	a0,a0,-2048
  b0:	30052073          	csrs	mstatus,a0
  b4:	00000297          	auipc	t0,0x0
  b8:	01428293          	addi	t0,t0,20 # c8 <reset_vector+0x7c>
  bc:	34129073          	csrw	mepc,t0
  c0:	f1402573          	csrr	a0,mhartid
  c4:	30200073          	mret
  c8:	3401d073          	csrwi	mscratch,3

00000000000000cc <test_2>:
  cc:	34002573          	csrr	a0,mscratch
  d0:	00300e93          	li	t4,3
  d4:	00200e13          	li	t3,2
  d8:	13d51863          	bne	a0,t4,208 <fail>

00000000000000dc <test_3>:
  dc:	3400f5f3          	csrrci	a1,mscratch,1
  e0:	00300e93          	li	t4,3
  e4:	00300e13          	li	t3,3
  e8:	13d59063          	bne	a1,t4,208 <fail>

00000000000000ec <test_4>:
  ec:	34026673          	csrrsi	a2,mscratch,4
  f0:	00200e93          	li	t4,2
  f4:	00400e13          	li	t3,4
  f8:	11d61863          	bne	a2,t4,208 <fail>

00000000000000fc <test_5>:
  fc:	340156f3          	csrrwi	a3,mscratch,2
 100:	00600e93          	li	t4,6
 104:	00500e13          	li	t3,5
 108:	11d69063          	bne	a3,t4,208 <fail>

000000000000010c <test_6>:
 10c:	0bad2537          	lui	a0,0xbad2
 110:	dea5051b          	addiw	a0,a0,-534
 114:	340515f3          	csrrw	a1,mscratch,a0
 118:	00200e93          	li	t4,2
 11c:	00600e13          	li	t3,6
 120:	0fd59463          	bne	a1,t4,208 <fail>

0000000000000124 <test_7>:
 124:	00002537          	lui	a0,0x2
 128:	dea5051b          	addiw	a0,a0,-534
 12c:	34053573          	csrrc	a0,mscratch,a0
 130:	0bad2eb7          	lui	t4,0xbad2
 134:	deae8e9b          	addiw	t4,t4,-534
 138:	00700e13          	li	t3,7
 13c:	0dd51663          	bne	a0,t4,208 <fail>

0000000000000140 <test_8>:
 140:	0000c537          	lui	a0,0xc
 144:	eef5051b          	addiw	a0,a0,-273
 148:	34052573          	csrrs	a0,mscratch,a0
 14c:	0bad0eb7          	lui	t4,0xbad0
 150:	00800e13          	li	t3,8
 154:	0bd51a63          	bne	a0,t4,208 <fail>

0000000000000158 <test_9>:
 158:	34002573          	csrr	a0,mscratch
 15c:	0badceb7          	lui	t4,0xbadc
 160:	eefe8e9b          	addiw	t4,t4,-273
 164:	00900e13          	li	t3,9
 168:	0bd51063          	bne	a0,t4,208 <fail>
 16c:	30102573          	csrr	a0,misa
 170:	02057513          	andi	a0,a0,32
 174:	02050863          	beqz	a0,1a4 <test_10+0x14>
 178:	000065b7          	lui	a1,0x6
 17c:	3005a073          	csrs	mstatus,a1
 180:	f0000053          	fmv.s.x	ft0,zero
 184:	3005b073          	csrc	mstatus,a1
 188:	00002597          	auipc	a1,0x2
 18c:	e7858593          	addi	a1,a1,-392 # 2000 <begin_signature>

0000000000000190 <test_10>:
 190:	0005a027          	fsw	ft0,0(a1)
 194:	0005a503          	lw	a0,0(a1)
 198:	00100e93          	li	t4,1
 19c:	00a00e13          	li	t3,10
 1a0:	07d51463          	bne	a0,t4,208 <fail>
 1a4:	30102573          	csrr	a0,misa
 1a8:	01455513          	srli	a0,a0,0x14
 1ac:	00157513          	andi	a0,a0,1
 1b0:	04050463          	beqz	a0,1f8 <finish>
 1b4:	000022b7          	lui	t0,0x2
 1b8:	8002829b          	addiw	t0,t0,-2048
 1bc:	3002b073          	csrc	mstatus,t0
 1c0:	00000297          	auipc	t0,0x0
 1c4:	01028293          	addi	t0,t0,16 # 1d0 <test_11>
 1c8:	34129073          	csrw	mepc,t0
 1cc:	30200073          	mret

00000000000001d0 <test_11>:
 1d0:	0ff00513          	li	a0,255
 1d4:	c0001573          	csrrw	a0,cycle,zero
 1d8:	0ff00e93          	li	t4,255
 1dc:	00b00e13          	li	t3,11
 1e0:	03d51463          	bne	a0,t4,208 <fail>

00000000000001e4 <test_12>:
 1e4:	0ff00513          	li	a0,255
 1e8:	30002573          	csrr	a0,mstatus
 1ec:	0ff00e93          	li	t4,255
 1f0:	00c00e13          	li	t3,12
 1f4:	01d51a63          	bne	a0,t4,208 <fail>

00000000000001f8 <finish>:
 1f8:	0ff0000f          	fence
 1fc:	00100e13          	li	t3,1
 200:	00000073          	ecall
 204:	01c01c63          	bne	zero,t3,21c <pass>

0000000000000208 <fail>:
 208:	0ff0000f          	fence
 20c:	000e0063          	beqz	t3,20c <fail+0x4>
 210:	001e1e13          	slli	t3,t3,0x1
 214:	001e6e13          	ori	t3,t3,1
 218:	00000073          	ecall

000000000000021c <pass>:
 21c:	0ff0000f          	fence
 220:	00100e13          	li	t3,1
 224:	00000073          	ecall

0000000000000228 <mtvec_handler>:
 228:	00900293          	li	t0,9
 22c:	005e6663          	bltu	t3,t0,238 <mtvec_handler+0x10>
 230:	00b00293          	li	t0,11
 234:	01c2fe63          	bleu	t3,t0,250 <privileged>
 238:	342022f3          	csrr	t0,mcause
 23c:	00800313          	li	t1,8
 240:	fc6294e3          	bne	t0,t1,208 <fail>
 244:	0ff0000f          	fence
 248:	00100e13          	li	t3,1
 24c:	00000073          	ecall

0000000000000250 <privileged>:
 250:	342022f3          	csrr	t0,mcause
 254:	00200313          	li	t1,2
 258:	fa6298e3          	bne	t0,t1,208 <fail>
 25c:	341022f3          	csrr	t0,mepc
 260:	00428293          	addi	t0,t0,4
 264:	34129073          	csrw	mepc,t0
 268:	30200073          	mret
 26c:	c0001073          	unimp
 270:	0000                	unimp
 272:	0000                	unimp
 274:	0000                	unimp
 276:	0000                	unimp
 278:	0000                	unimp
 27a:	0000                	unimp
 27c:	0000                	unimp
 27e:	0000                	unimp
 280:	0000                	unimp
 282:	0000                	unimp
