
rv64ui-p-srai:     file format elf64-littleriscv


Disassembly of section .text.init:

0000000000000000 <_start>:
   0:	04c0006f          	j	4c <reset_vector>

0000000000000004 <trap_vector>:
   4:	34202f73          	csrr	t5,mcause
   8:	00800f93          	li	t6,8
   c:	03ff0a63          	beq	t5,t6,40 <write_tohost>
  10:	00900f93          	li	t6,9
  14:	03ff0663          	beq	t5,t6,40 <write_tohost>
  18:	00b00f93          	li	t6,11
  1c:	03ff0263          	beq	t5,t6,40 <write_tohost>
  20:	00000f17          	auipc	t5,0x0
  24:	fe0f0f13          	addi	t5,t5,-32 # 0 <_start>
  28:	000f0463          	beqz	t5,30 <trap_vector+0x2c>
  2c:	000f0067          	jr	t5
  30:	34202f73          	csrr	t5,mcause
  34:	000f5463          	bgez	t5,3c <handle_exception>
  38:	0040006f          	j	3c <handle_exception>

000000000000003c <handle_exception>:
  3c:	539e6e13          	ori	t3,t3,1337

0000000000000040 <write_tohost>:
  40:	00001f17          	auipc	t5,0x1
  44:	fdcf2023          	sw	t3,-64(t5) # 1000 <tohost>
  48:	ff9ff06f          	j	40 <write_tohost>

000000000000004c <reset_vector>:
  4c:	f1402573          	csrr	a0,mhartid
  50:	00051063          	bnez	a0,50 <reset_vector+0x4>
  54:	30102573          	csrr	a0,misa
  58:	00054863          	bltz	a0,68 <reset_vector+0x1c>
  5c:	0ff0000f          	fence
  60:	00100e13          	li	t3,1
  64:	00000073          	ecall
  68:	00000e13          	li	t3,0
  6c:	00000297          	auipc	t0,0x0
  70:	f9828293          	addi	t0,t0,-104 # 4 <trap_vector>
  74:	30529073          	csrw	mtvec,t0
  78:	30205073          	csrwi	medeleg,0
  7c:	30305073          	csrwi	mideleg,0
  80:	30405073          	csrwi	mie,0
  84:	00000297          	auipc	t0,0x0
  88:	f7c28293          	addi	t0,t0,-132 # 0 <_start>
  8c:	00028c63          	beqz	t0,a4 <reset_vector+0x58>
  90:	10529073          	csrw	stvec,t0
  94:	1ab00293          	li	t0,427
  98:	30229073          	csrw	medeleg,t0
  9c:	30202373          	csrr	t1,medeleg
  a0:	f8629ee3          	bne	t0,t1,3c <handle_exception>
  a4:	30005073          	csrwi	mstatus,0
  a8:	00000297          	auipc	t0,0x0
  ac:	01428293          	addi	t0,t0,20 # bc <test_2>
  b0:	34129073          	csrw	mepc,t0
  b4:	f1402573          	csrr	a0,mhartid
  b8:	30200073          	mret

00000000000000bc <test_2>:
  bc:	fff0009b          	addiw	ra,zero,-1
  c0:	02709093          	slli	ra,ra,0x27
  c4:	4000d193          	srai	gp,ra,0x0
  c8:	fff00e9b          	addiw	t4,zero,-1
  cc:	027e9e93          	slli	t4,t4,0x27
  d0:	00200e13          	li	t3,2
  d4:	2bd19463          	bne	gp,t4,37c <fail>

00000000000000d8 <test_3>:
  d8:	800000b7          	lui	ra,0x80000
  dc:	4010d193          	srai	gp,ra,0x1
  e0:	c0000eb7          	lui	t4,0xc0000
  e4:	00300e13          	li	t3,3
  e8:	29d19a63          	bne	gp,t4,37c <fail>

00000000000000ec <test_4>:
  ec:	800000b7          	lui	ra,0x80000
  f0:	4070d193          	srai	gp,ra,0x7
  f4:	ff000eb7          	lui	t4,0xff000
  f8:	00400e13          	li	t3,4
  fc:	29d19063          	bne	gp,t4,37c <fail>

0000000000000100 <test_5>:
 100:	800000b7          	lui	ra,0x80000
 104:	40e0d193          	srai	gp,ra,0xe
 108:	fffe0eb7          	lui	t4,0xfffe0
 10c:	00500e13          	li	t3,5
 110:	27d19663          	bne	gp,t4,37c <fail>

0000000000000114 <test_6>:
 114:	800000b7          	lui	ra,0x80000
 118:	0010809b          	addiw	ra,ra,1
 11c:	41f0d193          	srai	gp,ra,0x1f
 120:	fff00e93          	li	t4,-1
 124:	00600e13          	li	t3,6
 128:	25d19a63          	bne	gp,t4,37c <fail>

000000000000012c <test_7>:
 12c:	800000b7          	lui	ra,0x80000
 130:	fff0809b          	addiw	ra,ra,-1
 134:	4000d193          	srai	gp,ra,0x0
 138:	80000eb7          	lui	t4,0x80000
 13c:	fffe8e9b          	addiw	t4,t4,-1
 140:	00700e13          	li	t3,7
 144:	23d19c63          	bne	gp,t4,37c <fail>

0000000000000148 <test_8>:
 148:	800000b7          	lui	ra,0x80000
 14c:	fff0809b          	addiw	ra,ra,-1
 150:	4010d193          	srai	gp,ra,0x1
 154:	40000eb7          	lui	t4,0x40000
 158:	fffe8e9b          	addiw	t4,t4,-1
 15c:	00800e13          	li	t3,8
 160:	21d19e63          	bne	gp,t4,37c <fail>

0000000000000164 <test_9>:
 164:	800000b7          	lui	ra,0x80000
 168:	fff0809b          	addiw	ra,ra,-1
 16c:	4070d193          	srai	gp,ra,0x7
 170:	01000eb7          	lui	t4,0x1000
 174:	fffe8e9b          	addiw	t4,t4,-1
 178:	00900e13          	li	t3,9
 17c:	21d19063          	bne	gp,t4,37c <fail>

0000000000000180 <test_10>:
 180:	800000b7          	lui	ra,0x80000
 184:	fff0809b          	addiw	ra,ra,-1
 188:	40e0d193          	srai	gp,ra,0xe
 18c:	00020eb7          	lui	t4,0x20
 190:	fffe8e9b          	addiw	t4,t4,-1
 194:	00a00e13          	li	t3,10
 198:	1fd19263          	bne	gp,t4,37c <fail>

000000000000019c <test_11>:
 19c:	800000b7          	lui	ra,0x80000
 1a0:	fff0809b          	addiw	ra,ra,-1
 1a4:	41f0d193          	srai	gp,ra,0x1f
 1a8:	00000e93          	li	t4,0
 1ac:	00b00e13          	li	t3,11
 1b0:	1dd19663          	bne	gp,t4,37c <fail>

00000000000001b4 <test_12>:
 1b4:	818180b7          	lui	ra,0x81818
 1b8:	1810809b          	addiw	ra,ra,385
 1bc:	4000d193          	srai	gp,ra,0x0
 1c0:	81818eb7          	lui	t4,0x81818
 1c4:	181e8e9b          	addiw	t4,t4,385
 1c8:	00c00e13          	li	t3,12
 1cc:	1bd19863          	bne	gp,t4,37c <fail>

00000000000001d0 <test_13>:
 1d0:	818180b7          	lui	ra,0x81818
 1d4:	1810809b          	addiw	ra,ra,385
 1d8:	4010d193          	srai	gp,ra,0x1
 1dc:	c0c0ceb7          	lui	t4,0xc0c0c
 1e0:	0c0e8e9b          	addiw	t4,t4,192
 1e4:	00d00e13          	li	t3,13
 1e8:	19d19a63          	bne	gp,t4,37c <fail>

00000000000001ec <test_14>:
 1ec:	818180b7          	lui	ra,0x81818
 1f0:	1810809b          	addiw	ra,ra,385
 1f4:	4070d193          	srai	gp,ra,0x7
 1f8:	ff030eb7          	lui	t4,0xff030
 1fc:	303e8e9b          	addiw	t4,t4,771
 200:	00e00e13          	li	t3,14
 204:	17d19c63          	bne	gp,t4,37c <fail>

0000000000000208 <test_15>:
 208:	818180b7          	lui	ra,0x81818
 20c:	1810809b          	addiw	ra,ra,385
 210:	40e0d193          	srai	gp,ra,0xe
 214:	fffe0eb7          	lui	t4,0xfffe0
 218:	606e8e9b          	addiw	t4,t4,1542
 21c:	00f00e13          	li	t3,15
 220:	15d19e63          	bne	gp,t4,37c <fail>

0000000000000224 <test_16>:
 224:	818180b7          	lui	ra,0x81818
 228:	1810809b          	addiw	ra,ra,385
 22c:	41f0d193          	srai	gp,ra,0x1f
 230:	fff00e93          	li	t4,-1
 234:	01000e13          	li	t3,16
 238:	15d19263          	bne	gp,t4,37c <fail>

000000000000023c <test_17>:
 23c:	800000b7          	lui	ra,0x80000
 240:	4070d093          	srai	ra,ra,0x7
 244:	ff000eb7          	lui	t4,0xff000
 248:	01100e13          	li	t3,17
 24c:	13d09863          	bne	ra,t4,37c <fail>

0000000000000250 <test_18>:
 250:	00000213          	li	tp,0
 254:	800000b7          	lui	ra,0x80000
 258:	4070d193          	srai	gp,ra,0x7
 25c:	00018313          	mv	t1,gp
 260:	00120213          	addi	tp,tp,1 # 1 <_start+0x1>
 264:	00200293          	li	t0,2
 268:	fe5216e3          	bne	tp,t0,254 <test_18+0x4>
 26c:	ff000eb7          	lui	t4,0xff000
 270:	01200e13          	li	t3,18
 274:	11d31463          	bne	t1,t4,37c <fail>

0000000000000278 <test_19>:
 278:	00000213          	li	tp,0
 27c:	800000b7          	lui	ra,0x80000
 280:	40e0d193          	srai	gp,ra,0xe
 284:	00000013          	nop
 288:	00018313          	mv	t1,gp
 28c:	00120213          	addi	tp,tp,1 # 1 <_start+0x1>
 290:	00200293          	li	t0,2
 294:	fe5214e3          	bne	tp,t0,27c <test_19+0x4>
 298:	fffe0eb7          	lui	t4,0xfffe0
 29c:	01300e13          	li	t3,19
 2a0:	0dd31e63          	bne	t1,t4,37c <fail>

00000000000002a4 <test_20>:
 2a4:	00000213          	li	tp,0
 2a8:	800000b7          	lui	ra,0x80000
 2ac:	0010809b          	addiw	ra,ra,1
 2b0:	41f0d193          	srai	gp,ra,0x1f
 2b4:	00000013          	nop
 2b8:	00000013          	nop
 2bc:	00018313          	mv	t1,gp
 2c0:	00120213          	addi	tp,tp,1 # 1 <_start+0x1>
 2c4:	00200293          	li	t0,2
 2c8:	fe5210e3          	bne	tp,t0,2a8 <test_20+0x4>
 2cc:	fff00e93          	li	t4,-1
 2d0:	01400e13          	li	t3,20
 2d4:	0bd31463          	bne	t1,t4,37c <fail>

00000000000002d8 <test_21>:
 2d8:	00000213          	li	tp,0
 2dc:	800000b7          	lui	ra,0x80000
 2e0:	4070d193          	srai	gp,ra,0x7
 2e4:	00120213          	addi	tp,tp,1 # 1 <_start+0x1>
 2e8:	00200293          	li	t0,2
 2ec:	fe5218e3          	bne	tp,t0,2dc <test_21+0x4>
 2f0:	ff000eb7          	lui	t4,0xff000
 2f4:	01500e13          	li	t3,21
 2f8:	09d19263          	bne	gp,t4,37c <fail>

00000000000002fc <test_22>:
 2fc:	00000213          	li	tp,0
 300:	800000b7          	lui	ra,0x80000
 304:	00000013          	nop
 308:	40e0d193          	srai	gp,ra,0xe
 30c:	00120213          	addi	tp,tp,1 # 1 <_start+0x1>
 310:	00200293          	li	t0,2
 314:	fe5216e3          	bne	tp,t0,300 <test_22+0x4>
 318:	fffe0eb7          	lui	t4,0xfffe0
 31c:	01600e13          	li	t3,22
 320:	05d19e63          	bne	gp,t4,37c <fail>

0000000000000324 <test_23>:
 324:	00000213          	li	tp,0
 328:	800000b7          	lui	ra,0x80000
 32c:	0010809b          	addiw	ra,ra,1
 330:	00000013          	nop
 334:	00000013          	nop
 338:	41f0d193          	srai	gp,ra,0x1f
 33c:	00120213          	addi	tp,tp,1 # 1 <_start+0x1>
 340:	00200293          	li	t0,2
 344:	fe5212e3          	bne	tp,t0,328 <test_23+0x4>
 348:	fff00e93          	li	t4,-1
 34c:	01700e13          	li	t3,23
 350:	03d19663          	bne	gp,t4,37c <fail>

0000000000000354 <test_24>:
 354:	40405093          	srai	ra,zero,0x4
 358:	00000e93          	li	t4,0
 35c:	01800e13          	li	t3,24
 360:	01d09e63          	bne	ra,t4,37c <fail>

0000000000000364 <test_25>:
 364:	02100093          	li	ra,33
 368:	40a0d013          	srai	zero,ra,0xa
 36c:	00000e93          	li	t4,0
 370:	01900e13          	li	t3,25
 374:	01d01463          	bne	zero,t4,37c <fail>
 378:	01c01c63          	bne	zero,t3,390 <pass>

000000000000037c <fail>:
 37c:	0ff0000f          	fence
 380:	000e0063          	beqz	t3,380 <fail+0x4>
 384:	001e1e13          	slli	t3,t3,0x1
 388:	001e6e13          	ori	t3,t3,1
 38c:	00000073          	ecall

0000000000000390 <pass>:
 390:	0ff0000f          	fence
 394:	00100e13          	li	t3,1
 398:	00000073          	ecall
 39c:	c0001073          	unimp
 3a0:	0000                	unimp
 3a2:	0000                	unimp
 3a4:	0000                	unimp
 3a6:	0000                	unimp
 3a8:	0000                	unimp
 3aa:	0000                	unimp
 3ac:	0000                	unimp
 3ae:	0000                	unimp
 3b0:	0000                	unimp
 3b2:	0000                	unimp
 3b4:	0000                	unimp
 3b6:	0000                	unimp
 3b8:	0000                	unimp
 3ba:	0000                	unimp
 3bc:	0000                	unimp
 3be:	0000                	unimp
 3c0:	0000                	unimp
 3c2:	0000                	unimp
