
rv64ud-p-structural:     file format elf64-littleriscv


Disassembly of section .text.init:

0000000000000000 <_start>:
   0:	04c0006f          	j	4c <reset_vector>

0000000000000004 <trap_vector>:
   4:	34202f73          	csrr	t5,mcause
   8:	00800f93          	li	t6,8
   c:	03ff0a63          	beq	t5,t6,40 <write_tohost>
  10:	00900f93          	li	t6,9
  14:	03ff0663          	beq	t5,t6,40 <write_tohost>
  18:	00b00f93          	li	t6,11
  1c:	03ff0263          	beq	t5,t6,40 <write_tohost>
  20:	00000f17          	auipc	t5,0x0
  24:	fe0f0f13          	addi	t5,t5,-32 # 0 <_start>
  28:	000f0463          	beqz	t5,30 <trap_vector+0x2c>
  2c:	000f0067          	jr	t5
  30:	34202f73          	csrr	t5,mcause
  34:	000f5463          	bgez	t5,3c <handle_exception>
  38:	0040006f          	j	3c <handle_exception>

000000000000003c <handle_exception>:
  3c:	539e6e13          	ori	t3,t3,1337

0000000000000040 <write_tohost>:
  40:	00001f17          	auipc	t5,0x1
  44:	fdcf2023          	sw	t3,-64(t5) # 1000 <tohost>
  48:	ff9ff06f          	j	40 <write_tohost>

000000000000004c <reset_vector>:
  4c:	f1402573          	csrr	a0,mhartid
  50:	00051063          	bnez	a0,50 <reset_vector+0x4>
  54:	30102573          	csrr	a0,misa
  58:	00054863          	bltz	a0,68 <reset_vector+0x1c>
  5c:	0ff0000f          	fence
  60:	00100e13          	li	t3,1
  64:	00000073          	ecall
  68:	00000e13          	li	t3,0
  6c:	00000297          	auipc	t0,0x0
  70:	f9828293          	addi	t0,t0,-104 # 4 <trap_vector>
  74:	30529073          	csrw	mtvec,t0
  78:	30205073          	csrwi	medeleg,0
  7c:	30305073          	csrwi	mideleg,0
  80:	30405073          	csrwi	mie,0
  84:	00000297          	auipc	t0,0x0
  88:	f7c28293          	addi	t0,t0,-132 # 0 <_start>
  8c:	00028c63          	beqz	t0,a4 <reset_vector+0x58>
  90:	10529073          	csrw	stvec,t0
  94:	1ab00293          	li	t0,427
  98:	30229073          	csrw	medeleg,t0
  9c:	30202373          	csrr	t1,medeleg
  a0:	f8629ee3          	bne	t0,t1,3c <handle_exception>
  a4:	30005073          	csrwi	mstatus,0
  a8:	00002537          	lui	a0,0x2
  ac:	30052073          	csrs	mstatus,a0
  b0:	00305073          	csrwi	fcsr,0
  b4:	00000297          	auipc	t0,0x0
  b8:	01428293          	addi	t0,t0,20 # c8 <reset_vector+0x7c>
  bc:	34129073          	csrw	mepc,t0
  c0:	f1402573          	csrr	a0,mhartid
  c4:	30200073          	mret
  c8:	00100c93          	li	s9,1
  cc:	3ff0011b          	addiw	sp,zero,1023
  d0:	03411113          	slli	sp,sp,0x34
  d4:	3f8000b7          	lui	ra,0x3f800
  d8:	f2000253          	fmv.d.x	ft4,zero
  dc:	f00001d3          	fmv.s.x	ft3,zero
  e0:	f2010153          	fmv.d.x	ft2,sp
  e4:	f00080d3          	fmv.s.x	ft1,ra
  e8:	0180006f          	j	100 <reset_vector+0xb4>
  ec:	00000013          	nop
  f0:	00000013          	nop
  f4:	00000013          	nop
  f8:	00000013          	nop
  fc:	00000013          	nop
 100:	12217253          	fmul.d	ft4,ft2,ft2
 104:	201081d3          	fmv.s	ft3,ft1
 108:	e2020253          	fmv.x.d	tp,ft4
 10c:	e00181d3          	fmv.x.s	gp,ft3
 110:	00308c63          	beq	ra,gp,128 <reset_vector+0xdc>
 114:	0ff0000f          	fence
 118:	000e0063          	beqz	t3,118 <reset_vector+0xcc>
 11c:	001e1e13          	slli	t3,t3,0x1
 120:	001e6e13          	ori	t3,t3,1
 124:	00000073          	ecall
 128:	00410c63          	beq	sp,tp,140 <reset_vector+0xf4>
 12c:	0ff0000f          	fence
 130:	000e0063          	beqz	t3,130 <reset_vector+0xe4>
 134:	001e1e13          	slli	t3,t3,0x1
 138:	001e6e13          	ori	t3,t3,1
 13c:	00000073          	ecall
 140:	f2000153          	fmv.d.x	ft2,zero
 144:	f00000d3          	fmv.s.x	ft1,zero
 148:	f2000253          	fmv.d.x	ft4,zero
 14c:	f00001d3          	fmv.s.x	ft3,zero
 150:	f2010153          	fmv.d.x	ft2,sp
 154:	f00080d3          	fmv.s.x	ft1,ra
 158:	0080006f          	j	160 <reset_vector+0x114>
 15c:	00000013          	nop
 160:	12217253          	fmul.d	ft4,ft2,ft2
 164:	00000013          	nop
 168:	201081d3          	fmv.s	ft3,ft1
 16c:	e2020253          	fmv.x.d	tp,ft4
 170:	e00181d3          	fmv.x.s	gp,ft3
 174:	00308c63          	beq	ra,gp,18c <reset_vector+0x140>
 178:	0ff0000f          	fence
 17c:	000e0063          	beqz	t3,17c <reset_vector+0x130>
 180:	001e1e13          	slli	t3,t3,0x1
 184:	001e6e13          	ori	t3,t3,1
 188:	00000073          	ecall
 18c:	00410c63          	beq	sp,tp,1a4 <reset_vector+0x158>
 190:	0ff0000f          	fence
 194:	000e0063          	beqz	t3,194 <reset_vector+0x148>
 198:	001e1e13          	slli	t3,t3,0x1
 19c:	001e6e13          	ori	t3,t3,1
 1a0:	00000073          	ecall
 1a4:	f2000153          	fmv.d.x	ft2,zero
 1a8:	f00000d3          	fmv.s.x	ft1,zero
 1ac:	f2000253          	fmv.d.x	ft4,zero
 1b0:	f00001d3          	fmv.s.x	ft3,zero
 1b4:	f2010153          	fmv.d.x	ft2,sp
 1b8:	f00080d3          	fmv.s.x	ft1,ra
 1bc:	0040006f          	j	1c0 <reset_vector+0x174>
 1c0:	12217253          	fmul.d	ft4,ft2,ft2
 1c4:	00000013          	nop
 1c8:	00000013          	nop
 1cc:	201081d3          	fmv.s	ft3,ft1
 1d0:	e2020253          	fmv.x.d	tp,ft4
 1d4:	e00181d3          	fmv.x.s	gp,ft3
 1d8:	00308c63          	beq	ra,gp,1f0 <reset_vector+0x1a4>
 1dc:	0ff0000f          	fence
 1e0:	000e0063          	beqz	t3,1e0 <reset_vector+0x194>
 1e4:	001e1e13          	slli	t3,t3,0x1
 1e8:	001e6e13          	ori	t3,t3,1
 1ec:	00000073          	ecall
 1f0:	00410c63          	beq	sp,tp,208 <reset_vector+0x1bc>
 1f4:	0ff0000f          	fence
 1f8:	000e0063          	beqz	t3,1f8 <reset_vector+0x1ac>
 1fc:	001e1e13          	slli	t3,t3,0x1
 200:	001e6e13          	ori	t3,t3,1
 204:	00000073          	ecall
 208:	f2000153          	fmv.d.x	ft2,zero
 20c:	f00000d3          	fmv.s.x	ft1,zero
 210:	f2000253          	fmv.d.x	ft4,zero
 214:	f00001d3          	fmv.s.x	ft3,zero
 218:	f2010153          	fmv.d.x	ft2,sp
 21c:	f00080d3          	fmv.s.x	ft1,ra
 220:	0200006f          	j	240 <reset_vector+0x1f4>
 224:	00000013          	nop
 228:	00000013          	nop
 22c:	00000013          	nop
 230:	00000013          	nop
 234:	00000013          	nop
 238:	00000013          	nop
 23c:	00000013          	nop
 240:	12217253          	fmul.d	ft4,ft2,ft2
 244:	00000013          	nop
 248:	00000013          	nop
 24c:	00000013          	nop
 250:	201081d3          	fmv.s	ft3,ft1
 254:	e2020253          	fmv.x.d	tp,ft4
 258:	e00181d3          	fmv.x.s	gp,ft3
 25c:	00308c63          	beq	ra,gp,274 <reset_vector+0x228>
 260:	0ff0000f          	fence
 264:	000e0063          	beqz	t3,264 <reset_vector+0x218>
 268:	001e1e13          	slli	t3,t3,0x1
 26c:	001e6e13          	ori	t3,t3,1
 270:	00000073          	ecall
 274:	00410c63          	beq	sp,tp,28c <reset_vector+0x240>
 278:	0ff0000f          	fence
 27c:	000e0063          	beqz	t3,27c <reset_vector+0x230>
 280:	001e1e13          	slli	t3,t3,0x1
 284:	001e6e13          	ori	t3,t3,1
 288:	00000073          	ecall
 28c:	f2000153          	fmv.d.x	ft2,zero
 290:	f00000d3          	fmv.s.x	ft1,zero
 294:	f2000253          	fmv.d.x	ft4,zero
 298:	f00001d3          	fmv.s.x	ft3,zero
 29c:	f2010153          	fmv.d.x	ft2,sp
 2a0:	f00080d3          	fmv.s.x	ft1,ra
 2a4:	01c0006f          	j	2c0 <reset_vector+0x274>
 2a8:	00000013          	nop
 2ac:	00000013          	nop
 2b0:	00000013          	nop
 2b4:	00000013          	nop
 2b8:	00000013          	nop
 2bc:	00000013          	nop
 2c0:	12217253          	fmul.d	ft4,ft2,ft2
 2c4:	00000013          	nop
 2c8:	00000013          	nop
 2cc:	00000013          	nop
 2d0:	00000013          	nop
 2d4:	201081d3          	fmv.s	ft3,ft1
 2d8:	e2020253          	fmv.x.d	tp,ft4
 2dc:	e00181d3          	fmv.x.s	gp,ft3
 2e0:	00308c63          	beq	ra,gp,2f8 <reset_vector+0x2ac>
 2e4:	0ff0000f          	fence
 2e8:	000e0063          	beqz	t3,2e8 <reset_vector+0x29c>
 2ec:	001e1e13          	slli	t3,t3,0x1
 2f0:	001e6e13          	ori	t3,t3,1
 2f4:	00000073          	ecall
 2f8:	00410c63          	beq	sp,tp,310 <reset_vector+0x2c4>
 2fc:	0ff0000f          	fence
 300:	000e0063          	beqz	t3,300 <reset_vector+0x2b4>
 304:	001e1e13          	slli	t3,t3,0x1
 308:	001e6e13          	ori	t3,t3,1
 30c:	00000073          	ecall
 310:	f2000153          	fmv.d.x	ft2,zero
 314:	f00000d3          	fmv.s.x	ft1,zero
 318:	f2000253          	fmv.d.x	ft4,zero
 31c:	f00001d3          	fmv.s.x	ft3,zero
 320:	f2010153          	fmv.d.x	ft2,sp
 324:	f00080d3          	fmv.s.x	ft1,ra
 328:	0180006f          	j	340 <reset_vector+0x2f4>
 32c:	00000013          	nop
 330:	00000013          	nop
 334:	00000013          	nop
 338:	00000013          	nop
 33c:	00000013          	nop
 340:	12217253          	fmul.d	ft4,ft2,ft2
 344:	00000013          	nop
 348:	00000013          	nop
 34c:	00000013          	nop
 350:	00000013          	nop
 354:	00000013          	nop
 358:	201081d3          	fmv.s	ft3,ft1
 35c:	e2020253          	fmv.x.d	tp,ft4
 360:	e00181d3          	fmv.x.s	gp,ft3
 364:	00308c63          	beq	ra,gp,37c <reset_vector+0x330>
 368:	0ff0000f          	fence
 36c:	000e0063          	beqz	t3,36c <reset_vector+0x320>
 370:	001e1e13          	slli	t3,t3,0x1
 374:	001e6e13          	ori	t3,t3,1
 378:	00000073          	ecall
 37c:	00410c63          	beq	sp,tp,394 <reset_vector+0x348>
 380:	0ff0000f          	fence
 384:	000e0063          	beqz	t3,384 <reset_vector+0x338>
 388:	001e1e13          	slli	t3,t3,0x1
 38c:	001e6e13          	ori	t3,t3,1
 390:	00000073          	ecall
 394:	f2000153          	fmv.d.x	ft2,zero
 398:	f00000d3          	fmv.s.x	ft1,zero
 39c:	f2000253          	fmv.d.x	ft4,zero
 3a0:	f00001d3          	fmv.s.x	ft3,zero
 3a4:	f2010153          	fmv.d.x	ft2,sp
 3a8:	f00080d3          	fmv.s.x	ft1,ra
 3ac:	0140006f          	j	3c0 <reset_vector+0x374>
 3b0:	00000013          	nop
 3b4:	00000013          	nop
 3b8:	00000013          	nop
 3bc:	00000013          	nop
 3c0:	12217253          	fmul.d	ft4,ft2,ft2
 3c4:	00000013          	nop
 3c8:	00000013          	nop
 3cc:	00000013          	nop
 3d0:	00000013          	nop
 3d4:	00000013          	nop
 3d8:	00000013          	nop
 3dc:	201081d3          	fmv.s	ft3,ft1
 3e0:	e2020253          	fmv.x.d	tp,ft4
 3e4:	e00181d3          	fmv.x.s	gp,ft3
 3e8:	00308c63          	beq	ra,gp,400 <reset_vector+0x3b4>
 3ec:	0ff0000f          	fence
 3f0:	000e0063          	beqz	t3,3f0 <reset_vector+0x3a4>
 3f4:	001e1e13          	slli	t3,t3,0x1
 3f8:	001e6e13          	ori	t3,t3,1
 3fc:	00000073          	ecall
 400:	00410c63          	beq	sp,tp,418 <reset_vector+0x3cc>
 404:	0ff0000f          	fence
 408:	000e0063          	beqz	t3,408 <reset_vector+0x3bc>
 40c:	001e1e13          	slli	t3,t3,0x1
 410:	001e6e13          	ori	t3,t3,1
 414:	00000073          	ecall
 418:	f2000153          	fmv.d.x	ft2,zero
 41c:	f00000d3          	fmv.s.x	ft1,zero
 420:	0ff0000f          	fence
 424:	00100e13          	li	t3,1
 428:	00000073          	ecall
 42c:	c0001073          	unimp
