
rv64mi-p-ma_addr:     file format elf64-littleriscv


Disassembly of section .text.init:

0000000000000000 <_start>:
   0:	04c0006f          	j	4c <reset_vector>

0000000000000004 <trap_vector>:
   4:	34202f73          	csrr	t5,mcause
   8:	00800f93          	li	t6,8
   c:	03ff0a63          	beq	t5,t6,40 <write_tohost>
  10:	00900f93          	li	t6,9
  14:	03ff0663          	beq	t5,t6,40 <write_tohost>
  18:	00b00f93          	li	t6,11
  1c:	03ff0263          	beq	t5,t6,40 <write_tohost>
  20:	00000f17          	auipc	t5,0x0
  24:	218f0f13          	addi	t5,t5,536 # 238 <mtvec_handler>
  28:	000f0463          	beqz	t5,30 <trap_vector+0x2c>
  2c:	000f0067          	jr	t5
  30:	34202f73          	csrr	t5,mcause
  34:	000f5463          	bgez	t5,3c <handle_exception>
  38:	0040006f          	j	3c <handle_exception>

000000000000003c <handle_exception>:
  3c:	539e6e13          	ori	t3,t3,1337

0000000000000040 <write_tohost>:
  40:	00001f17          	auipc	t5,0x1
  44:	fdcf2023          	sw	t3,-64(t5) # 1000 <tohost>
  48:	ff9ff06f          	j	40 <write_tohost>

000000000000004c <reset_vector>:
  4c:	f1402573          	csrr	a0,mhartid
  50:	00051063          	bnez	a0,50 <reset_vector+0x4>
  54:	30102573          	csrr	a0,misa
  58:	00054863          	bltz	a0,68 <reset_vector+0x1c>
  5c:	0ff0000f          	fence
  60:	00100e13          	li	t3,1
  64:	00000073          	ecall
  68:	00000e13          	li	t3,0
  6c:	00000297          	auipc	t0,0x0
  70:	f9828293          	addi	t0,t0,-104 # 4 <trap_vector>
  74:	30529073          	csrw	mtvec,t0
  78:	30205073          	csrwi	medeleg,0
  7c:	30305073          	csrwi	mideleg,0
  80:	30405073          	csrwi	mie,0
  84:	00000297          	auipc	t0,0x0
  88:	f7c28293          	addi	t0,t0,-132 # 0 <_start>
  8c:	00028c63          	beqz	t0,a4 <reset_vector+0x58>
  90:	10529073          	csrw	stvec,t0
  94:	1ab00293          	li	t0,427
  98:	30229073          	csrw	medeleg,t0
  9c:	30202373          	csrr	t1,medeleg
  a0:	f8629ee3          	bne	t0,t1,3c <handle_exception>
  a4:	30005073          	csrwi	mstatus,0
  a8:	00002537          	lui	a0,0x2
  ac:	8005051b          	addiw	a0,a0,-2048
  b0:	30052073          	csrs	mstatus,a0
  b4:	00000297          	auipc	t0,0x0
  b8:	01428293          	addi	t0,t0,20 # c8 <reset_vector+0x7c>
  bc:	34129073          	csrw	mepc,t0
  c0:	f1402573          	csrr	a0,mhartid
  c4:	30200073          	mret
  c8:	00002417          	auipc	s0,0x2
  cc:	f3840413          	addi	s0,s0,-200 # 2000 <begin_signature>
  d0:	00400493          	li	s1,4
  d4:	00200e13          	li	t3,2
  d8:	00141003          	lh	zero,1(s0)
  dc:	1380006f          	j	214 <fail>
  e0:	00300e13          	li	t3,3
  e4:	00145003          	lhu	zero,1(s0)
  e8:	12c0006f          	j	214 <fail>
  ec:	00400e13          	li	t3,4
  f0:	00142003          	lw	zero,1(s0)
  f4:	1200006f          	j	214 <fail>
  f8:	00500e13          	li	t3,5
  fc:	00242003          	lw	zero,2(s0)
 100:	1140006f          	j	214 <fail>
 104:	00600e13          	li	t3,6
 108:	00342003          	lw	zero,3(s0)
 10c:	1080006f          	j	214 <fail>
 110:	00700e13          	li	t3,7
 114:	00146003          	lwu	zero,1(s0)
 118:	0fc0006f          	j	214 <fail>
 11c:	00800e13          	li	t3,8
 120:	00246003          	lwu	zero,2(s0)
 124:	0f00006f          	j	214 <fail>
 128:	00900e13          	li	t3,9
 12c:	00346003          	lwu	zero,3(s0)
 130:	0e40006f          	j	214 <fail>
 134:	00a00e13          	li	t3,10
 138:	00143003          	ld	zero,1(s0)
 13c:	0d80006f          	j	214 <fail>
 140:	00b00e13          	li	t3,11
 144:	00243003          	ld	zero,2(s0)
 148:	0cc0006f          	j	214 <fail>
 14c:	00c00e13          	li	t3,12
 150:	00343003          	ld	zero,3(s0)
 154:	0c00006f          	j	214 <fail>
 158:	00d00e13          	li	t3,13
 15c:	00443003          	ld	zero,4(s0)
 160:	0b40006f          	j	214 <fail>
 164:	00e00e13          	li	t3,14
 168:	00543003          	ld	zero,5(s0)
 16c:	0a80006f          	j	214 <fail>
 170:	00f00e13          	li	t3,15
 174:	00643003          	ld	zero,6(s0)
 178:	09c0006f          	j	214 <fail>
 17c:	01000e13          	li	t3,16
 180:	00743003          	ld	zero,7(s0)
 184:	0900006f          	j	214 <fail>
 188:	00600493          	li	s1,6
 18c:	01600e13          	li	t3,22
 190:	000410a3          	sh	zero,1(s0)
 194:	0800006f          	j	214 <fail>
 198:	01700e13          	li	t3,23
 19c:	000420a3          	sw	zero,1(s0)
 1a0:	0740006f          	j	214 <fail>
 1a4:	01800e13          	li	t3,24
 1a8:	00042123          	sw	zero,2(s0)
 1ac:	0680006f          	j	214 <fail>
 1b0:	01900e13          	li	t3,25
 1b4:	000421a3          	sw	zero,3(s0)
 1b8:	05c0006f          	j	214 <fail>
 1bc:	01a00e13          	li	t3,26
 1c0:	000430a3          	sd	zero,1(s0)
 1c4:	0500006f          	j	214 <fail>
 1c8:	01b00e13          	li	t3,27
 1cc:	00043123          	sd	zero,2(s0)
 1d0:	0440006f          	j	214 <fail>
 1d4:	01c00e13          	li	t3,28
 1d8:	000431a3          	sd	zero,3(s0)
 1dc:	0380006f          	j	214 <fail>
 1e0:	01d00e13          	li	t3,29
 1e4:	00043223          	sd	zero,4(s0)
 1e8:	02c0006f          	j	214 <fail>
 1ec:	01e00e13          	li	t3,30
 1f0:	000432a3          	sd	zero,5(s0)
 1f4:	0200006f          	j	214 <fail>
 1f8:	01f00e13          	li	t3,31
 1fc:	00043323          	sd	zero,6(s0)
 200:	0140006f          	j	214 <fail>
 204:	02000e13          	li	t3,32
 208:	000433a3          	sd	zero,7(s0)
 20c:	0080006f          	j	214 <fail>
 210:	01c01c63          	bne	zero,t3,228 <pass>

0000000000000214 <fail>:
 214:	0ff0000f          	fence
 218:	000e0063          	beqz	t3,218 <fail+0x4>
 21c:	001e1e13          	slli	t3,t3,0x1
 220:	001e6e13          	ori	t3,t3,1
 224:	00000073          	ecall

0000000000000228 <pass>:
 228:	0ff0000f          	fence
 22c:	00100e13          	li	t3,1
 230:	00000073          	ecall
 234:	00000013          	nop

0000000000000238 <mtvec_handler>:
 238:	342022f3          	csrr	t0,mcause
 23c:	fc929ce3          	bne	t0,s1,214 <fail>
 240:	341022f3          	csrr	t0,mepc
 244:	00828293          	addi	t0,t0,8
 248:	34129073          	csrw	mepc,t0
 24c:	30200073          	mret
 250:	c0001073          	unimp
 254:	0000                	unimp
 256:	0000                	unimp
 258:	0000                	unimp
 25a:	0000                	unimp
 25c:	0000                	unimp
 25e:	0000                	unimp
 260:	0000                	unimp
 262:	0000                	unimp
 264:	0000                	unimp
 266:	0000                	unimp
 268:	0000                	unimp
 26a:	0000                	unimp
 26c:	0000                	unimp
 26e:	0000                	unimp
 270:	0000                	unimp
 272:	0000                	unimp
 274:	0000                	unimp
 276:	0000                	unimp
 278:	0000                	unimp
 27a:	0000                	unimp
 27c:	0000                	unimp
 27e:	0000                	unimp
 280:	0000                	unimp
 282:	0000                	unimp
