
rv64ui-p-bgeu:     file format elf64-littleriscv


Disassembly of section .text.init:

0000000000000000 <_start>:
   0:	04c0006f          	j	4c <reset_vector>

0000000000000004 <trap_vector>:
   4:	34202f73          	csrr	t5,mcause
   8:	00800f93          	li	t6,8
   c:	03ff0a63          	beq	t5,t6,40 <write_tohost>
  10:	00900f93          	li	t6,9
  14:	03ff0663          	beq	t5,t6,40 <write_tohost>
  18:	00b00f93          	li	t6,11
  1c:	03ff0263          	beq	t5,t6,40 <write_tohost>
  20:	00000f17          	auipc	t5,0x0
  24:	fe0f0f13          	addi	t5,t5,-32 # 0 <_start>
  28:	000f0463          	beqz	t5,30 <trap_vector+0x2c>
  2c:	000f0067          	jr	t5
  30:	34202f73          	csrr	t5,mcause
  34:	000f5463          	bgez	t5,3c <handle_exception>
  38:	0040006f          	j	3c <handle_exception>

000000000000003c <handle_exception>:
  3c:	539e6e13          	ori	t3,t3,1337

0000000000000040 <write_tohost>:
  40:	00001f17          	auipc	t5,0x1
  44:	fdcf2023          	sw	t3,-64(t5) # 1000 <tohost>
  48:	ff9ff06f          	j	40 <write_tohost>

000000000000004c <reset_vector>:
  4c:	f1402573          	csrr	a0,mhartid
  50:	00051063          	bnez	a0,50 <reset_vector+0x4>
  54:	30102573          	csrr	a0,misa
  58:	00054863          	bltz	a0,68 <reset_vector+0x1c>
  5c:	0ff0000f          	fence
  60:	00100e13          	li	t3,1
  64:	00000073          	ecall
  68:	00000e13          	li	t3,0
  6c:	00000297          	auipc	t0,0x0
  70:	f9828293          	addi	t0,t0,-104 # 4 <trap_vector>
  74:	30529073          	csrw	mtvec,t0
  78:	30205073          	csrwi	medeleg,0
  7c:	30305073          	csrwi	mideleg,0
  80:	30405073          	csrwi	mie,0
  84:	00000297          	auipc	t0,0x0
  88:	f7c28293          	addi	t0,t0,-132 # 0 <_start>
  8c:	00028c63          	beqz	t0,a4 <reset_vector+0x58>
  90:	10529073          	csrw	stvec,t0
  94:	1ab00293          	li	t0,427
  98:	30229073          	csrw	medeleg,t0
  9c:	30202373          	csrr	t1,medeleg
  a0:	f8629ee3          	bne	t0,t1,3c <handle_exception>
  a4:	30005073          	csrwi	mstatus,0
  a8:	00000297          	auipc	t0,0x0
  ac:	01428293          	addi	t0,t0,20 # bc <test_2>
  b0:	34129073          	csrw	mepc,t0
  b4:	f1402573          	csrr	a0,mhartid
  b8:	30200073          	mret

00000000000000bc <test_2>:
  bc:	00200e13          	li	t3,2
  c0:	00000093          	li	ra,0
  c4:	00000113          	li	sp,0
  c8:	0020f663          	bleu	sp,ra,d4 <test_2+0x18>
  cc:	3fc01463          	bne	zero,t3,4b4 <fail>
  d0:	01c01663          	bne	zero,t3,dc <test_3>
  d4:	fe20fee3          	bleu	sp,ra,d0 <test_2+0x14>
  d8:	3dc01e63          	bne	zero,t3,4b4 <fail>

00000000000000dc <test_3>:
  dc:	00300e13          	li	t3,3
  e0:	00100093          	li	ra,1
  e4:	00100113          	li	sp,1
  e8:	0020f663          	bleu	sp,ra,f4 <test_3+0x18>
  ec:	3dc01463          	bne	zero,t3,4b4 <fail>
  f0:	01c01663          	bne	zero,t3,fc <test_4>
  f4:	fe20fee3          	bleu	sp,ra,f0 <test_3+0x14>
  f8:	3bc01e63          	bne	zero,t3,4b4 <fail>

00000000000000fc <test_4>:
  fc:	00400e13          	li	t3,4
 100:	0010009b          	addiw	ra,zero,1
 104:	02009093          	slli	ra,ra,0x20
 108:	fff08093          	addi	ra,ra,-1
 10c:	0010011b          	addiw	sp,zero,1
 110:	02011113          	slli	sp,sp,0x20
 114:	fff10113          	addi	sp,sp,-1
 118:	0020f663          	bleu	sp,ra,124 <test_4+0x28>
 11c:	39c01c63          	bne	zero,t3,4b4 <fail>
 120:	01c01663          	bne	zero,t3,12c <test_5>
 124:	fe20fee3          	bleu	sp,ra,120 <test_4+0x24>
 128:	39c01663          	bne	zero,t3,4b4 <fail>

000000000000012c <test_5>:
 12c:	00500e13          	li	t3,5
 130:	00100093          	li	ra,1
 134:	00000113          	li	sp,0
 138:	0020f663          	bleu	sp,ra,144 <test_5+0x18>
 13c:	37c01c63          	bne	zero,t3,4b4 <fail>
 140:	01c01663          	bne	zero,t3,14c <test_6>
 144:	fe20fee3          	bleu	sp,ra,140 <test_5+0x14>
 148:	37c01663          	bne	zero,t3,4b4 <fail>

000000000000014c <test_6>:
 14c:	00600e13          	li	t3,6
 150:	0010009b          	addiw	ra,zero,1
 154:	02009093          	slli	ra,ra,0x20
 158:	fff08093          	addi	ra,ra,-1
 15c:	0010011b          	addiw	sp,zero,1
 160:	02011113          	slli	sp,sp,0x20
 164:	ffe10113          	addi	sp,sp,-2
 168:	0020f663          	bleu	sp,ra,174 <test_6+0x28>
 16c:	35c01463          	bne	zero,t3,4b4 <fail>
 170:	01c01663          	bne	zero,t3,17c <test_7>
 174:	fe20fee3          	bleu	sp,ra,170 <test_6+0x24>
 178:	33c01e63          	bne	zero,t3,4b4 <fail>

000000000000017c <test_7>:
 17c:	00700e13          	li	t3,7
 180:	0010009b          	addiw	ra,zero,1
 184:	02009093          	slli	ra,ra,0x20
 188:	fff08093          	addi	ra,ra,-1
 18c:	00000113          	li	sp,0
 190:	0020f663          	bleu	sp,ra,19c <test_7+0x20>
 194:	33c01063          	bne	zero,t3,4b4 <fail>
 198:	01c01663          	bne	zero,t3,1a4 <test_8>
 19c:	fe20fee3          	bleu	sp,ra,198 <test_7+0x1c>
 1a0:	31c01a63          	bne	zero,t3,4b4 <fail>

00000000000001a4 <test_8>:
 1a4:	00800e13          	li	t3,8
 1a8:	00000093          	li	ra,0
 1ac:	00100113          	li	sp,1
 1b0:	0020f463          	bleu	sp,ra,1b8 <test_8+0x14>
 1b4:	01c01463          	bne	zero,t3,1bc <test_8+0x18>
 1b8:	2fc01e63          	bne	zero,t3,4b4 <fail>
 1bc:	fe20fee3          	bleu	sp,ra,1b8 <test_8+0x14>

00000000000001c0 <test_9>:
 1c0:	00900e13          	li	t3,9
 1c4:	0010009b          	addiw	ra,zero,1
 1c8:	02009093          	slli	ra,ra,0x20
 1cc:	ffe08093          	addi	ra,ra,-2
 1d0:	0010011b          	addiw	sp,zero,1
 1d4:	02011113          	slli	sp,sp,0x20
 1d8:	fff10113          	addi	sp,sp,-1
 1dc:	0020f463          	bleu	sp,ra,1e4 <test_9+0x24>
 1e0:	01c01463          	bne	zero,t3,1e8 <test_9+0x28>
 1e4:	2dc01863          	bne	zero,t3,4b4 <fail>
 1e8:	fe20fee3          	bleu	sp,ra,1e4 <test_9+0x24>

00000000000001ec <test_10>:
 1ec:	00a00e13          	li	t3,10
 1f0:	00000093          	li	ra,0
 1f4:	0010011b          	addiw	sp,zero,1
 1f8:	02011113          	slli	sp,sp,0x20
 1fc:	fff10113          	addi	sp,sp,-1
 200:	0020f463          	bleu	sp,ra,208 <test_10+0x1c>
 204:	01c01463          	bne	zero,t3,20c <test_10+0x20>
 208:	2bc01663          	bne	zero,t3,4b4 <fail>
 20c:	fe20fee3          	bleu	sp,ra,208 <test_10+0x1c>

0000000000000210 <test_11>:
 210:	00b00e13          	li	t3,11
 214:	800000b7          	lui	ra,0x80000
 218:	fff0809b          	addiw	ra,ra,-1
 21c:	0010011b          	addiw	sp,zero,1
 220:	01f11113          	slli	sp,sp,0x1f
 224:	0020f463          	bleu	sp,ra,22c <test_11+0x1c>
 228:	01c01463          	bne	zero,t3,230 <test_11+0x20>
 22c:	29c01463          	bne	zero,t3,4b4 <fail>
 230:	fe20fee3          	bleu	sp,ra,22c <test_11+0x1c>

0000000000000234 <test_12>:
 234:	00c00e13          	li	t3,12
 238:	00000213          	li	tp,0
 23c:	00f0009b          	addiw	ra,zero,15
 240:	01c09093          	slli	ra,ra,0x1c
 244:	fff08093          	addi	ra,ra,-1 # ffffffff7fffffff <begin_signature+0xffffffff7fffdfff>
 248:	00f0011b          	addiw	sp,zero,15
 24c:	01c11113          	slli	sp,sp,0x1c
 250:	2620f263          	bleu	sp,ra,4b4 <fail>
 254:	00120213          	addi	tp,tp,1 # 1 <_start+0x1>
 258:	00200293          	li	t0,2
 25c:	fe5210e3          	bne	tp,t0,23c <test_12+0x8>

0000000000000260 <test_13>:
 260:	00d00e13          	li	t3,13
 264:	00000213          	li	tp,0
 268:	00f0009b          	addiw	ra,zero,15
 26c:	01c09093          	slli	ra,ra,0x1c
 270:	fff08093          	addi	ra,ra,-1
 274:	00f0011b          	addiw	sp,zero,15
 278:	01c11113          	slli	sp,sp,0x1c
 27c:	00000013          	nop
 280:	2220fa63          	bleu	sp,ra,4b4 <fail>
 284:	00120213          	addi	tp,tp,1 # 1 <_start+0x1>
 288:	00200293          	li	t0,2
 28c:	fc521ee3          	bne	tp,t0,268 <test_13+0x8>

0000000000000290 <test_14>:
 290:	00e00e13          	li	t3,14
 294:	00000213          	li	tp,0
 298:	00f0009b          	addiw	ra,zero,15
 29c:	01c09093          	slli	ra,ra,0x1c
 2a0:	fff08093          	addi	ra,ra,-1
 2a4:	00f0011b          	addiw	sp,zero,15
 2a8:	01c11113          	slli	sp,sp,0x1c
 2ac:	00000013          	nop
 2b0:	00000013          	nop
 2b4:	2020f063          	bleu	sp,ra,4b4 <fail>
 2b8:	00120213          	addi	tp,tp,1 # 1 <_start+0x1>
 2bc:	00200293          	li	t0,2
 2c0:	fc521ce3          	bne	tp,t0,298 <test_14+0x8>

00000000000002c4 <test_15>:
 2c4:	00f00e13          	li	t3,15
 2c8:	00000213          	li	tp,0
 2cc:	00f0009b          	addiw	ra,zero,15
 2d0:	01c09093          	slli	ra,ra,0x1c
 2d4:	fff08093          	addi	ra,ra,-1
 2d8:	00000013          	nop
 2dc:	00f0011b          	addiw	sp,zero,15
 2e0:	01c11113          	slli	sp,sp,0x1c
 2e4:	1c20f863          	bleu	sp,ra,4b4 <fail>
 2e8:	00120213          	addi	tp,tp,1 # 1 <_start+0x1>
 2ec:	00200293          	li	t0,2
 2f0:	fc521ee3          	bne	tp,t0,2cc <test_15+0x8>

00000000000002f4 <test_16>:
 2f4:	01000e13          	li	t3,16
 2f8:	00000213          	li	tp,0
 2fc:	00f0009b          	addiw	ra,zero,15
 300:	01c09093          	slli	ra,ra,0x1c
 304:	fff08093          	addi	ra,ra,-1
 308:	00000013          	nop
 30c:	00f0011b          	addiw	sp,zero,15
 310:	01c11113          	slli	sp,sp,0x1c
 314:	00000013          	nop
 318:	1820fe63          	bleu	sp,ra,4b4 <fail>
 31c:	00120213          	addi	tp,tp,1 # 1 <_start+0x1>
 320:	00200293          	li	t0,2
 324:	fc521ce3          	bne	tp,t0,2fc <test_16+0x8>

0000000000000328 <test_17>:
 328:	01100e13          	li	t3,17
 32c:	00000213          	li	tp,0
 330:	00f0009b          	addiw	ra,zero,15
 334:	01c09093          	slli	ra,ra,0x1c
 338:	fff08093          	addi	ra,ra,-1
 33c:	00000013          	nop
 340:	00000013          	nop
 344:	00f0011b          	addiw	sp,zero,15
 348:	01c11113          	slli	sp,sp,0x1c
 34c:	1620f463          	bleu	sp,ra,4b4 <fail>
 350:	00120213          	addi	tp,tp,1 # 1 <_start+0x1>
 354:	00200293          	li	t0,2
 358:	fc521ce3          	bne	tp,t0,330 <test_17+0x8>

000000000000035c <test_18>:
 35c:	01200e13          	li	t3,18
 360:	00000213          	li	tp,0
 364:	00f0009b          	addiw	ra,zero,15
 368:	01c09093          	slli	ra,ra,0x1c
 36c:	fff08093          	addi	ra,ra,-1
 370:	00f0011b          	addiw	sp,zero,15
 374:	01c11113          	slli	sp,sp,0x1c
 378:	1220fe63          	bleu	sp,ra,4b4 <fail>
 37c:	00120213          	addi	tp,tp,1 # 1 <_start+0x1>
 380:	00200293          	li	t0,2
 384:	fe5210e3          	bne	tp,t0,364 <test_18+0x8>

0000000000000388 <test_19>:
 388:	01300e13          	li	t3,19
 38c:	00000213          	li	tp,0
 390:	00f0009b          	addiw	ra,zero,15
 394:	01c09093          	slli	ra,ra,0x1c
 398:	fff08093          	addi	ra,ra,-1
 39c:	00f0011b          	addiw	sp,zero,15
 3a0:	01c11113          	slli	sp,sp,0x1c
 3a4:	00000013          	nop
 3a8:	1020f663          	bleu	sp,ra,4b4 <fail>
 3ac:	00120213          	addi	tp,tp,1 # 1 <_start+0x1>
 3b0:	00200293          	li	t0,2
 3b4:	fc521ee3          	bne	tp,t0,390 <test_19+0x8>

00000000000003b8 <test_20>:
 3b8:	01400e13          	li	t3,20
 3bc:	00000213          	li	tp,0
 3c0:	00f0009b          	addiw	ra,zero,15
 3c4:	01c09093          	slli	ra,ra,0x1c
 3c8:	fff08093          	addi	ra,ra,-1
 3cc:	00f0011b          	addiw	sp,zero,15
 3d0:	01c11113          	slli	sp,sp,0x1c
 3d4:	00000013          	nop
 3d8:	00000013          	nop
 3dc:	0c20fc63          	bleu	sp,ra,4b4 <fail>
 3e0:	00120213          	addi	tp,tp,1 # 1 <_start+0x1>
 3e4:	00200293          	li	t0,2
 3e8:	fc521ce3          	bne	tp,t0,3c0 <test_20+0x8>

00000000000003ec <test_21>:
 3ec:	01500e13          	li	t3,21
 3f0:	00000213          	li	tp,0
 3f4:	00f0009b          	addiw	ra,zero,15
 3f8:	01c09093          	slli	ra,ra,0x1c
 3fc:	fff08093          	addi	ra,ra,-1
 400:	00000013          	nop
 404:	00f0011b          	addiw	sp,zero,15
 408:	01c11113          	slli	sp,sp,0x1c
 40c:	0a20f463          	bleu	sp,ra,4b4 <fail>
 410:	00120213          	addi	tp,tp,1 # 1 <_start+0x1>
 414:	00200293          	li	t0,2
 418:	fc521ee3          	bne	tp,t0,3f4 <test_21+0x8>

000000000000041c <test_22>:
 41c:	01600e13          	li	t3,22
 420:	00000213          	li	tp,0
 424:	00f0009b          	addiw	ra,zero,15
 428:	01c09093          	slli	ra,ra,0x1c
 42c:	fff08093          	addi	ra,ra,-1
 430:	00000013          	nop
 434:	00f0011b          	addiw	sp,zero,15
 438:	01c11113          	slli	sp,sp,0x1c
 43c:	00000013          	nop
 440:	0620fa63          	bleu	sp,ra,4b4 <fail>
 444:	00120213          	addi	tp,tp,1 # 1 <_start+0x1>
 448:	00200293          	li	t0,2
 44c:	fc521ce3          	bne	tp,t0,424 <test_22+0x8>

0000000000000450 <test_23>:
 450:	01700e13          	li	t3,23
 454:	00000213          	li	tp,0
 458:	00f0009b          	addiw	ra,zero,15
 45c:	01c09093          	slli	ra,ra,0x1c
 460:	fff08093          	addi	ra,ra,-1
 464:	00000013          	nop
 468:	00000013          	nop
 46c:	00f0011b          	addiw	sp,zero,15
 470:	01c11113          	slli	sp,sp,0x1c
 474:	0420f063          	bleu	sp,ra,4b4 <fail>
 478:	00120213          	addi	tp,tp,1 # 1 <_start+0x1>
 47c:	00200293          	li	t0,2
 480:	fc521ce3          	bne	tp,t0,458 <test_23+0x8>

0000000000000484 <test_24>:
 484:	00100093          	li	ra,1
 488:	0000fa63          	bleu	zero,ra,49c <test_24+0x18>
 48c:	00108093          	addi	ra,ra,1
 490:	00108093          	addi	ra,ra,1
 494:	00108093          	addi	ra,ra,1
 498:	00108093          	addi	ra,ra,1
 49c:	00108093          	addi	ra,ra,1
 4a0:	00108093          	addi	ra,ra,1
 4a4:	00300e93          	li	t4,3
 4a8:	01800e13          	li	t3,24
 4ac:	01d09463          	bne	ra,t4,4b4 <fail>
 4b0:	01c01c63          	bne	zero,t3,4c8 <pass>

00000000000004b4 <fail>:
 4b4:	0ff0000f          	fence
 4b8:	000e0063          	beqz	t3,4b8 <fail+0x4>
 4bc:	001e1e13          	slli	t3,t3,0x1
 4c0:	001e6e13          	ori	t3,t3,1
 4c4:	00000073          	ecall

00000000000004c8 <pass>:
 4c8:	0ff0000f          	fence
 4cc:	00100e13          	li	t3,1
 4d0:	00000073          	ecall
 4d4:	c0001073          	unimp
 4d8:	0000                	unimp
 4da:	0000                	unimp
 4dc:	0000                	unimp
 4de:	0000                	unimp
 4e0:	0000                	unimp
 4e2:	0000                	unimp
 4e4:	0000                	unimp
 4e6:	0000                	unimp
 4e8:	0000                	unimp
 4ea:	0000                	unimp
 4ec:	0000                	unimp
 4ee:	0000                	unimp
 4f0:	0000                	unimp
 4f2:	0000                	unimp
 4f4:	0000                	unimp
 4f6:	0000                	unimp
 4f8:	0000                	unimp
 4fa:	0000                	unimp
 4fc:	0000                	unimp
 4fe:	0000                	unimp
 500:	0000                	unimp
 502:	0000                	unimp
