
rv64ui-p-sll:     file format elf64-littleriscv


Disassembly of section .text.init:

0000000000000000 <_start>:
   0:	04c0006f          	j	4c <reset_vector>

0000000000000004 <trap_vector>:
   4:	34202f73          	csrr	t5,mcause
   8:	00800f93          	li	t6,8
   c:	03ff0a63          	beq	t5,t6,40 <write_tohost>
  10:	00900f93          	li	t6,9
  14:	03ff0663          	beq	t5,t6,40 <write_tohost>
  18:	00b00f93          	li	t6,11
  1c:	03ff0263          	beq	t5,t6,40 <write_tohost>
  20:	00000f17          	auipc	t5,0x0
  24:	fe0f0f13          	addi	t5,t5,-32 # 0 <_start>
  28:	000f0463          	beqz	t5,30 <trap_vector+0x2c>
  2c:	000f0067          	jr	t5
  30:	34202f73          	csrr	t5,mcause
  34:	000f5463          	bgez	t5,3c <handle_exception>
  38:	0040006f          	j	3c <handle_exception>

000000000000003c <handle_exception>:
  3c:	539e6e13          	ori	t3,t3,1337

0000000000000040 <write_tohost>:
  40:	00001f17          	auipc	t5,0x1
  44:	fdcf2023          	sw	t3,-64(t5) # 1000 <tohost>
  48:	ff9ff06f          	j	40 <write_tohost>

000000000000004c <reset_vector>:
  4c:	f1402573          	csrr	a0,mhartid
  50:	00051063          	bnez	a0,50 <reset_vector+0x4>
  54:	30102573          	csrr	a0,misa
  58:	00054863          	bltz	a0,68 <reset_vector+0x1c>
  5c:	0ff0000f          	fence
  60:	00100e13          	li	t3,1
  64:	00000073          	ecall
  68:	00000e13          	li	t3,0
  6c:	00000297          	auipc	t0,0x0
  70:	f9828293          	addi	t0,t0,-104 # 4 <trap_vector>
  74:	30529073          	csrw	mtvec,t0
  78:	30205073          	csrwi	medeleg,0
  7c:	30305073          	csrwi	mideleg,0
  80:	30405073          	csrwi	mie,0
  84:	00000297          	auipc	t0,0x0
  88:	f7c28293          	addi	t0,t0,-132 # 0 <_start>
  8c:	00028c63          	beqz	t0,a4 <reset_vector+0x58>
  90:	10529073          	csrw	stvec,t0
  94:	1ab00293          	li	t0,427
  98:	30229073          	csrw	medeleg,t0
  9c:	30202373          	csrr	t1,medeleg
  a0:	f8629ee3          	bne	t0,t1,3c <handle_exception>
  a4:	30005073          	csrwi	mstatus,0
  a8:	00000297          	auipc	t0,0x0
  ac:	01428293          	addi	t0,t0,20 # bc <test_2>
  b0:	34129073          	csrw	mepc,t0
  b4:	f1402573          	csrr	a0,mhartid
  b8:	30200073          	mret

00000000000000bc <test_2>:
  bc:	00100093          	li	ra,1
  c0:	00000113          	li	sp,0
  c4:	002091b3          	sll	gp,ra,sp
  c8:	00100e93          	li	t4,1
  cc:	00200e13          	li	t3,2
  d0:	5fd19c63          	bne	gp,t4,6c8 <fail>

00000000000000d4 <test_3>:
  d4:	00100093          	li	ra,1
  d8:	00100113          	li	sp,1
  dc:	002091b3          	sll	gp,ra,sp
  e0:	00200e93          	li	t4,2
  e4:	00300e13          	li	t3,3
  e8:	5fd19063          	bne	gp,t4,6c8 <fail>

00000000000000ec <test_4>:
  ec:	00100093          	li	ra,1
  f0:	00700113          	li	sp,7
  f4:	002091b3          	sll	gp,ra,sp
  f8:	08000e93          	li	t4,128
  fc:	00400e13          	li	t3,4
 100:	5dd19463          	bne	gp,t4,6c8 <fail>

0000000000000104 <test_5>:
 104:	00100093          	li	ra,1
 108:	00e00113          	li	sp,14
 10c:	002091b3          	sll	gp,ra,sp
 110:	00004eb7          	lui	t4,0x4
 114:	00500e13          	li	t3,5
 118:	5bd19863          	bne	gp,t4,6c8 <fail>

000000000000011c <test_6>:
 11c:	00100093          	li	ra,1
 120:	01f00113          	li	sp,31
 124:	002091b3          	sll	gp,ra,sp
 128:	00100e9b          	addiw	t4,zero,1
 12c:	01fe9e93          	slli	t4,t4,0x1f
 130:	00600e13          	li	t3,6
 134:	59d19a63          	bne	gp,t4,6c8 <fail>

0000000000000138 <test_7>:
 138:	fff00093          	li	ra,-1
 13c:	00000113          	li	sp,0
 140:	002091b3          	sll	gp,ra,sp
 144:	fff00e93          	li	t4,-1
 148:	00700e13          	li	t3,7
 14c:	57d19e63          	bne	gp,t4,6c8 <fail>

0000000000000150 <test_8>:
 150:	fff00093          	li	ra,-1
 154:	00100113          	li	sp,1
 158:	002091b3          	sll	gp,ra,sp
 15c:	ffe00e93          	li	t4,-2
 160:	00800e13          	li	t3,8
 164:	57d19263          	bne	gp,t4,6c8 <fail>

0000000000000168 <test_9>:
 168:	fff00093          	li	ra,-1
 16c:	00700113          	li	sp,7
 170:	002091b3          	sll	gp,ra,sp
 174:	f8000e93          	li	t4,-128
 178:	00900e13          	li	t3,9
 17c:	55d19663          	bne	gp,t4,6c8 <fail>

0000000000000180 <test_10>:
 180:	fff00093          	li	ra,-1
 184:	00e00113          	li	sp,14
 188:	002091b3          	sll	gp,ra,sp
 18c:	ffffceb7          	lui	t4,0xffffc
 190:	00a00e13          	li	t3,10
 194:	53d19a63          	bne	gp,t4,6c8 <fail>

0000000000000198 <test_11>:
 198:	fff00093          	li	ra,-1
 19c:	01f00113          	li	sp,31
 1a0:	002091b3          	sll	gp,ra,sp
 1a4:	80000eb7          	lui	t4,0x80000
 1a8:	00b00e13          	li	t3,11
 1ac:	51d19e63          	bne	gp,t4,6c8 <fail>

00000000000001b0 <test_12>:
 1b0:	212120b7          	lui	ra,0x21212
 1b4:	1210809b          	addiw	ra,ra,289
 1b8:	00000113          	li	sp,0
 1bc:	002091b3          	sll	gp,ra,sp
 1c0:	21212eb7          	lui	t4,0x21212
 1c4:	121e8e9b          	addiw	t4,t4,289
 1c8:	00c00e13          	li	t3,12
 1cc:	4fd19e63          	bne	gp,t4,6c8 <fail>

00000000000001d0 <test_13>:
 1d0:	212120b7          	lui	ra,0x21212
 1d4:	1210809b          	addiw	ra,ra,289
 1d8:	00100113          	li	sp,1
 1dc:	002091b3          	sll	gp,ra,sp
 1e0:	42424eb7          	lui	t4,0x42424
 1e4:	242e8e9b          	addiw	t4,t4,578
 1e8:	00d00e13          	li	t3,13
 1ec:	4dd19e63          	bne	gp,t4,6c8 <fail>

00000000000001f0 <test_14>:
 1f0:	212120b7          	lui	ra,0x21212
 1f4:	1210809b          	addiw	ra,ra,289
 1f8:	00700113          	li	sp,7
 1fc:	002091b3          	sll	gp,ra,sp
 200:	01091eb7          	lui	t4,0x1091
 204:	909e8e9b          	addiw	t4,t4,-1783
 208:	00ce9e93          	slli	t4,t4,0xc
 20c:	080e8e93          	addi	t4,t4,128 # 1091080 <begin_signature+0x108f080>
 210:	00e00e13          	li	t3,14
 214:	4bd19a63          	bne	gp,t4,6c8 <fail>

0000000000000218 <test_15>:
 218:	212120b7          	lui	ra,0x21212
 21c:	1210809b          	addiw	ra,ra,289
 220:	00e00113          	li	sp,14
 224:	002091b3          	sll	gp,ra,sp
 228:	21212eb7          	lui	t4,0x21212
 22c:	121e8e9b          	addiw	t4,t4,289
 230:	00ee9e93          	slli	t4,t4,0xe
 234:	00f00e13          	li	t3,15
 238:	49d19863          	bne	gp,t4,6c8 <fail>

000000000000023c <test_16>:
 23c:	212120b7          	lui	ra,0x21212
 240:	1210809b          	addiw	ra,ra,289
 244:	01f00113          	li	sp,31
 248:	002091b3          	sll	gp,ra,sp
 24c:	21212eb7          	lui	t4,0x21212
 250:	121e8e9b          	addiw	t4,t4,289
 254:	01fe9e93          	slli	t4,t4,0x1f
 258:	01000e13          	li	t3,16
 25c:	47d19663          	bne	gp,t4,6c8 <fail>

0000000000000260 <test_17>:
 260:	212120b7          	lui	ra,0x21212
 264:	1210809b          	addiw	ra,ra,289
 268:	fc000113          	li	sp,-64
 26c:	002091b3          	sll	gp,ra,sp
 270:	21212eb7          	lui	t4,0x21212
 274:	121e8e9b          	addiw	t4,t4,289
 278:	01100e13          	li	t3,17
 27c:	45d19663          	bne	gp,t4,6c8 <fail>

0000000000000280 <test_18>:
 280:	212120b7          	lui	ra,0x21212
 284:	1210809b          	addiw	ra,ra,289
 288:	fc100113          	li	sp,-63
 28c:	002091b3          	sll	gp,ra,sp
 290:	42424eb7          	lui	t4,0x42424
 294:	242e8e9b          	addiw	t4,t4,578
 298:	01200e13          	li	t3,18
 29c:	43d19663          	bne	gp,t4,6c8 <fail>

00000000000002a0 <test_19>:
 2a0:	212120b7          	lui	ra,0x21212
 2a4:	1210809b          	addiw	ra,ra,289
 2a8:	fc700113          	li	sp,-57
 2ac:	002091b3          	sll	gp,ra,sp
 2b0:	01091eb7          	lui	t4,0x1091
 2b4:	909e8e9b          	addiw	t4,t4,-1783
 2b8:	00ce9e93          	slli	t4,t4,0xc
 2bc:	080e8e93          	addi	t4,t4,128 # 1091080 <begin_signature+0x108f080>
 2c0:	01300e13          	li	t3,19
 2c4:	41d19263          	bne	gp,t4,6c8 <fail>

00000000000002c8 <test_20>:
 2c8:	212120b7          	lui	ra,0x21212
 2cc:	1210809b          	addiw	ra,ra,289
 2d0:	fce00113          	li	sp,-50
 2d4:	002091b3          	sll	gp,ra,sp
 2d8:	21212eb7          	lui	t4,0x21212
 2dc:	121e8e9b          	addiw	t4,t4,289
 2e0:	00ee9e93          	slli	t4,t4,0xe
 2e4:	01400e13          	li	t3,20
 2e8:	3fd19063          	bne	gp,t4,6c8 <fail>

00000000000002ec <test_21>:
 2ec:	212120b7          	lui	ra,0x21212
 2f0:	1210809b          	addiw	ra,ra,289
 2f4:	fff00113          	li	sp,-1
 2f8:	002091b3          	sll	gp,ra,sp
 2fc:	fff00e9b          	addiw	t4,zero,-1
 300:	03fe9e93          	slli	t4,t4,0x3f
 304:	01500e13          	li	t3,21
 308:	3dd19063          	bne	gp,t4,6c8 <fail>

000000000000030c <test_50>:
 30c:	00100093          	li	ra,1
 310:	03f00113          	li	sp,63
 314:	002091b3          	sll	gp,ra,sp
 318:	fff00e9b          	addiw	t4,zero,-1
 31c:	03fe9e93          	slli	t4,t4,0x3f
 320:	03200e13          	li	t3,50
 324:	3bd19263          	bne	gp,t4,6c8 <fail>

0000000000000328 <test_51>:
 328:	fff00093          	li	ra,-1
 32c:	02700113          	li	sp,39
 330:	002091b3          	sll	gp,ra,sp
 334:	fff00e9b          	addiw	t4,zero,-1
 338:	027e9e93          	slli	t4,t4,0x27
 33c:	03300e13          	li	t3,51
 340:	39d19463          	bne	gp,t4,6c8 <fail>

0000000000000344 <test_52>:
 344:	212120b7          	lui	ra,0x21212
 348:	1210809b          	addiw	ra,ra,289
 34c:	02b00113          	li	sp,43
 350:	002091b3          	sll	gp,ra,sp
 354:	00012eb7          	lui	t4,0x12
 358:	121e8e9b          	addiw	t4,t4,289
 35c:	02be9e93          	slli	t4,t4,0x2b
 360:	03400e13          	li	t3,52
 364:	37d19263          	bne	gp,t4,6c8 <fail>

0000000000000368 <test_22>:
 368:	00100093          	li	ra,1
 36c:	00700113          	li	sp,7
 370:	002090b3          	sll	ra,ra,sp
 374:	08000e93          	li	t4,128
 378:	01600e13          	li	t3,22
 37c:	35d09663          	bne	ra,t4,6c8 <fail>

0000000000000380 <test_23>:
 380:	00100093          	li	ra,1
 384:	00e00113          	li	sp,14
 388:	00209133          	sll	sp,ra,sp
 38c:	00004eb7          	lui	t4,0x4
 390:	01700e13          	li	t3,23
 394:	33d11a63          	bne	sp,t4,6c8 <fail>

0000000000000398 <test_24>:
 398:	00300093          	li	ra,3
 39c:	001090b3          	sll	ra,ra,ra
 3a0:	01800e93          	li	t4,24
 3a4:	01800e13          	li	t3,24
 3a8:	33d09063          	bne	ra,t4,6c8 <fail>

00000000000003ac <test_25>:
 3ac:	00000213          	li	tp,0
 3b0:	00100093          	li	ra,1
 3b4:	00700113          	li	sp,7
 3b8:	002091b3          	sll	gp,ra,sp
 3bc:	00018313          	mv	t1,gp
 3c0:	00120213          	addi	tp,tp,1 # 1 <_start+0x1>
 3c4:	00200293          	li	t0,2
 3c8:	fe5214e3          	bne	tp,t0,3b0 <test_25+0x4>
 3cc:	08000e93          	li	t4,128
 3d0:	01900e13          	li	t3,25
 3d4:	2fd31a63          	bne	t1,t4,6c8 <fail>

00000000000003d8 <test_26>:
 3d8:	00000213          	li	tp,0
 3dc:	00100093          	li	ra,1
 3e0:	00e00113          	li	sp,14
 3e4:	002091b3          	sll	gp,ra,sp
 3e8:	00000013          	nop
 3ec:	00018313          	mv	t1,gp
 3f0:	00120213          	addi	tp,tp,1 # 1 <_start+0x1>
 3f4:	00200293          	li	t0,2
 3f8:	fe5212e3          	bne	tp,t0,3dc <test_26+0x4>
 3fc:	00004eb7          	lui	t4,0x4
 400:	01a00e13          	li	t3,26
 404:	2dd31263          	bne	t1,t4,6c8 <fail>

0000000000000408 <test_27>:
 408:	00000213          	li	tp,0
 40c:	00100093          	li	ra,1
 410:	01f00113          	li	sp,31
 414:	002091b3          	sll	gp,ra,sp
 418:	00000013          	nop
 41c:	00000013          	nop
 420:	00018313          	mv	t1,gp
 424:	00120213          	addi	tp,tp,1 # 1 <_start+0x1>
 428:	00200293          	li	t0,2
 42c:	fe5210e3          	bne	tp,t0,40c <test_27+0x4>
 430:	00100e9b          	addiw	t4,zero,1
 434:	01fe9e93          	slli	t4,t4,0x1f
 438:	01b00e13          	li	t3,27
 43c:	29d31663          	bne	t1,t4,6c8 <fail>

0000000000000440 <test_28>:
 440:	00000213          	li	tp,0
 444:	00100093          	li	ra,1
 448:	00700113          	li	sp,7
 44c:	002091b3          	sll	gp,ra,sp
 450:	00120213          	addi	tp,tp,1 # 1 <_start+0x1>
 454:	00200293          	li	t0,2
 458:	fe5216e3          	bne	tp,t0,444 <test_28+0x4>
 45c:	08000e93          	li	t4,128
 460:	01c00e13          	li	t3,28
 464:	27d19263          	bne	gp,t4,6c8 <fail>

0000000000000468 <test_29>:
 468:	00000213          	li	tp,0
 46c:	00100093          	li	ra,1
 470:	00e00113          	li	sp,14
 474:	00000013          	nop
 478:	002091b3          	sll	gp,ra,sp
 47c:	00120213          	addi	tp,tp,1 # 1 <_start+0x1>
 480:	00200293          	li	t0,2
 484:	fe5214e3          	bne	tp,t0,46c <test_29+0x4>
 488:	00004eb7          	lui	t4,0x4
 48c:	01d00e13          	li	t3,29
 490:	23d19c63          	bne	gp,t4,6c8 <fail>

0000000000000494 <test_30>:
 494:	00000213          	li	tp,0
 498:	00100093          	li	ra,1
 49c:	01f00113          	li	sp,31
 4a0:	00000013          	nop
 4a4:	00000013          	nop
 4a8:	002091b3          	sll	gp,ra,sp
 4ac:	00120213          	addi	tp,tp,1 # 1 <_start+0x1>
 4b0:	00200293          	li	t0,2
 4b4:	fe5212e3          	bne	tp,t0,498 <test_30+0x4>
 4b8:	00100e9b          	addiw	t4,zero,1
 4bc:	01fe9e93          	slli	t4,t4,0x1f
 4c0:	01e00e13          	li	t3,30
 4c4:	21d19263          	bne	gp,t4,6c8 <fail>

00000000000004c8 <test_31>:
 4c8:	00000213          	li	tp,0
 4cc:	00100093          	li	ra,1
 4d0:	00000013          	nop
 4d4:	00700113          	li	sp,7
 4d8:	002091b3          	sll	gp,ra,sp
 4dc:	00120213          	addi	tp,tp,1 # 1 <_start+0x1>
 4e0:	00200293          	li	t0,2
 4e4:	fe5214e3          	bne	tp,t0,4cc <test_31+0x4>
 4e8:	08000e93          	li	t4,128
 4ec:	01f00e13          	li	t3,31
 4f0:	1dd19c63          	bne	gp,t4,6c8 <fail>

00000000000004f4 <test_32>:
 4f4:	00000213          	li	tp,0
 4f8:	00100093          	li	ra,1
 4fc:	00000013          	nop
 500:	00e00113          	li	sp,14
 504:	00000013          	nop
 508:	002091b3          	sll	gp,ra,sp
 50c:	00120213          	addi	tp,tp,1 # 1 <_start+0x1>
 510:	00200293          	li	t0,2
 514:	fe5212e3          	bne	tp,t0,4f8 <test_32+0x4>
 518:	00004eb7          	lui	t4,0x4
 51c:	02000e13          	li	t3,32
 520:	1bd19463          	bne	gp,t4,6c8 <fail>

0000000000000524 <test_33>:
 524:	00000213          	li	tp,0
 528:	00100093          	li	ra,1
 52c:	00000013          	nop
 530:	00000013          	nop
 534:	01f00113          	li	sp,31
 538:	002091b3          	sll	gp,ra,sp
 53c:	00120213          	addi	tp,tp,1 # 1 <_start+0x1>
 540:	00200293          	li	t0,2
 544:	fe5212e3          	bne	tp,t0,528 <test_33+0x4>
 548:	00100e9b          	addiw	t4,zero,1
 54c:	01fe9e93          	slli	t4,t4,0x1f
 550:	02100e13          	li	t3,33
 554:	17d19a63          	bne	gp,t4,6c8 <fail>

0000000000000558 <test_34>:
 558:	00000213          	li	tp,0
 55c:	00700113          	li	sp,7
 560:	00100093          	li	ra,1
 564:	002091b3          	sll	gp,ra,sp
 568:	00120213          	addi	tp,tp,1 # 1 <_start+0x1>
 56c:	00200293          	li	t0,2
 570:	fe5216e3          	bne	tp,t0,55c <test_34+0x4>
 574:	08000e93          	li	t4,128
 578:	02200e13          	li	t3,34
 57c:	15d19663          	bne	gp,t4,6c8 <fail>

0000000000000580 <test_35>:
 580:	00000213          	li	tp,0
 584:	00e00113          	li	sp,14
 588:	00100093          	li	ra,1
 58c:	00000013          	nop
 590:	002091b3          	sll	gp,ra,sp
 594:	00120213          	addi	tp,tp,1 # 1 <_start+0x1>
 598:	00200293          	li	t0,2
 59c:	fe5214e3          	bne	tp,t0,584 <test_35+0x4>
 5a0:	00004eb7          	lui	t4,0x4
 5a4:	02300e13          	li	t3,35
 5a8:	13d19063          	bne	gp,t4,6c8 <fail>

00000000000005ac <test_36>:
 5ac:	00000213          	li	tp,0
 5b0:	01f00113          	li	sp,31
 5b4:	00100093          	li	ra,1
 5b8:	00000013          	nop
 5bc:	00000013          	nop
 5c0:	002091b3          	sll	gp,ra,sp
 5c4:	00120213          	addi	tp,tp,1 # 1 <_start+0x1>
 5c8:	00200293          	li	t0,2
 5cc:	fe5212e3          	bne	tp,t0,5b0 <test_36+0x4>
 5d0:	00100e9b          	addiw	t4,zero,1
 5d4:	01fe9e93          	slli	t4,t4,0x1f
 5d8:	02400e13          	li	t3,36
 5dc:	0fd19663          	bne	gp,t4,6c8 <fail>

00000000000005e0 <test_37>:
 5e0:	00000213          	li	tp,0
 5e4:	00700113          	li	sp,7
 5e8:	00000013          	nop
 5ec:	00100093          	li	ra,1
 5f0:	002091b3          	sll	gp,ra,sp
 5f4:	00120213          	addi	tp,tp,1 # 1 <_start+0x1>
 5f8:	00200293          	li	t0,2
 5fc:	fe5214e3          	bne	tp,t0,5e4 <test_37+0x4>
 600:	08000e93          	li	t4,128
 604:	02500e13          	li	t3,37
 608:	0dd19063          	bne	gp,t4,6c8 <fail>

000000000000060c <test_38>:
 60c:	00000213          	li	tp,0
 610:	00e00113          	li	sp,14
 614:	00000013          	nop
 618:	00100093          	li	ra,1
 61c:	00000013          	nop
 620:	002091b3          	sll	gp,ra,sp
 624:	00120213          	addi	tp,tp,1 # 1 <_start+0x1>
 628:	00200293          	li	t0,2
 62c:	fe5212e3          	bne	tp,t0,610 <test_38+0x4>
 630:	00004eb7          	lui	t4,0x4
 634:	02600e13          	li	t3,38
 638:	09d19863          	bne	gp,t4,6c8 <fail>

000000000000063c <test_39>:
 63c:	00000213          	li	tp,0
 640:	01f00113          	li	sp,31
 644:	00000013          	nop
 648:	00000013          	nop
 64c:	00100093          	li	ra,1
 650:	002091b3          	sll	gp,ra,sp
 654:	00120213          	addi	tp,tp,1 # 1 <_start+0x1>
 658:	00200293          	li	t0,2
 65c:	fe5212e3          	bne	tp,t0,640 <test_39+0x4>
 660:	00100e9b          	addiw	t4,zero,1
 664:	01fe9e93          	slli	t4,t4,0x1f
 668:	02700e13          	li	t3,39
 66c:	05d19e63          	bne	gp,t4,6c8 <fail>

0000000000000670 <test_40>:
 670:	00f00093          	li	ra,15
 674:	00101133          	sll	sp,zero,ra
 678:	00000e93          	li	t4,0
 67c:	02800e13          	li	t3,40
 680:	05d11463          	bne	sp,t4,6c8 <fail>

0000000000000684 <test_41>:
 684:	02000093          	li	ra,32
 688:	00009133          	sll	sp,ra,zero
 68c:	02000e93          	li	t4,32
 690:	02900e13          	li	t3,41
 694:	03d11a63          	bne	sp,t4,6c8 <fail>

0000000000000698 <test_42>:
 698:	000010b3          	sll	ra,zero,zero
 69c:	00000e93          	li	t4,0
 6a0:	02a00e13          	li	t3,42
 6a4:	03d09263          	bne	ra,t4,6c8 <fail>

00000000000006a8 <test_43>:
 6a8:	40000093          	li	ra,1024
 6ac:	00001137          	lui	sp,0x1
 6b0:	8001011b          	addiw	sp,sp,-2048
 6b4:	00209033          	sll	zero,ra,sp
 6b8:	00000e93          	li	t4,0
 6bc:	02b00e13          	li	t3,43
 6c0:	01d01463          	bne	zero,t4,6c8 <fail>
 6c4:	01c01c63          	bne	zero,t3,6dc <pass>

00000000000006c8 <fail>:
 6c8:	0ff0000f          	fence
 6cc:	000e0063          	beqz	t3,6cc <fail+0x4>
 6d0:	001e1e13          	slli	t3,t3,0x1
 6d4:	001e6e13          	ori	t3,t3,1
 6d8:	00000073          	ecall

00000000000006dc <pass>:
 6dc:	0ff0000f          	fence
 6e0:	00100e13          	li	t3,1
 6e4:	00000073          	ecall
 6e8:	c0001073          	unimp
 6ec:	0000                	unimp
 6ee:	0000                	unimp
 6f0:	0000                	unimp
 6f2:	0000                	unimp
 6f4:	0000                	unimp
 6f6:	0000                	unimp
 6f8:	0000                	unimp
 6fa:	0000                	unimp
 6fc:	0000                	unimp
 6fe:	0000                	unimp
 700:	0000                	unimp
 702:	0000                	unimp
