
rv64ui-p-lwu:     file format elf64-littleriscv


Disassembly of section .text.init:

0000000000000000 <_start>:
   0:	04c0006f          	j	4c <reset_vector>

0000000000000004 <trap_vector>:
   4:	34202f73          	csrr	t5,mcause
   8:	00800f93          	li	t6,8
   c:	03ff0a63          	beq	t5,t6,40 <write_tohost>
  10:	00900f93          	li	t6,9
  14:	03ff0663          	beq	t5,t6,40 <write_tohost>
  18:	00b00f93          	li	t6,11
  1c:	03ff0263          	beq	t5,t6,40 <write_tohost>
  20:	00000f17          	auipc	t5,0x0
  24:	fe0f0f13          	addi	t5,t5,-32 # 0 <_start>
  28:	000f0463          	beqz	t5,30 <trap_vector+0x2c>
  2c:	000f0067          	jr	t5
  30:	34202f73          	csrr	t5,mcause
  34:	000f5463          	bgez	t5,3c <handle_exception>
  38:	0040006f          	j	3c <handle_exception>

000000000000003c <handle_exception>:
  3c:	539e6e13          	ori	t3,t3,1337

0000000000000040 <write_tohost>:
  40:	00001f17          	auipc	t5,0x1
  44:	fdcf2023          	sw	t3,-64(t5) # 1000 <tohost>
  48:	ff9ff06f          	j	40 <write_tohost>

000000000000004c <reset_vector>:
  4c:	f1402573          	csrr	a0,mhartid
  50:	00051063          	bnez	a0,50 <reset_vector+0x4>
  54:	30102573          	csrr	a0,misa
  58:	00054863          	bltz	a0,68 <reset_vector+0x1c>
  5c:	0ff0000f          	fence
  60:	00100e13          	li	t3,1
  64:	00000073          	ecall
  68:	00000e13          	li	t3,0
  6c:	00000297          	auipc	t0,0x0
  70:	f9828293          	addi	t0,t0,-104 # 4 <trap_vector>
  74:	30529073          	csrw	mtvec,t0
  78:	30205073          	csrwi	medeleg,0
  7c:	30305073          	csrwi	mideleg,0
  80:	30405073          	csrwi	mie,0
  84:	00000297          	auipc	t0,0x0
  88:	f7c28293          	addi	t0,t0,-132 # 0 <_start>
  8c:	00028c63          	beqz	t0,a4 <reset_vector+0x58>
  90:	10529073          	csrw	stvec,t0
  94:	1ab00293          	li	t0,427
  98:	30229073          	csrw	medeleg,t0
  9c:	30202373          	csrr	t1,medeleg
  a0:	f8629ee3          	bne	t0,t1,3c <handle_exception>
  a4:	30005073          	csrwi	mstatus,0
  a8:	00000297          	auipc	t0,0x0
  ac:	01428293          	addi	t0,t0,20 # bc <test_2>
  b0:	34129073          	csrw	mepc,t0
  b4:	f1402573          	csrr	a0,mhartid
  b8:	30200073          	mret

00000000000000bc <test_2>:
  bc:	00002097          	auipc	ra,0x2
  c0:	f4408093          	addi	ra,ra,-188 # 2000 <begin_signature>
  c4:	0000e183          	lwu	gp,0(ra)
  c8:	00ff0eb7          	lui	t4,0xff0
  cc:	0ffe8e9b          	addiw	t4,t4,255
  d0:	00200e13          	li	t3,2
  d4:	2bd19e63          	bne	gp,t4,390 <fail>

00000000000000d8 <test_3>:
  d8:	00002097          	auipc	ra,0x2
  dc:	f2808093          	addi	ra,ra,-216 # 2000 <begin_signature>
  e0:	0040e183          	lwu	gp,4(ra)
  e4:	00010eb7          	lui	t4,0x10
  e8:	f01e8e9b          	addiw	t4,t4,-255
  ec:	010e9e93          	slli	t4,t4,0x10
  f0:	f00e8e93          	addi	t4,t4,-256 # ff00 <_end+0xdef0>
  f4:	00300e13          	li	t3,3
  f8:	29d19c63          	bne	gp,t4,390 <fail>

00000000000000fc <test_4>:
  fc:	00002097          	auipc	ra,0x2
 100:	f0408093          	addi	ra,ra,-252 # 2000 <begin_signature>
 104:	0080e183          	lwu	gp,8(ra)
 108:	0ff01eb7          	lui	t4,0xff01
 10c:	ff0e8e9b          	addiw	t4,t4,-16
 110:	00400e13          	li	t3,4
 114:	27d19e63          	bne	gp,t4,390 <fail>

0000000000000118 <test_5>:
 118:	00002097          	auipc	ra,0x2
 11c:	ee808093          	addi	ra,ra,-280 # 2000 <begin_signature>
 120:	00c0e183          	lwu	gp,12(ra)
 124:	000f0eb7          	lui	t4,0xf0
 128:	0ffe8e9b          	addiw	t4,t4,255
 12c:	00ce9e93          	slli	t4,t4,0xc
 130:	00fe8e93          	addi	t4,t4,15 # f000f <_end+0xedfff>
 134:	00500e13          	li	t3,5
 138:	25d19c63          	bne	gp,t4,390 <fail>

000000000000013c <test_6>:
 13c:	00002097          	auipc	ra,0x2
 140:	ed008093          	addi	ra,ra,-304 # 200c <tdat4>
 144:	ff40e183          	lwu	gp,-12(ra)
 148:	00ff0eb7          	lui	t4,0xff0
 14c:	0ffe8e9b          	addiw	t4,t4,255
 150:	00600e13          	li	t3,6
 154:	23d19e63          	bne	gp,t4,390 <fail>

0000000000000158 <test_7>:
 158:	00002097          	auipc	ra,0x2
 15c:	eb408093          	addi	ra,ra,-332 # 200c <tdat4>
 160:	ff80e183          	lwu	gp,-8(ra)
 164:	00010eb7          	lui	t4,0x10
 168:	f01e8e9b          	addiw	t4,t4,-255
 16c:	010e9e93          	slli	t4,t4,0x10
 170:	f00e8e93          	addi	t4,t4,-256 # ff00 <_end+0xdef0>
 174:	00700e13          	li	t3,7
 178:	21d19c63          	bne	gp,t4,390 <fail>

000000000000017c <test_8>:
 17c:	00002097          	auipc	ra,0x2
 180:	e9008093          	addi	ra,ra,-368 # 200c <tdat4>
 184:	ffc0e183          	lwu	gp,-4(ra)
 188:	0ff01eb7          	lui	t4,0xff01
 18c:	ff0e8e9b          	addiw	t4,t4,-16
 190:	00800e13          	li	t3,8
 194:	1fd19e63          	bne	gp,t4,390 <fail>

0000000000000198 <test_9>:
 198:	00002097          	auipc	ra,0x2
 19c:	e7408093          	addi	ra,ra,-396 # 200c <tdat4>
 1a0:	0000e183          	lwu	gp,0(ra)
 1a4:	000f0eb7          	lui	t4,0xf0
 1a8:	0ffe8e9b          	addiw	t4,t4,255
 1ac:	00ce9e93          	slli	t4,t4,0xc
 1b0:	00fe8e93          	addi	t4,t4,15 # f000f <_end+0xedfff>
 1b4:	00900e13          	li	t3,9
 1b8:	1dd19c63          	bne	gp,t4,390 <fail>

00000000000001bc <test_10>:
 1bc:	00002097          	auipc	ra,0x2
 1c0:	e4408093          	addi	ra,ra,-444 # 2000 <begin_signature>
 1c4:	fe008093          	addi	ra,ra,-32
 1c8:	0200e183          	lwu	gp,32(ra)
 1cc:	00ff0eb7          	lui	t4,0xff0
 1d0:	0ffe8e9b          	addiw	t4,t4,255
 1d4:	00a00e13          	li	t3,10
 1d8:	1bd19c63          	bne	gp,t4,390 <fail>

00000000000001dc <test_11>:
 1dc:	00002097          	auipc	ra,0x2
 1e0:	e2408093          	addi	ra,ra,-476 # 2000 <begin_signature>
 1e4:	ffd08093          	addi	ra,ra,-3
 1e8:	0070e183          	lwu	gp,7(ra)
 1ec:	00010eb7          	lui	t4,0x10
 1f0:	f01e8e9b          	addiw	t4,t4,-255
 1f4:	010e9e93          	slli	t4,t4,0x10
 1f8:	f00e8e93          	addi	t4,t4,-256 # ff00 <_end+0xdef0>
 1fc:	00b00e13          	li	t3,11
 200:	19d19863          	bne	gp,t4,390 <fail>

0000000000000204 <test_12>:
 204:	00c00e13          	li	t3,12
 208:	00000213          	li	tp,0
 20c:	00002097          	auipc	ra,0x2
 210:	df808093          	addi	ra,ra,-520 # 2004 <tdat2>
 214:	0040e183          	lwu	gp,4(ra)
 218:	00018313          	mv	t1,gp
 21c:	0ff01eb7          	lui	t4,0xff01
 220:	ff0e8e9b          	addiw	t4,t4,-16
 224:	17d31663          	bne	t1,t4,390 <fail>
 228:	00120213          	addi	tp,tp,1 # 1 <_start+0x1>
 22c:	00200293          	li	t0,2
 230:	fc521ee3          	bne	tp,t0,20c <test_12+0x8>

0000000000000234 <test_13>:
 234:	00d00e13          	li	t3,13
 238:	00000213          	li	tp,0
 23c:	00002097          	auipc	ra,0x2
 240:	dcc08093          	addi	ra,ra,-564 # 2008 <tdat3>
 244:	0040e183          	lwu	gp,4(ra)
 248:	00000013          	nop
 24c:	00018313          	mv	t1,gp
 250:	000f0eb7          	lui	t4,0xf0
 254:	0ffe8e9b          	addiw	t4,t4,255
 258:	00ce9e93          	slli	t4,t4,0xc
 25c:	00fe8e93          	addi	t4,t4,15 # f000f <_end+0xedfff>
 260:	13d31863          	bne	t1,t4,390 <fail>
 264:	00120213          	addi	tp,tp,1 # 1 <_start+0x1>
 268:	00200293          	li	t0,2
 26c:	fc5218e3          	bne	tp,t0,23c <test_13+0x8>

0000000000000270 <test_14>:
 270:	00e00e13          	li	t3,14
 274:	00000213          	li	tp,0
 278:	00002097          	auipc	ra,0x2
 27c:	d8808093          	addi	ra,ra,-632 # 2000 <begin_signature>
 280:	0040e183          	lwu	gp,4(ra)
 284:	00000013          	nop
 288:	00000013          	nop
 28c:	00018313          	mv	t1,gp
 290:	00010eb7          	lui	t4,0x10
 294:	f01e8e9b          	addiw	t4,t4,-255
 298:	010e9e93          	slli	t4,t4,0x10
 29c:	f00e8e93          	addi	t4,t4,-256 # ff00 <_end+0xdef0>
 2a0:	0fd31863          	bne	t1,t4,390 <fail>
 2a4:	00120213          	addi	tp,tp,1 # 1 <_start+0x1>
 2a8:	00200293          	li	t0,2
 2ac:	fc5216e3          	bne	tp,t0,278 <test_14+0x8>

00000000000002b0 <test_15>:
 2b0:	00f00e13          	li	t3,15
 2b4:	00000213          	li	tp,0
 2b8:	00002097          	auipc	ra,0x2
 2bc:	d4c08093          	addi	ra,ra,-692 # 2004 <tdat2>
 2c0:	0040e183          	lwu	gp,4(ra)
 2c4:	0ff01eb7          	lui	t4,0xff01
 2c8:	ff0e8e9b          	addiw	t4,t4,-16
 2cc:	0dd19263          	bne	gp,t4,390 <fail>
 2d0:	00120213          	addi	tp,tp,1 # 1 <_start+0x1>
 2d4:	00200293          	li	t0,2
 2d8:	fe5210e3          	bne	tp,t0,2b8 <test_15+0x8>

00000000000002dc <test_16>:
 2dc:	01000e13          	li	t3,16
 2e0:	00000213          	li	tp,0
 2e4:	00002097          	auipc	ra,0x2
 2e8:	d2408093          	addi	ra,ra,-732 # 2008 <tdat3>
 2ec:	00000013          	nop
 2f0:	0040e183          	lwu	gp,4(ra)
 2f4:	000f0eb7          	lui	t4,0xf0
 2f8:	0ffe8e9b          	addiw	t4,t4,255
 2fc:	00ce9e93          	slli	t4,t4,0xc
 300:	00fe8e93          	addi	t4,t4,15 # f000f <_end+0xedfff>
 304:	09d19663          	bne	gp,t4,390 <fail>
 308:	00120213          	addi	tp,tp,1 # 1 <_start+0x1>
 30c:	00200293          	li	t0,2
 310:	fc521ae3          	bne	tp,t0,2e4 <test_16+0x8>

0000000000000314 <test_17>:
 314:	01100e13          	li	t3,17
 318:	00000213          	li	tp,0
 31c:	00002097          	auipc	ra,0x2
 320:	ce408093          	addi	ra,ra,-796 # 2000 <begin_signature>
 324:	00000013          	nop
 328:	00000013          	nop
 32c:	0040e183          	lwu	gp,4(ra)
 330:	00010eb7          	lui	t4,0x10
 334:	f01e8e9b          	addiw	t4,t4,-255
 338:	010e9e93          	slli	t4,t4,0x10
 33c:	f00e8e93          	addi	t4,t4,-256 # ff00 <_end+0xdef0>
 340:	05d19863          	bne	gp,t4,390 <fail>
 344:	00120213          	addi	tp,tp,1 # 1 <_start+0x1>
 348:	00200293          	li	t0,2
 34c:	fc5218e3          	bne	tp,t0,31c <test_17+0x8>

0000000000000350 <test_18>:
 350:	00002197          	auipc	gp,0x2
 354:	cb018193          	addi	gp,gp,-848 # 2000 <begin_signature>
 358:	0001e103          	lwu	sp,0(gp)
 35c:	00200113          	li	sp,2
 360:	00200e93          	li	t4,2
 364:	01200e13          	li	t3,18
 368:	03d11463          	bne	sp,t4,390 <fail>

000000000000036c <test_19>:
 36c:	00002197          	auipc	gp,0x2
 370:	c9418193          	addi	gp,gp,-876 # 2000 <begin_signature>
 374:	0001e103          	lwu	sp,0(gp)
 378:	00000013          	nop
 37c:	00200113          	li	sp,2
 380:	00200e93          	li	t4,2
 384:	01300e13          	li	t3,19
 388:	01d11463          	bne	sp,t4,390 <fail>
 38c:	01c01c63          	bne	zero,t3,3a4 <pass>

0000000000000390 <fail>:
 390:	0ff0000f          	fence
 394:	000e0063          	beqz	t3,394 <fail+0x4>
 398:	001e1e13          	slli	t3,t3,0x1
 39c:	001e6e13          	ori	t3,t3,1
 3a0:	00000073          	ecall

00000000000003a4 <pass>:
 3a4:	0ff0000f          	fence
 3a8:	00100e13          	li	t3,1
 3ac:	00000073          	ecall
 3b0:	c0001073          	unimp
 3b4:	0000                	unimp
 3b6:	0000                	unimp
 3b8:	0000                	unimp
 3ba:	0000                	unimp
 3bc:	0000                	unimp
 3be:	0000                	unimp
 3c0:	0000                	unimp
 3c2:	0000                	unimp
