
rv64ui-p-srl:     file format elf64-littleriscv


Disassembly of section .text.init:

0000000000000000 <_start>:
   0:	04c0006f          	j	4c <reset_vector>

0000000000000004 <trap_vector>:
   4:	34202f73          	csrr	t5,mcause
   8:	00800f93          	li	t6,8
   c:	03ff0a63          	beq	t5,t6,40 <write_tohost>
  10:	00900f93          	li	t6,9
  14:	03ff0663          	beq	t5,t6,40 <write_tohost>
  18:	00b00f93          	li	t6,11
  1c:	03ff0263          	beq	t5,t6,40 <write_tohost>
  20:	00000f17          	auipc	t5,0x0
  24:	fe0f0f13          	addi	t5,t5,-32 # 0 <_start>
  28:	000f0463          	beqz	t5,30 <trap_vector+0x2c>
  2c:	000f0067          	jr	t5
  30:	34202f73          	csrr	t5,mcause
  34:	000f5463          	bgez	t5,3c <handle_exception>
  38:	0040006f          	j	3c <handle_exception>

000000000000003c <handle_exception>:
  3c:	539e6e13          	ori	t3,t3,1337

0000000000000040 <write_tohost>:
  40:	00001f17          	auipc	t5,0x1
  44:	fdcf2023          	sw	t3,-64(t5) # 1000 <tohost>
  48:	ff9ff06f          	j	40 <write_tohost>

000000000000004c <reset_vector>:
  4c:	f1402573          	csrr	a0,mhartid
  50:	00051063          	bnez	a0,50 <reset_vector+0x4>
  54:	30102573          	csrr	a0,misa
  58:	00054863          	bltz	a0,68 <reset_vector+0x1c>
  5c:	0ff0000f          	fence
  60:	00100e13          	li	t3,1
  64:	00000073          	ecall
  68:	00000e13          	li	t3,0
  6c:	00000297          	auipc	t0,0x0
  70:	f9828293          	addi	t0,t0,-104 # 4 <trap_vector>
  74:	30529073          	csrw	mtvec,t0
  78:	30205073          	csrwi	medeleg,0
  7c:	30305073          	csrwi	mideleg,0
  80:	30405073          	csrwi	mie,0
  84:	00000297          	auipc	t0,0x0
  88:	f7c28293          	addi	t0,t0,-132 # 0 <_start>
  8c:	00028c63          	beqz	t0,a4 <reset_vector+0x58>
  90:	10529073          	csrw	stvec,t0
  94:	1ab00293          	li	t0,427
  98:	30229073          	csrw	medeleg,t0
  9c:	30202373          	csrr	t1,medeleg
  a0:	f8629ee3          	bne	t0,t1,3c <handle_exception>
  a4:	30005073          	csrwi	mstatus,0
  a8:	00000297          	auipc	t0,0x0
  ac:	01428293          	addi	t0,t0,20 # bc <test_2>
  b0:	34129073          	csrw	mepc,t0
  b4:	f1402573          	csrr	a0,mhartid
  b8:	30200073          	mret

00000000000000bc <test_2>:
  bc:	800000b7          	lui	ra,0x80000
  c0:	00000113          	li	sp,0
  c4:	0020d1b3          	srl	gp,ra,sp
  c8:	80000eb7          	lui	t4,0x80000
  cc:	00200e13          	li	t3,2
  d0:	5fd19a63          	bne	gp,t4,6c4 <fail>

00000000000000d4 <test_3>:
  d4:	800000b7          	lui	ra,0x80000
  d8:	00100113          	li	sp,1
  dc:	0020d1b3          	srl	gp,ra,sp
  e0:	00100e9b          	addiw	t4,zero,1
  e4:	021e9e93          	slli	t4,t4,0x21
  e8:	fffe8e93          	addi	t4,t4,-1 # ffffffff7fffffff <begin_signature+0xffffffff7fffdfff>
  ec:	01ee9e93          	slli	t4,t4,0x1e
  f0:	00300e13          	li	t3,3
  f4:	5dd19863          	bne	gp,t4,6c4 <fail>

00000000000000f8 <test_4>:
  f8:	800000b7          	lui	ra,0x80000
  fc:	00700113          	li	sp,7
 100:	0020d1b3          	srl	gp,ra,sp
 104:	00100e9b          	addiw	t4,zero,1
 108:	021e9e93          	slli	t4,t4,0x21
 10c:	fffe8e93          	addi	t4,t4,-1
 110:	018e9e93          	slli	t4,t4,0x18
 114:	00400e13          	li	t3,4
 118:	5bd19663          	bne	gp,t4,6c4 <fail>

000000000000011c <test_5>:
 11c:	800000b7          	lui	ra,0x80000
 120:	00e00113          	li	sp,14
 124:	0020d1b3          	srl	gp,ra,sp
 128:	00100e9b          	addiw	t4,zero,1
 12c:	021e9e93          	slli	t4,t4,0x21
 130:	fffe8e93          	addi	t4,t4,-1
 134:	011e9e93          	slli	t4,t4,0x11
 138:	00500e13          	li	t3,5
 13c:	59d19463          	bne	gp,t4,6c4 <fail>

0000000000000140 <test_6>:
 140:	800000b7          	lui	ra,0x80000
 144:	0010809b          	addiw	ra,ra,1
 148:	01f00113          	li	sp,31
 14c:	0020d1b3          	srl	gp,ra,sp
 150:	00100e9b          	addiw	t4,zero,1
 154:	021e9e93          	slli	t4,t4,0x21
 158:	fffe8e93          	addi	t4,t4,-1
 15c:	00600e13          	li	t3,6
 160:	57d19263          	bne	gp,t4,6c4 <fail>

0000000000000164 <test_7>:
 164:	fff00093          	li	ra,-1
 168:	00000113          	li	sp,0
 16c:	0020d1b3          	srl	gp,ra,sp
 170:	fff00e93          	li	t4,-1
 174:	00700e13          	li	t3,7
 178:	55d19663          	bne	gp,t4,6c4 <fail>

000000000000017c <test_8>:
 17c:	fff00093          	li	ra,-1
 180:	00100113          	li	sp,1
 184:	0020d1b3          	srl	gp,ra,sp
 188:	fff00e9b          	addiw	t4,zero,-1
 18c:	03fe9e93          	slli	t4,t4,0x3f
 190:	fffe8e93          	addi	t4,t4,-1
 194:	00800e13          	li	t3,8
 198:	53d19663          	bne	gp,t4,6c4 <fail>

000000000000019c <test_9>:
 19c:	fff00093          	li	ra,-1
 1a0:	00700113          	li	sp,7
 1a4:	0020d1b3          	srl	gp,ra,sp
 1a8:	00100e9b          	addiw	t4,zero,1
 1ac:	039e9e93          	slli	t4,t4,0x39
 1b0:	fffe8e93          	addi	t4,t4,-1
 1b4:	00900e13          	li	t3,9
 1b8:	51d19663          	bne	gp,t4,6c4 <fail>

00000000000001bc <test_10>:
 1bc:	fff00093          	li	ra,-1
 1c0:	00e00113          	li	sp,14
 1c4:	0020d1b3          	srl	gp,ra,sp
 1c8:	00100e9b          	addiw	t4,zero,1
 1cc:	032e9e93          	slli	t4,t4,0x32
 1d0:	fffe8e93          	addi	t4,t4,-1
 1d4:	00a00e13          	li	t3,10
 1d8:	4fd19663          	bne	gp,t4,6c4 <fail>

00000000000001dc <test_11>:
 1dc:	fff00093          	li	ra,-1
 1e0:	01f00113          	li	sp,31
 1e4:	0020d1b3          	srl	gp,ra,sp
 1e8:	00100e9b          	addiw	t4,zero,1
 1ec:	021e9e93          	slli	t4,t4,0x21
 1f0:	fffe8e93          	addi	t4,t4,-1
 1f4:	00b00e13          	li	t3,11
 1f8:	4dd19663          	bne	gp,t4,6c4 <fail>

00000000000001fc <test_12>:
 1fc:	212120b7          	lui	ra,0x21212
 200:	1210809b          	addiw	ra,ra,289
 204:	00000113          	li	sp,0
 208:	0020d1b3          	srl	gp,ra,sp
 20c:	21212eb7          	lui	t4,0x21212
 210:	121e8e9b          	addiw	t4,t4,289
 214:	00c00e13          	li	t3,12
 218:	4bd19663          	bne	gp,t4,6c4 <fail>

000000000000021c <test_13>:
 21c:	212120b7          	lui	ra,0x21212
 220:	1210809b          	addiw	ra,ra,289
 224:	00100113          	li	sp,1
 228:	0020d1b3          	srl	gp,ra,sp
 22c:	10909eb7          	lui	t4,0x10909
 230:	090e8e9b          	addiw	t4,t4,144
 234:	00d00e13          	li	t3,13
 238:	49d19663          	bne	gp,t4,6c4 <fail>

000000000000023c <test_14>:
 23c:	212120b7          	lui	ra,0x21212
 240:	1210809b          	addiw	ra,ra,289
 244:	00700113          	li	sp,7
 248:	0020d1b3          	srl	gp,ra,sp
 24c:	00424eb7          	lui	t4,0x424
 250:	242e8e9b          	addiw	t4,t4,578
 254:	00e00e13          	li	t3,14
 258:	47d19663          	bne	gp,t4,6c4 <fail>

000000000000025c <test_15>:
 25c:	212120b7          	lui	ra,0x21212
 260:	1210809b          	addiw	ra,ra,289
 264:	00e00113          	li	sp,14
 268:	0020d1b3          	srl	gp,ra,sp
 26c:	00008eb7          	lui	t4,0x8
 270:	484e8e9b          	addiw	t4,t4,1156
 274:	00f00e13          	li	t3,15
 278:	45d19663          	bne	gp,t4,6c4 <fail>

000000000000027c <test_16>:
 27c:	212120b7          	lui	ra,0x21212
 280:	1210809b          	addiw	ra,ra,289
 284:	01f00113          	li	sp,31
 288:	0020d1b3          	srl	gp,ra,sp
 28c:	00000e93          	li	t4,0
 290:	01000e13          	li	t3,16
 294:	43d19863          	bne	gp,t4,6c4 <fail>

0000000000000298 <test_17>:
 298:	212120b7          	lui	ra,0x21212
 29c:	1210809b          	addiw	ra,ra,289
 2a0:	fc000113          	li	sp,-64
 2a4:	0020d1b3          	srl	gp,ra,sp
 2a8:	21212eb7          	lui	t4,0x21212
 2ac:	121e8e9b          	addiw	t4,t4,289
 2b0:	01100e13          	li	t3,17
 2b4:	41d19863          	bne	gp,t4,6c4 <fail>

00000000000002b8 <test_18>:
 2b8:	212120b7          	lui	ra,0x21212
 2bc:	1210809b          	addiw	ra,ra,289
 2c0:	fc100113          	li	sp,-63
 2c4:	0020d1b3          	srl	gp,ra,sp
 2c8:	10909eb7          	lui	t4,0x10909
 2cc:	090e8e9b          	addiw	t4,t4,144
 2d0:	01200e13          	li	t3,18
 2d4:	3fd19863          	bne	gp,t4,6c4 <fail>

00000000000002d8 <test_19>:
 2d8:	212120b7          	lui	ra,0x21212
 2dc:	1210809b          	addiw	ra,ra,289
 2e0:	fc700113          	li	sp,-57
 2e4:	0020d1b3          	srl	gp,ra,sp
 2e8:	00424eb7          	lui	t4,0x424
 2ec:	242e8e9b          	addiw	t4,t4,578
 2f0:	01300e13          	li	t3,19
 2f4:	3dd19863          	bne	gp,t4,6c4 <fail>

00000000000002f8 <test_20>:
 2f8:	212120b7          	lui	ra,0x21212
 2fc:	1210809b          	addiw	ra,ra,289
 300:	fce00113          	li	sp,-50
 304:	0020d1b3          	srl	gp,ra,sp
 308:	00008eb7          	lui	t4,0x8
 30c:	484e8e9b          	addiw	t4,t4,1156
 310:	01400e13          	li	t3,20
 314:	3bd19863          	bne	gp,t4,6c4 <fail>

0000000000000318 <test_21>:
 318:	212120b7          	lui	ra,0x21212
 31c:	1210809b          	addiw	ra,ra,289
 320:	fff00113          	li	sp,-1
 324:	0020d1b3          	srl	gp,ra,sp
 328:	00000e93          	li	t4,0
 32c:	01500e13          	li	t3,21
 330:	39d19a63          	bne	gp,t4,6c4 <fail>

0000000000000334 <test_22>:
 334:	0010009b          	addiw	ra,zero,1
 338:	01f09093          	slli	ra,ra,0x1f
 33c:	00700113          	li	sp,7
 340:	0020d0b3          	srl	ra,ra,sp
 344:	01000eb7          	lui	t4,0x1000
 348:	01600e13          	li	t3,22
 34c:	37d09c63          	bne	ra,t4,6c4 <fail>

0000000000000350 <test_23>:
 350:	0010009b          	addiw	ra,zero,1
 354:	01f09093          	slli	ra,ra,0x1f
 358:	00e00113          	li	sp,14
 35c:	0020d133          	srl	sp,ra,sp
 360:	00020eb7          	lui	t4,0x20
 364:	01700e13          	li	t3,23
 368:	35d11e63          	bne	sp,t4,6c4 <fail>

000000000000036c <test_24>:
 36c:	00700093          	li	ra,7
 370:	0010d0b3          	srl	ra,ra,ra
 374:	00000e93          	li	t4,0
 378:	01800e13          	li	t3,24
 37c:	35d09463          	bne	ra,t4,6c4 <fail>

0000000000000380 <test_25>:
 380:	00000213          	li	tp,0
 384:	0010009b          	addiw	ra,zero,1
 388:	01f09093          	slli	ra,ra,0x1f
 38c:	00700113          	li	sp,7
 390:	0020d1b3          	srl	gp,ra,sp
 394:	00018313          	mv	t1,gp
 398:	00120213          	addi	tp,tp,1 # 1 <_start+0x1>
 39c:	00200293          	li	t0,2
 3a0:	fe5212e3          	bne	tp,t0,384 <test_25+0x4>
 3a4:	01000eb7          	lui	t4,0x1000
 3a8:	01900e13          	li	t3,25
 3ac:	31d31c63          	bne	t1,t4,6c4 <fail>

00000000000003b0 <test_26>:
 3b0:	00000213          	li	tp,0
 3b4:	0010009b          	addiw	ra,zero,1
 3b8:	01f09093          	slli	ra,ra,0x1f
 3bc:	00e00113          	li	sp,14
 3c0:	0020d1b3          	srl	gp,ra,sp
 3c4:	00000013          	nop
 3c8:	00018313          	mv	t1,gp
 3cc:	00120213          	addi	tp,tp,1 # 1 <_start+0x1>
 3d0:	00200293          	li	t0,2
 3d4:	fe5210e3          	bne	tp,t0,3b4 <test_26+0x4>
 3d8:	00020eb7          	lui	t4,0x20
 3dc:	01a00e13          	li	t3,26
 3e0:	2fd31263          	bne	t1,t4,6c4 <fail>

00000000000003e4 <test_27>:
 3e4:	00000213          	li	tp,0
 3e8:	0010009b          	addiw	ra,zero,1
 3ec:	01f09093          	slli	ra,ra,0x1f
 3f0:	01f00113          	li	sp,31
 3f4:	0020d1b3          	srl	gp,ra,sp
 3f8:	00000013          	nop
 3fc:	00000013          	nop
 400:	00018313          	mv	t1,gp
 404:	00120213          	addi	tp,tp,1 # 1 <_start+0x1>
 408:	00200293          	li	t0,2
 40c:	fc521ee3          	bne	tp,t0,3e8 <test_27+0x4>
 410:	00100e93          	li	t4,1
 414:	01b00e13          	li	t3,27
 418:	2bd31663          	bne	t1,t4,6c4 <fail>

000000000000041c <test_28>:
 41c:	00000213          	li	tp,0
 420:	0010009b          	addiw	ra,zero,1
 424:	01f09093          	slli	ra,ra,0x1f
 428:	00700113          	li	sp,7
 42c:	0020d1b3          	srl	gp,ra,sp
 430:	00120213          	addi	tp,tp,1 # 1 <_start+0x1>
 434:	00200293          	li	t0,2
 438:	fe5214e3          	bne	tp,t0,420 <test_28+0x4>
 43c:	01000eb7          	lui	t4,0x1000
 440:	01c00e13          	li	t3,28
 444:	29d19063          	bne	gp,t4,6c4 <fail>

0000000000000448 <test_29>:
 448:	00000213          	li	tp,0
 44c:	0010009b          	addiw	ra,zero,1
 450:	01f09093          	slli	ra,ra,0x1f
 454:	00e00113          	li	sp,14
 458:	00000013          	nop
 45c:	0020d1b3          	srl	gp,ra,sp
 460:	00120213          	addi	tp,tp,1 # 1 <_start+0x1>
 464:	00200293          	li	t0,2
 468:	fe5212e3          	bne	tp,t0,44c <test_29+0x4>
 46c:	00020eb7          	lui	t4,0x20
 470:	01d00e13          	li	t3,29
 474:	25d19863          	bne	gp,t4,6c4 <fail>

0000000000000478 <test_30>:
 478:	00000213          	li	tp,0
 47c:	0010009b          	addiw	ra,zero,1
 480:	01f09093          	slli	ra,ra,0x1f
 484:	01f00113          	li	sp,31
 488:	00000013          	nop
 48c:	00000013          	nop
 490:	0020d1b3          	srl	gp,ra,sp
 494:	00120213          	addi	tp,tp,1 # 1 <_start+0x1>
 498:	00200293          	li	t0,2
 49c:	fe5210e3          	bne	tp,t0,47c <test_30+0x4>
 4a0:	00100e93          	li	t4,1
 4a4:	01e00e13          	li	t3,30
 4a8:	21d19e63          	bne	gp,t4,6c4 <fail>

00000000000004ac <test_31>:
 4ac:	00000213          	li	tp,0
 4b0:	0010009b          	addiw	ra,zero,1
 4b4:	01f09093          	slli	ra,ra,0x1f
 4b8:	00000013          	nop
 4bc:	00700113          	li	sp,7
 4c0:	0020d1b3          	srl	gp,ra,sp
 4c4:	00120213          	addi	tp,tp,1 # 1 <_start+0x1>
 4c8:	00200293          	li	t0,2
 4cc:	fe5212e3          	bne	tp,t0,4b0 <test_31+0x4>
 4d0:	01000eb7          	lui	t4,0x1000
 4d4:	01f00e13          	li	t3,31
 4d8:	1fd19663          	bne	gp,t4,6c4 <fail>

00000000000004dc <test_32>:
 4dc:	00000213          	li	tp,0
 4e0:	0010009b          	addiw	ra,zero,1
 4e4:	01f09093          	slli	ra,ra,0x1f
 4e8:	00000013          	nop
 4ec:	00e00113          	li	sp,14
 4f0:	00000013          	nop
 4f4:	0020d1b3          	srl	gp,ra,sp
 4f8:	00120213          	addi	tp,tp,1 # 1 <_start+0x1>
 4fc:	00200293          	li	t0,2
 500:	fe5210e3          	bne	tp,t0,4e0 <test_32+0x4>
 504:	00020eb7          	lui	t4,0x20
 508:	02000e13          	li	t3,32
 50c:	1bd19c63          	bne	gp,t4,6c4 <fail>

0000000000000510 <test_33>:
 510:	00000213          	li	tp,0
 514:	0010009b          	addiw	ra,zero,1
 518:	01f09093          	slli	ra,ra,0x1f
 51c:	00000013          	nop
 520:	00000013          	nop
 524:	01f00113          	li	sp,31
 528:	0020d1b3          	srl	gp,ra,sp
 52c:	00120213          	addi	tp,tp,1 # 1 <_start+0x1>
 530:	00200293          	li	t0,2
 534:	fe5210e3          	bne	tp,t0,514 <test_33+0x4>
 538:	00100e93          	li	t4,1
 53c:	02100e13          	li	t3,33
 540:	19d19263          	bne	gp,t4,6c4 <fail>

0000000000000544 <test_34>:
 544:	00000213          	li	tp,0
 548:	00700113          	li	sp,7
 54c:	0010009b          	addiw	ra,zero,1
 550:	01f09093          	slli	ra,ra,0x1f
 554:	0020d1b3          	srl	gp,ra,sp
 558:	00120213          	addi	tp,tp,1 # 1 <_start+0x1>
 55c:	00200293          	li	t0,2
 560:	fe5214e3          	bne	tp,t0,548 <test_34+0x4>
 564:	01000eb7          	lui	t4,0x1000
 568:	02200e13          	li	t3,34
 56c:	15d19c63          	bne	gp,t4,6c4 <fail>

0000000000000570 <test_35>:
 570:	00000213          	li	tp,0
 574:	00e00113          	li	sp,14
 578:	0010009b          	addiw	ra,zero,1
 57c:	01f09093          	slli	ra,ra,0x1f
 580:	00000013          	nop
 584:	0020d1b3          	srl	gp,ra,sp
 588:	00120213          	addi	tp,tp,1 # 1 <_start+0x1>
 58c:	00200293          	li	t0,2
 590:	fe5212e3          	bne	tp,t0,574 <test_35+0x4>
 594:	00020eb7          	lui	t4,0x20
 598:	02300e13          	li	t3,35
 59c:	13d19463          	bne	gp,t4,6c4 <fail>

00000000000005a0 <test_36>:
 5a0:	00000213          	li	tp,0
 5a4:	01f00113          	li	sp,31
 5a8:	0010009b          	addiw	ra,zero,1
 5ac:	01f09093          	slli	ra,ra,0x1f
 5b0:	00000013          	nop
 5b4:	00000013          	nop
 5b8:	0020d1b3          	srl	gp,ra,sp
 5bc:	00120213          	addi	tp,tp,1 # 1 <_start+0x1>
 5c0:	00200293          	li	t0,2
 5c4:	fe5210e3          	bne	tp,t0,5a4 <test_36+0x4>
 5c8:	00100e93          	li	t4,1
 5cc:	02400e13          	li	t3,36
 5d0:	0fd19a63          	bne	gp,t4,6c4 <fail>

00000000000005d4 <test_37>:
 5d4:	00000213          	li	tp,0
 5d8:	00700113          	li	sp,7
 5dc:	00000013          	nop
 5e0:	0010009b          	addiw	ra,zero,1
 5e4:	01f09093          	slli	ra,ra,0x1f
 5e8:	0020d1b3          	srl	gp,ra,sp
 5ec:	00120213          	addi	tp,tp,1 # 1 <_start+0x1>
 5f0:	00200293          	li	t0,2
 5f4:	fe5212e3          	bne	tp,t0,5d8 <test_37+0x4>
 5f8:	01000eb7          	lui	t4,0x1000
 5fc:	02500e13          	li	t3,37
 600:	0dd19263          	bne	gp,t4,6c4 <fail>

0000000000000604 <test_38>:
 604:	00000213          	li	tp,0
 608:	00e00113          	li	sp,14
 60c:	00000013          	nop
 610:	0010009b          	addiw	ra,zero,1
 614:	01f09093          	slli	ra,ra,0x1f
 618:	00000013          	nop
 61c:	0020d1b3          	srl	gp,ra,sp
 620:	00120213          	addi	tp,tp,1 # 1 <_start+0x1>
 624:	00200293          	li	t0,2
 628:	fe5210e3          	bne	tp,t0,608 <test_38+0x4>
 62c:	00020eb7          	lui	t4,0x20
 630:	02600e13          	li	t3,38
 634:	09d19863          	bne	gp,t4,6c4 <fail>

0000000000000638 <test_39>:
 638:	00000213          	li	tp,0
 63c:	01f00113          	li	sp,31
 640:	00000013          	nop
 644:	00000013          	nop
 648:	0010009b          	addiw	ra,zero,1
 64c:	01f09093          	slli	ra,ra,0x1f
 650:	0020d1b3          	srl	gp,ra,sp
 654:	00120213          	addi	tp,tp,1 # 1 <_start+0x1>
 658:	00200293          	li	t0,2
 65c:	fe5210e3          	bne	tp,t0,63c <test_39+0x4>
 660:	00100e93          	li	t4,1
 664:	02700e13          	li	t3,39
 668:	05d19e63          	bne	gp,t4,6c4 <fail>

000000000000066c <test_40>:
 66c:	00f00093          	li	ra,15
 670:	00105133          	srl	sp,zero,ra
 674:	00000e93          	li	t4,0
 678:	02800e13          	li	t3,40
 67c:	05d11463          	bne	sp,t4,6c4 <fail>

0000000000000680 <test_41>:
 680:	02000093          	li	ra,32
 684:	0000d133          	srl	sp,ra,zero
 688:	02000e93          	li	t4,32
 68c:	02900e13          	li	t3,41
 690:	03d11a63          	bne	sp,t4,6c4 <fail>

0000000000000694 <test_42>:
 694:	000050b3          	srl	ra,zero,zero
 698:	00000e93          	li	t4,0
 69c:	02a00e13          	li	t3,42
 6a0:	03d09263          	bne	ra,t4,6c4 <fail>

00000000000006a4 <test_43>:
 6a4:	40000093          	li	ra,1024
 6a8:	00001137          	lui	sp,0x1
 6ac:	8001011b          	addiw	sp,sp,-2048
 6b0:	0020d033          	srl	zero,ra,sp
 6b4:	00000e93          	li	t4,0
 6b8:	02b00e13          	li	t3,43
 6bc:	01d01463          	bne	zero,t4,6c4 <fail>
 6c0:	01c01c63          	bne	zero,t3,6d8 <pass>

00000000000006c4 <fail>:
 6c4:	0ff0000f          	fence
 6c8:	000e0063          	beqz	t3,6c8 <fail+0x4>
 6cc:	001e1e13          	slli	t3,t3,0x1
 6d0:	001e6e13          	ori	t3,t3,1
 6d4:	00000073          	ecall

00000000000006d8 <pass>:
 6d8:	0ff0000f          	fence
 6dc:	00100e13          	li	t3,1
 6e0:	00000073          	ecall
 6e4:	c0001073          	unimp
 6e8:	0000                	unimp
 6ea:	0000                	unimp
 6ec:	0000                	unimp
 6ee:	0000                	unimp
 6f0:	0000                	unimp
 6f2:	0000                	unimp
 6f4:	0000                	unimp
 6f6:	0000                	unimp
 6f8:	0000                	unimp
 6fa:	0000                	unimp
 6fc:	0000                	unimp
 6fe:	0000                	unimp
 700:	0000                	unimp
 702:	0000                	unimp
