
dhrystone.riscv:     file format elf64-littleriscv


Disassembly of section .text:

0000000080001048 <Proc_2>:
    80001048:	00002717          	auipc	a4,0x2
    8000104c:	96974703          	lbu	a4,-1687(a4) # 800029b1 <Ch_1_Glob>
    80001050:	04100793          	li	a5,65
    80001054:	00f70363          	beq	a4,a5,8000105a <Proc_2+0x12>
    80001058:	8082                	ret
    8000105a:	411c                	lw	a5,0(a0)
    8000105c:	00002717          	auipc	a4,0x2
    80001060:	95c72703          	lw	a4,-1700(a4) # 800029b8 <Int_Glob>
    80001064:	27a5                	addiw	a5,a5,9
    80001066:	9f99                	subw	a5,a5,a4
    80001068:	c11c                	sw	a5,0(a0)
    8000106a:	8082                	ret

000000008000106c <Proc_3>:
    8000106c:	00002617          	auipc	a2,0x2
    80001070:	95c63603          	ld	a2,-1700(a2) # 800029c8 <Ptr_Glob>
    80001074:	c619                	beqz	a2,80001082 <Proc_3+0x16>
    80001076:	621c                	ld	a5,0(a2)
    80001078:	e11c                	sd	a5,0(a0)
    8000107a:	00002617          	auipc	a2,0x2
    8000107e:	94e63603          	ld	a2,-1714(a2) # 800029c8 <Ptr_Glob>
    80001082:	00002797          	auipc	a5,0x2
    80001086:	93678793          	addi	a5,a5,-1738 # 800029b8 <Int_Glob>
    8000108a:	438c                	lw	a1,0(a5)
    8000108c:	0641                	addi	a2,a2,16
    8000108e:	4529                	li	a0,10
    80001090:	0e00006f          	j	80001170 <Proc_7>

0000000080001094 <Proc_1>:
    80001094:	00002797          	auipc	a5,0x2
    80001098:	9347b783          	ld	a5,-1740(a5) # 800029c8 <Ptr_Glob>
    8000109c:	1101                	addi	sp,sp,-32
    8000109e:	6394                	ld	a3,0(a5)
    800010a0:	e822                	sd	s0,16(sp)
    800010a2:	6100                	ld	s0,0(a0)
    800010a4:	e426                	sd	s1,8(sp)
    800010a6:	ec06                	sd	ra,24(sp)
    800010a8:	e014                	sd	a3,0(s0)
    800010aa:	6790                	ld	a2,8(a5)
    800010ac:	84aa                	mv	s1,a0
    800010ae:	6094                	ld	a3,0(s1)
    800010b0:	e410                	sd	a2,8(s0)
    800010b2:	6b90                	ld	a2,16(a5)
    800010b4:	4715                	li	a4,5
    800010b6:	8522                	mv	a0,s0
    800010b8:	e810                	sd	a2,16(s0)
    800010ba:	6f90                	ld	a2,24(a5)
    800010bc:	ec10                	sd	a2,24(s0)
    800010be:	7390                	ld	a2,32(a5)
    800010c0:	f010                	sd	a2,32(s0)
    800010c2:	7790                	ld	a2,40(a5)
    800010c4:	f410                	sd	a2,40(s0)
    800010c6:	7b9c                	ld	a5,48(a5)
    800010c8:	f81c                	sd	a5,48(s0)
    800010ca:	c898                	sw	a4,16(s1)
    800010cc:	c818                	sw	a4,16(s0)
    800010ce:	e014                	sd	a3,0(s0)
    800010d0:	f9dff0ef          	jal	ra,8000106c <Proc_3>
    800010d4:	441c                	lw	a5,8(s0)
    800010d6:	c78d                	beqz	a5,80001100 <Proc_1+0x6c>
    800010d8:	609c                	ld	a5,0(s1)
    800010da:	60e2                	ld	ra,24(sp)
    800010dc:	6442                	ld	s0,16(sp)
    800010de:	6398                	ld	a4,0(a5)
    800010e0:	e098                	sd	a4,0(s1)
    800010e2:	6798                	ld	a4,8(a5)
    800010e4:	e498                	sd	a4,8(s1)
    800010e6:	6b98                	ld	a4,16(a5)
    800010e8:	e898                	sd	a4,16(s1)
    800010ea:	6f98                	ld	a4,24(a5)
    800010ec:	ec98                	sd	a4,24(s1)
    800010ee:	7398                	ld	a4,32(a5)
    800010f0:	f098                	sd	a4,32(s1)
    800010f2:	7798                	ld	a4,40(a5)
    800010f4:	f498                	sd	a4,40(s1)
    800010f6:	7b9c                	ld	a5,48(a5)
    800010f8:	f89c                	sd	a5,48(s1)
    800010fa:	64a2                	ld	s1,8(sp)
    800010fc:	6105                	addi	sp,sp,32
    800010fe:	8082                	ret
    80001100:	44c8                	lw	a0,12(s1)
    80001102:	4799                	li	a5,6
    80001104:	00c40593          	addi	a1,s0,12
    80001108:	c81c                	sw	a5,16(s0)
    8000110a:	11e000ef          	jal	ra,80001228 <Proc_6>
    8000110e:	00002797          	auipc	a5,0x2
    80001112:	8ba7b783          	ld	a5,-1862(a5) # 800029c8 <Ptr_Glob>
    80001116:	639c                	ld	a5,0(a5)
    80001118:	4808                	lw	a0,16(s0)
    8000111a:	01040613          	addi	a2,s0,16
    8000111e:	e01c                	sd	a5,0(s0)
    80001120:	6442                	ld	s0,16(sp)
    80001122:	60e2                	ld	ra,24(sp)
    80001124:	64a2                	ld	s1,8(sp)
    80001126:	45a9                	li	a1,10
    80001128:	6105                	addi	sp,sp,32
    8000112a:	0460006f          	j	80001170 <Proc_7>

000000008000112e <Proc_4>:
    8000112e:	00002717          	auipc	a4,0x2
    80001132:	88670713          	addi	a4,a4,-1914 # 800029b4 <Bool_Glob>
    80001136:	4314                	lw	a3,0(a4)
    80001138:	00002797          	auipc	a5,0x2
    8000113c:	8797c783          	lbu	a5,-1927(a5) # 800029b1 <Ch_1_Glob>
    80001140:	fbf78793          	addi	a5,a5,-65
    80001144:	0017b793          	seqz	a5,a5
    80001148:	8fd5                	or	a5,a5,a3
    8000114a:	c31c                	sw	a5,0(a4)
    8000114c:	04200793          	li	a5,66
    80001150:	00002717          	auipc	a4,0x2
    80001154:	86f70023          	sb	a5,-1952(a4) # 800029b0 <Ch_2_Glob>
    80001158:	8082                	ret

000000008000115a <Proc_5>:
    8000115a:	04100793          	li	a5,65
    8000115e:	00002717          	auipc	a4,0x2
    80001162:	84f709a3          	sb	a5,-1965(a4) # 800029b1 <Ch_1_Glob>
    80001166:	00002797          	auipc	a5,0x2
    8000116a:	8407a723          	sw	zero,-1970(a5) # 800029b4 <Bool_Glob>
    8000116e:	8082                	ret

0000000080001170 <Proc_7>:
    80001170:	2509                	addiw	a0,a0,2
    80001172:	9da9                	addw	a1,a1,a0
    80001174:	c20c                	sw	a1,0(a2)
    80001176:	8082                	ret

0000000080001178 <Proc_8>:
    80001178:	0056079b          	addiw	a5,a2,5
    8000117c:	0c800713          	li	a4,200
    80001180:	02e78733          	mul	a4,a5,a4
    80001184:	883e                	mv	a6,a5
    80001186:	060a                	slli	a2,a2,0x2
    80001188:	078a                	slli	a5,a5,0x2
    8000118a:	953e                	add	a0,a0,a5
    8000118c:	c114                	sw	a3,0(a0)
    8000118e:	c154                	sw	a3,4(a0)
    80001190:	07052c23          	sw	a6,120(a0)
    80001194:	00c707b3          	add	a5,a4,a2
    80001198:	97ae                	add	a5,a5,a1
    8000119a:	4b94                	lw	a3,16(a5)
    8000119c:	0107aa23          	sw	a6,20(a5)
    800011a0:	0107ac23          	sw	a6,24(a5)
    800011a4:	2685                	addiw	a3,a3,1
    800011a6:	cb94                	sw	a3,16(a5)
    800011a8:	411c                	lw	a5,0(a0)
    800011aa:	95ba                	add	a1,a1,a4
    800011ac:	95b2                	add	a1,a1,a2
    800011ae:	6605                	lui	a2,0x1
    800011b0:	95b2                	add	a1,a1,a2
    800011b2:	faf5aa23          	sw	a5,-76(a1)
    800011b6:	4795                	li	a5,5
    800011b8:	00002717          	auipc	a4,0x2
    800011bc:	80f72023          	sw	a5,-2048(a4) # 800029b8 <Int_Glob>
    800011c0:	8082                	ret

00000000800011c2 <Func_1>:
    800011c2:	0ff57513          	andi	a0,a0,255
    800011c6:	0ff5f593          	andi	a1,a1,255
    800011ca:	00b50463          	beq	a0,a1,800011d2 <Func_1+0x10>
    800011ce:	4501                	li	a0,0
    800011d0:	8082                	ret
    800011d2:	00001797          	auipc	a5,0x1
    800011d6:	7ca78fa3          	sb	a0,2015(a5) # 800029b1 <Ch_1_Glob>
    800011da:	4505                	li	a0,1
    800011dc:	8082                	ret

00000000800011de <Func_2>:
    800011de:	1101                	addi	sp,sp,-32
    800011e0:	e822                	sd	s0,16(sp)
    800011e2:	e426                	sd	s1,8(sp)
    800011e4:	ec06                	sd	ra,24(sp)
    800011e6:	842a                	mv	s0,a0
    800011e8:	84ae                	mv	s1,a1
    800011ea:	0034c583          	lbu	a1,3(s1)
    800011ee:	00244503          	lbu	a0,2(s0)
    800011f2:	fd1ff0ef          	jal	ra,800011c2 <Func_1>
    800011f6:	2501                	sext.w	a0,a0
    800011f8:	f96d                	bnez	a0,800011ea <Func_2+0xc>
    800011fa:	85a6                	mv	a1,s1
    800011fc:	8522                	mv	a0,s0
    800011fe:	7c6000ef          	jal	ra,800019c4 <strcmp>
    80001202:	4781                	li	a5,0
    80001204:	00a05863          	blez	a0,80001214 <Func_2+0x36>
    80001208:	47a9                	li	a5,10
    8000120a:	00001717          	auipc	a4,0x1
    8000120e:	7af72723          	sw	a5,1966(a4) # 800029b8 <Int_Glob>
    80001212:	4785                	li	a5,1
    80001214:	60e2                	ld	ra,24(sp)
    80001216:	6442                	ld	s0,16(sp)
    80001218:	64a2                	ld	s1,8(sp)
    8000121a:	853e                	mv	a0,a5
    8000121c:	6105                	addi	sp,sp,32
    8000121e:	8082                	ret

0000000080001220 <Func_3>:
    80001220:	1579                	addi	a0,a0,-2
    80001222:	00153513          	seqz	a0,a0
    80001226:	8082                	ret

0000000080001228 <Proc_6>:
    80001228:	1101                	addi	sp,sp,-32
    8000122a:	e822                	sd	s0,16(sp)
    8000122c:	e426                	sd	s1,8(sp)
    8000122e:	ec06                	sd	ra,24(sp)
    80001230:	842a                	mv	s0,a0
    80001232:	84ae                	mv	s1,a1
    80001234:	fedff0ef          	jal	ra,80001220 <Func_3>
    80001238:	c115                	beqz	a0,8000125c <Proc_6+0x34>
    8000123a:	c080                	sw	s0,0(s1)
    8000123c:	4785                	li	a5,1
    8000123e:	02f40463          	beq	s0,a5,80001266 <Proc_6+0x3e>
    80001242:	c815                	beqz	s0,80001276 <Proc_6+0x4e>
    80001244:	4709                	li	a4,2
    80001246:	02e40f63          	beq	s0,a4,80001284 <Proc_6+0x5c>
    8000124a:	4791                	li	a5,4
    8000124c:	00f41363          	bne	s0,a5,80001252 <Proc_6+0x2a>
    80001250:	c098                	sw	a4,0(s1)
    80001252:	60e2                	ld	ra,24(sp)
    80001254:	6442                	ld	s0,16(sp)
    80001256:	64a2                	ld	s1,8(sp)
    80001258:	6105                	addi	sp,sp,32
    8000125a:	8082                	ret
    8000125c:	478d                	li	a5,3
    8000125e:	c09c                	sw	a5,0(s1)
    80001260:	4785                	li	a5,1
    80001262:	fef410e3          	bne	s0,a5,80001242 <Proc_6+0x1a>
    80001266:	00001797          	auipc	a5,0x1
    8000126a:	7527a783          	lw	a5,1874(a5) # 800029b8 <Int_Glob>
    8000126e:	06400713          	li	a4,100
    80001272:	00f75f63          	ble	a5,a4,80001290 <Proc_6+0x68>
    80001276:	60e2                	ld	ra,24(sp)
    80001278:	6442                	ld	s0,16(sp)
    8000127a:	0004a023          	sw	zero,0(s1)
    8000127e:	64a2                	ld	s1,8(sp)
    80001280:	6105                	addi	sp,sp,32
    80001282:	8082                	ret
    80001284:	60e2                	ld	ra,24(sp)
    80001286:	6442                	ld	s0,16(sp)
    80001288:	c09c                	sw	a5,0(s1)
    8000128a:	64a2                	ld	s1,8(sp)
    8000128c:	6105                	addi	sp,sp,32
    8000128e:	8082                	ret
    80001290:	60e2                	ld	ra,24(sp)
    80001292:	6442                	ld	s0,16(sp)
    80001294:	478d                	li	a5,3
    80001296:	c09c                	sw	a5,0(s1)
    80001298:	64a2                	ld	s1,8(sp)
    8000129a:	6105                	addi	sp,sp,32
    8000129c:	8082                	ret

000000008000129e <debug_printf>:
    8000129e:	7139                	addi	sp,sp,-64
    800012a0:	e42e                	sd	a1,8(sp)
    800012a2:	e832                	sd	a2,16(sp)
    800012a4:	ec36                	sd	a3,24(sp)
    800012a6:	f03a                	sd	a4,32(sp)
    800012a8:	f43e                	sd	a5,40(sp)
    800012aa:	f842                	sd	a6,48(sp)
    800012ac:	fc46                	sd	a7,56(sp)
    800012ae:	6121                	addi	sp,sp,64
    800012b0:	8082                	ret

00000000800012b2 <putchar>:
    800012b2:	04022803          	lw	a6,64(tp) # 40 <buflen.2714>
    800012b6:	00020793          	mv	a5,tp
    800012ba:	97c2                	add	a5,a5,a6
    800012bc:	0018061b          	addiw	a2,a6,1
    800012c0:	00a78023          	sb	a0,0(a5)
    800012c4:	04c22023          	sw	a2,64(tp) # 40 <buflen.2714>
    800012c8:	47a9                	li	a5,10
    800012ca:	00f50863          	beq	a0,a5,800012da <putchar+0x28>
    800012ce:	04000793          	li	a5,64
    800012d2:	00f60463          	beq	a2,a5,800012da <putchar+0x28>
    800012d6:	4501                	li	a0,0
    800012d8:	8082                	ret
    800012da:	04000893          	li	a7,64
    800012de:	4505                	li	a0,1
    800012e0:	00020593          	mv	a1,tp
    800012e4:	00000073          	ecall
    800012e8:	04022023          	sw	zero,64(tp) # 40 <buflen.2714>
    800012ec:	4501                	li	a0,0
    800012ee:	8082                	ret

00000000800012f0 <vprintfmt>:
    800012f0:	710d                	addi	sp,sp,-352
    800012f2:	eaa2                	sd	s0,336(sp)
    800012f4:	e6a6                	sd	s1,328(sp)
    800012f6:	e2ca                	sd	s2,320(sp)
    800012f8:	fa52                	sd	s4,304(sp)
    800012fa:	f656                	sd	s5,296(sp)
    800012fc:	f25a                	sd	s6,288(sp)
    800012fe:	ee86                	sd	ra,344(sp)
    80001300:	fe4e                	sd	s3,312(sp)
    80001302:	ee5e                	sd	s7,280(sp)
    80001304:	ea62                	sd	s8,272(sp)
    80001306:	e666                	sd	s9,264(sp)
    80001308:	892a                	mv	s2,a0
    8000130a:	84ae                	mv	s1,a1
    8000130c:	8432                	mv	s0,a2
    8000130e:	8b36                	mv	s6,a3
    80001310:	02500a13          	li	s4,37
    80001314:	00001a97          	auipc	s5,0x1
    80001318:	514a8a93          	addi	s5,s5,1300 # 80002828 <main+0xdd0>
    8000131c:	a029                	j	80001326 <vprintfmt+0x36>
    8000131e:	c131                	beqz	a0,80001362 <vprintfmt+0x72>
    80001320:	85a6                	mv	a1,s1
    80001322:	0405                	addi	s0,s0,1
    80001324:	9902                	jalr	s2
    80001326:	00044503          	lbu	a0,0(s0)
    8000132a:	ff451ae3          	bne	a0,s4,8000131e <vprintfmt+0x2e>
    8000132e:	00144683          	lbu	a3,1(s0)
    80001332:	00140c93          	addi	s9,s0,1
    80001336:	8766                	mv	a4,s9
    80001338:	02000b93          	li	s7,32
    8000133c:	59fd                	li	s3,-1
    8000133e:	5c7d                	li	s8,-1
    80001340:	4581                	li	a1,0
    80001342:	05500613          	li	a2,85
    80001346:	4525                	li	a0,9
    80001348:	fdd6879b          	addiw	a5,a3,-35
    8000134c:	0ff7f793          	andi	a5,a5,255
    80001350:	00170413          	addi	s0,a4,1
    80001354:	1ef66963          	bltu	a2,a5,80001546 <vprintfmt+0x256>
    80001358:	078a                	slli	a5,a5,0x2
    8000135a:	97d6                	add	a5,a5,s5
    8000135c:	439c                	lw	a5,0(a5)
    8000135e:	97d6                	add	a5,a5,s5
    80001360:	8782                	jr	a5
    80001362:	60f6                	ld	ra,344(sp)
    80001364:	6456                	ld	s0,336(sp)
    80001366:	64b6                	ld	s1,328(sp)
    80001368:	6916                	ld	s2,320(sp)
    8000136a:	79f2                	ld	s3,312(sp)
    8000136c:	7a52                	ld	s4,304(sp)
    8000136e:	7ab2                	ld	s5,296(sp)
    80001370:	7b12                	ld	s6,288(sp)
    80001372:	6bf2                	ld	s7,280(sp)
    80001374:	6c52                	ld	s8,272(sp)
    80001376:	6cb2                	ld	s9,264(sp)
    80001378:	6135                	addi	sp,sp,352
    8000137a:	8082                	ret
    8000137c:	4721                	li	a4,8
    8000137e:	4785                	li	a5,1
    80001380:	008b0693          	addi	a3,s6,8
    80001384:	0eb7d463          	ble	a1,a5,8000146c <vprintfmt+0x17c>
    80001388:	000b3783          	ld	a5,0(s6)
    8000138c:	8b36                	mv	s6,a3
    8000138e:	02e7f6b3          	remu	a3,a5,a4
    80001392:	2b81                	sext.w	s7,s7
    80001394:	0050                	addi	a2,sp,4
    80001396:	4985                	li	s3,1
    80001398:	c036                	sw	a3,0(sp)
    8000139a:	00e7f463          	bleu	a4,a5,800013a2 <vprintfmt+0xb2>
    8000139e:	aa55                	j	80001552 <vprintfmt+0x262>
    800013a0:	89e6                	mv	s3,s9
    800013a2:	02e7d7b3          	divu	a5,a5,a4
    800013a6:	0611                	addi	a2,a2,4
    800013a8:	00198c9b          	addiw	s9,s3,1
    800013ac:	02e7f6b3          	remu	a3,a5,a4
    800013b0:	fed62e23          	sw	a3,-4(a2) # ffc <_tbss_end+0xfb8>
    800013b4:	fee7f6e3          	bleu	a4,a5,800013a0 <vprintfmt+0xb0>
    800013b8:	018cd963          	ble	s8,s9,800013ca <vprintfmt+0xda>
    800013bc:	2c01                	sext.w	s8,s8
    800013be:	3c7d                	addiw	s8,s8,-1
    800013c0:	85a6                	mv	a1,s1
    800013c2:	855e                	mv	a0,s7
    800013c4:	9902                	jalr	s2
    800013c6:	ff8ccce3          	blt	s9,s8,800013be <vprintfmt+0xce>
    800013ca:	00299793          	slli	a5,s3,0x2
    800013ce:	0218                	addi	a4,sp,256
    800013d0:	97ba                	add	a5,a5,a4
    800013d2:	f007a683          	lw	a3,-256(a5)
    800013d6:	fff98b9b          	addiw	s7,s3,-1
    800013da:	0b8a                	slli	s7,s7,0x2
    800013dc:	9b8a                	add	s7,s7,sp
    800013de:	4c25                	li	s8,9
    800013e0:	a029                	j	800013ea <vprintfmt+0xfa>
    800013e2:	000ba683          	lw	a3,0(s7)
    800013e6:	19fd                	addi	s3,s3,-1
    800013e8:	1bf1                	addi	s7,s7,-4
    800013ea:	03000513          	li	a0,48
    800013ee:	00dc7463          	bleu	a3,s8,800013f6 <vprintfmt+0x106>
    800013f2:	05700513          	li	a0,87
    800013f6:	85a6                	mv	a1,s1
    800013f8:	9d35                	addw	a0,a0,a3
    800013fa:	9902                	jalr	s2
    800013fc:	0009879b          	sext.w	a5,s3
    80001400:	fef041e3          	bgtz	a5,800013e2 <vprintfmt+0xf2>
    80001404:	b70d                	j	80001326 <vprintfmt+0x36>
    80001406:	03000513          	li	a0,48
    8000140a:	85a6                	mv	a1,s1
    8000140c:	9902                	jalr	s2
    8000140e:	85a6                	mv	a1,s1
    80001410:	07800513          	li	a0,120
    80001414:	9902                	jalr	s2
    80001416:	008b0693          	addi	a3,s6,8
    8000141a:	4741                	li	a4,16
    8000141c:	b7b5                	j	80001388 <vprintfmt+0x98>
    8000141e:	000b3c83          	ld	s9,0(s6)
    80001422:	0b21                	addi	s6,s6,8
    80001424:	180c8863          	beqz	s9,800015b4 <vprintfmt+0x2c4>
    80001428:	15805163          	blez	s8,8000156a <vprintfmt+0x27a>
    8000142c:	02d00793          	li	a5,45
    80001430:	16fb8d63          	beq	s7,a5,800015aa <vprintfmt+0x2ba>
    80001434:	000c059b          	sext.w	a1,s8
    80001438:	18098963          	beqz	s3,800015ca <vprintfmt+0x2da>
    8000143c:	000cc783          	lbu	a5,0(s9)
    80001440:	18078563          	beqz	a5,800015ca <vprintfmt+0x2da>
    80001444:	001c8793          	addi	a5,s9,1
    80001448:	013c8633          	add	a2,s9,s3
    8000144c:	1af60363          	beq	a2,a5,800015f2 <vprintfmt+0x302>
    80001450:	00178713          	addi	a4,a5,1
    80001454:	fff74683          	lbu	a3,-1(a4)
    80001458:	10068363          	beqz	a3,8000155e <vprintfmt+0x26e>
    8000145c:	87ba                	mv	a5,a4
    8000145e:	b7fd                	j	8000144c <vprintfmt+0x15c>
    80001460:	4785                	li	a5,1
    80001462:	4729                	li	a4,10
    80001464:	008b0693          	addi	a3,s6,8
    80001468:	f2b7c0e3          	blt	a5,a1,80001388 <vprintfmt+0x98>
    8000146c:	fd91                	bnez	a1,80001388 <vprintfmt+0x98>
    8000146e:	000b6783          	lwu	a5,0(s6)
    80001472:	8b36                	mv	s6,a3
    80001474:	bf29                	j	8000138e <vprintfmt+0x9e>
    80001476:	00174683          	lbu	a3,1(a4)
    8000147a:	8722                	mv	a4,s0
    8000147c:	b5f1                	j	80001348 <vprintfmt+0x58>
    8000147e:	85a6                	mv	a1,s1
    80001480:	02500513          	li	a0,37
    80001484:	9902                	jalr	s2
    80001486:	b545                	j	80001326 <vprintfmt+0x36>
    80001488:	4741                	li	a4,16
    8000148a:	bdd5                	j	8000137e <vprintfmt+0x8e>
    8000148c:	000b2983          	lw	s3,0(s6)
    80001490:	00174683          	lbu	a3,1(a4)
    80001494:	0b21                	addi	s6,s6,8
    80001496:	8722                	mv	a4,s0
    80001498:	ea0c58e3          	bgez	s8,80001348 <vprintfmt+0x58>
    8000149c:	8c4e                	mv	s8,s3
    8000149e:	59fd                	li	s3,-1
    800014a0:	b565                	j	80001348 <vprintfmt+0x58>
    800014a2:	00174683          	lbu	a3,1(a4)
    800014a6:	02d00b93          	li	s7,45
    800014aa:	8722                	mv	a4,s0
    800014ac:	bd71                	j	80001348 <vprintfmt+0x58>
    800014ae:	fffc4793          	not	a5,s8
    800014b2:	97fd                	srai	a5,a5,0x3f
    800014b4:	00fc7c33          	and	s8,s8,a5
    800014b8:	00174683          	lbu	a3,1(a4)
    800014bc:	2c01                	sext.w	s8,s8
    800014be:	8722                	mv	a4,s0
    800014c0:	b561                	j	80001348 <vprintfmt+0x58>
    800014c2:	00174683          	lbu	a3,1(a4)
    800014c6:	03000b93          	li	s7,48
    800014ca:	8722                	mv	a4,s0
    800014cc:	bdb5                	j	80001348 <vprintfmt+0x58>
    800014ce:	fd06899b          	addiw	s3,a3,-48
    800014d2:	00174683          	lbu	a3,1(a4)
    800014d6:	8722                	mv	a4,s0
    800014d8:	fd06879b          	addiw	a5,a3,-48
    800014dc:	0006881b          	sext.w	a6,a3
    800014e0:	faf56ce3          	bltu	a0,a5,80001498 <vprintfmt+0x1a8>
    800014e4:	0705                	addi	a4,a4,1
    800014e6:	0029979b          	slliw	a5,s3,0x2
    800014ea:	00074683          	lbu	a3,0(a4)
    800014ee:	013789bb          	addw	s3,a5,s3
    800014f2:	0019999b          	slliw	s3,s3,0x1
    800014f6:	010989bb          	addw	s3,s3,a6
    800014fa:	fd06879b          	addiw	a5,a3,-48
    800014fe:	fd09899b          	addiw	s3,s3,-48
    80001502:	0006881b          	sext.w	a6,a3
    80001506:	fcf57fe3          	bleu	a5,a0,800014e4 <vprintfmt+0x1f4>
    8000150a:	b779                	j	80001498 <vprintfmt+0x1a8>
    8000150c:	000b2503          	lw	a0,0(s6)
    80001510:	85a6                	mv	a1,s1
    80001512:	0b21                	addi	s6,s6,8
    80001514:	9902                	jalr	s2
    80001516:	bd01                	j	80001326 <vprintfmt+0x36>
    80001518:	4785                	li	a5,1
    8000151a:	008b0c93          	addi	s9,s6,8
    8000151e:	08b7d263          	ble	a1,a5,800015a2 <vprintfmt+0x2b2>
    80001522:	000b3983          	ld	s3,0(s6)
    80001526:	0a09da63          	bgez	s3,800015da <vprintfmt+0x2ea>
    8000152a:	85a6                	mv	a1,s1
    8000152c:	02d00513          	li	a0,45
    80001530:	9902                	jalr	s2
    80001532:	8b66                	mv	s6,s9
    80001534:	413007b3          	neg	a5,s3
    80001538:	4729                	li	a4,10
    8000153a:	bd91                	j	8000138e <vprintfmt+0x9e>
    8000153c:	00174683          	lbu	a3,1(a4)
    80001540:	2585                	addiw	a1,a1,1
    80001542:	8722                	mv	a4,s0
    80001544:	b511                	j	80001348 <vprintfmt+0x58>
    80001546:	85a6                	mv	a1,s1
    80001548:	02500513          	li	a0,37
    8000154c:	9902                	jalr	s2
    8000154e:	8466                	mv	s0,s9
    80001550:	bbd9                	j	80001326 <vprintfmt+0x36>
    80001552:	4785                	li	a5,1
    80001554:	4981                	li	s3,0
    80001556:	4c85                	li	s9,1
    80001558:	e787c2e3          	blt	a5,s8,800013bc <vprintfmt+0xcc>
    8000155c:	bdad                	j	800013d6 <vprintfmt+0xe6>
    8000155e:	41978c33          	sub	s8,a5,s9
    80001562:	41858c3b          	subw	s8,a1,s8
    80001566:	07804263          	bgtz	s8,800015ca <vprintfmt+0x2da>
    8000156a:	000cc503          	lbu	a0,0(s9)
    8000156e:	da050ce3          	beqz	a0,80001326 <vprintfmt+0x36>
    80001572:	5bfd                	li	s7,-1
    80001574:	0209d363          	bgez	s3,8000159a <vprintfmt+0x2aa>
    80001578:	85a6                	mv	a1,s1
    8000157a:	0c85                	addi	s9,s9,1
    8000157c:	9902                	jalr	s2
    8000157e:	000cc503          	lbu	a0,0(s9)
    80001582:	3c7d                	addiw	s8,s8,-1
    80001584:	f965                	bnez	a0,80001574 <vprintfmt+0x284>
    80001586:	db8050e3          	blez	s8,80001326 <vprintfmt+0x36>
    8000158a:	3c7d                	addiw	s8,s8,-1
    8000158c:	85a6                	mv	a1,s1
    8000158e:	02000513          	li	a0,32
    80001592:	9902                	jalr	s2
    80001594:	fe0c1be3          	bnez	s8,8000158a <vprintfmt+0x29a>
    80001598:	b379                	j	80001326 <vprintfmt+0x36>
    8000159a:	39fd                	addiw	s3,s3,-1
    8000159c:	fd799ee3          	bne	s3,s7,80001578 <vprintfmt+0x288>
    800015a0:	b7dd                	j	80001586 <vprintfmt+0x296>
    800015a2:	f1c1                	bnez	a1,80001522 <vprintfmt+0x232>
    800015a4:	000b2983          	lw	s3,0(s6)
    800015a8:	bfbd                	j	80001526 <vprintfmt+0x236>
    800015aa:	000cc503          	lbu	a0,0(s9)
    800015ae:	dd71                	beqz	a0,8000158a <vprintfmt+0x29a>
    800015b0:	5bfd                	li	s7,-1
    800015b2:	b7c9                	j	80001574 <vprintfmt+0x284>
    800015b4:	03805763          	blez	s8,800015e2 <vprintfmt+0x2f2>
    800015b8:	02d00793          	li	a5,45
    800015bc:	02fb8363          	beq	s7,a5,800015e2 <vprintfmt+0x2f2>
    800015c0:	00001c97          	auipc	s9,0x1
    800015c4:	220c8c93          	addi	s9,s9,544 # 800027e0 <main+0xd88>
    800015c8:	b5b5                	j	80001434 <vprintfmt+0x144>
    800015ca:	2b81                	sext.w	s7,s7
    800015cc:	3c7d                	addiw	s8,s8,-1
    800015ce:	85a6                	mv	a1,s1
    800015d0:	855e                	mv	a0,s7
    800015d2:	9902                	jalr	s2
    800015d4:	fe0c1ce3          	bnez	s8,800015cc <vprintfmt+0x2dc>
    800015d8:	bf49                	j	8000156a <vprintfmt+0x27a>
    800015da:	87ce                	mv	a5,s3
    800015dc:	8b66                	mv	s6,s9
    800015de:	4729                	li	a4,10
    800015e0:	b37d                	j	8000138e <vprintfmt+0x9e>
    800015e2:	00001c97          	auipc	s9,0x1
    800015e6:	1fec8c93          	addi	s9,s9,510 # 800027e0 <main+0xd88>
    800015ea:	02800513          	li	a0,40
    800015ee:	5bfd                	li	s7,-1
    800015f0:	b751                	j	80001574 <vprintfmt+0x284>
    800015f2:	41960c33          	sub	s8,a2,s9
    800015f6:	41858c3b          	subw	s8,a1,s8
    800015fa:	fd8048e3          	bgtz	s8,800015ca <vprintfmt+0x2da>
    800015fe:	b7b5                	j	8000156a <vprintfmt+0x27a>

0000000080001600 <sprintf_putch.2828>:
    80001600:	619c                	ld	a5,0(a1)
    80001602:	00a78023          	sb	a0,0(a5)
    80001606:	619c                	ld	a5,0(a1)
    80001608:	0785                	addi	a5,a5,1
    8000160a:	e19c                	sd	a5,0(a1)
    8000160c:	8082                	ret

000000008000160e <tohost_exit>:
    8000160e:	00151793          	slli	a5,a0,0x1
    80001612:	0017e793          	ori	a5,a5,1
    80001616:	00000717          	auipc	a4,0x0
    8000161a:	9ef73523          	sd	a5,-1558(a4) # 80001000 <tohost>
    8000161e:	a001                	j	8000161e <tohost_exit+0x10>

0000000080001620 <handle_trap>:
    80001620:	472d                	li	a4,11
    80001622:	00e50a63          	beq	a0,a4,80001636 <handle_trap+0x16>
    80001626:	6785                	lui	a5,0x1
    80001628:	a7378793          	addi	a5,a5,-1421 # a73 <_tbss_end+0xa2f>
    8000162c:	00000717          	auipc	a4,0x0
    80001630:	9cf73a23          	sd	a5,-1580(a4) # 80001000 <tohost>
    80001634:	a001                	j	80001634 <handle_trap+0x14>
    80001636:	6658                	ld	a4,136(a2)
    80001638:	7175                	addi	sp,sp,-144
    8000163a:	e506                	sd	ra,136(sp)
    8000163c:	05d00693          	li	a3,93
    80001640:	6a28                	ld	a0,80(a2)
    80001642:	04d70f63          	beq	a4,a3,800016a0 <handle_trap+0x80>
    80001646:	4d200693          	li	a3,1234
    8000164a:	06d71b63          	bne	a4,a3,800016c0 <handle_trap+0xa0>
    8000164e:	2501                	sext.w	a0,a0
    80001650:	b00027f3          	csrr	a5,mcycle
    80001654:	c921                	beqz	a0,800016a4 <handle_trap+0x84>
    80001656:	00004717          	auipc	a4,0x4
    8000165a:	b4f73923          	sd	a5,-1198(a4) # 800051a8 <counters>
    8000165e:	b02027f3          	csrr	a5,minstret
    80001662:	ed11                	bnez	a0,8000167e <handle_trap+0x5e>
    80001664:	00004717          	auipc	a4,0x4
    80001668:	b4c73703          	ld	a4,-1204(a4) # 800051b0 <counters+0x8>
    8000166c:	8f99                	sub	a5,a5,a4
    8000166e:	00001717          	auipc	a4,0x1
    80001672:	18270713          	addi	a4,a4,386 # 800027f0 <main+0xd98>
    80001676:	00004697          	auipc	a3,0x4
    8000167a:	b4e6b523          	sd	a4,-1206(a3) # 800051c0 <counter_names+0x8>
    8000167e:	00004717          	auipc	a4,0x4
    80001682:	b2f73923          	sd	a5,-1230(a4) # 800051b0 <counters+0x8>
    80001686:	04063823          	sd	zero,80(a2)
    8000168a:	0005d783          	lhu	a5,0(a1)
    8000168e:	470d                	li	a4,3
    80001690:	4509                	li	a0,2
    80001692:	8b8d                	andi	a5,a5,3
    80001694:	06e78463          	beq	a5,a4,800016fc <handle_trap+0xdc>
    80001698:	60aa                	ld	ra,136(sp)
    8000169a:	952e                	add	a0,a0,a1
    8000169c:	6149                	addi	sp,sp,144
    8000169e:	8082                	ret
    800016a0:	f6fff0ef          	jal	ra,8000160e <tohost_exit>
    800016a4:	00004717          	auipc	a4,0x4
    800016a8:	b0473703          	ld	a4,-1276(a4) # 800051a8 <counters>
    800016ac:	8f99                	sub	a5,a5,a4
    800016ae:	00001717          	auipc	a4,0x1
    800016b2:	13a70713          	addi	a4,a4,314 # 800027e8 <main+0xd90>
    800016b6:	00004697          	auipc	a3,0x4
    800016ba:	b0e6b123          	sd	a4,-1278(a3) # 800051b8 <counter_names>
    800016be:	bf61                	j	80001656 <handle_trap+0x36>
    800016c0:	03f10793          	addi	a5,sp,63
    800016c4:	fc07f793          	andi	a5,a5,-64
    800016c8:	6e34                	ld	a3,88(a2)
    800016ca:	e398                	sd	a4,0(a5)
    800016cc:	7238                	ld	a4,96(a2)
    800016ce:	e788                	sd	a0,8(a5)
    800016d0:	eb94                	sd	a3,16(a5)
    800016d2:	ef98                	sd	a4,24(a5)
    800016d4:	0330000f          	fence	rw,rw
    800016d8:	00000717          	auipc	a4,0x0
    800016dc:	92f73423          	sd	a5,-1752(a4) # 80001000 <tohost>
    800016e0:	00000717          	auipc	a4,0x0
    800016e4:	96073703          	ld	a4,-1696(a4) # 80001040 <fromhost>
    800016e8:	df65                	beqz	a4,800016e0 <handle_trap+0xc0>
    800016ea:	00000717          	auipc	a4,0x0
    800016ee:	94073b23          	sd	zero,-1706(a4) # 80001040 <fromhost>
    800016f2:	0330000f          	fence	rw,rw
    800016f6:	639c                	ld	a5,0(a5)
    800016f8:	ea3c                	sd	a5,80(a2)
    800016fa:	bf41                	j	8000168a <handle_trap+0x6a>
    800016fc:	4511                	li	a0,4
    800016fe:	bf69                	j	80001698 <handle_trap+0x78>

0000000080001700 <exit>:
    80001700:	05d00893          	li	a7,93
    80001704:	4581                	li	a1,0
    80001706:	4601                	li	a2,0
    80001708:	00000073          	ecall
    8000170c:	a001                	j	8000170c <exit+0xc>

000000008000170e <setStats>:
    8000170e:	4d200893          	li	a7,1234
    80001712:	4581                	li	a1,0
    80001714:	4601                	li	a2,0
    80001716:	00000073          	ecall
    8000171a:	8082                	ret

000000008000171c <printstr>:
    8000171c:	00054783          	lbu	a5,0(a0)
    80001720:	85aa                	mv	a1,a0
    80001722:	862a                	mv	a2,a0
    80001724:	cf81                	beqz	a5,8000173c <printstr+0x20>
    80001726:	0605                	addi	a2,a2,1
    80001728:	00064783          	lbu	a5,0(a2)
    8000172c:	ffed                	bnez	a5,80001726 <printstr+0xa>
    8000172e:	8e0d                	sub	a2,a2,a1
    80001730:	04000893          	li	a7,64
    80001734:	4505                	li	a0,1
    80001736:	00000073          	ecall
    8000173a:	8082                	ret
    8000173c:	4601                	li	a2,0
    8000173e:	04000893          	li	a7,64
    80001742:	4505                	li	a0,1
    80001744:	00000073          	ecall
    80001748:	8082                	ret

000000008000174a <thread_entry>:
    8000174a:	c111                	beqz	a0,8000174e <thread_entry+0x4>
    8000174c:	a001                	j	8000174c <thread_entry+0x2>
    8000174e:	8082                	ret

0000000080001750 <printhex>:
    80001750:	1101                	addi	sp,sp,-32
    80001752:	01710713          	addi	a4,sp,23
    80001756:	00710813          	addi	a6,sp,7
    8000175a:	45a5                	li	a1,9
    8000175c:	00f57793          	andi	a5,a0,15
    80001760:	05700613          	li	a2,87
    80001764:	0ff7f693          	andi	a3,a5,255
    80001768:	00f5e463          	bltu	a1,a5,80001770 <printhex+0x20>
    8000176c:	03000613          	li	a2,48
    80001770:	00c687bb          	addw	a5,a3,a2
    80001774:	00f70023          	sb	a5,0(a4)
    80001778:	177d                	addi	a4,a4,-1
    8000177a:	8111                	srli	a0,a0,0x4
    8000177c:	fee810e3          	bne	a6,a4,8000175c <printhex+0xc>
    80001780:	00814783          	lbu	a5,8(sp)
    80001784:	00010c23          	sb	zero,24(sp)
    80001788:	002c                	addi	a1,sp,8
    8000178a:	cf91                	beqz	a5,800017a6 <printhex+0x56>
    8000178c:	862e                	mv	a2,a1
    8000178e:	0605                	addi	a2,a2,1
    80001790:	00064783          	lbu	a5,0(a2)
    80001794:	ffed                	bnez	a5,8000178e <printhex+0x3e>
    80001796:	8e0d                	sub	a2,a2,a1
    80001798:	04000893          	li	a7,64
    8000179c:	4505                	li	a0,1
    8000179e:	00000073          	ecall
    800017a2:	6105                	addi	sp,sp,32
    800017a4:	8082                	ret
    800017a6:	4601                	li	a2,0
    800017a8:	04000893          	li	a7,64
    800017ac:	4505                	li	a0,1
    800017ae:	00000073          	ecall
    800017b2:	6105                	addi	sp,sp,32
    800017b4:	8082                	ret

00000000800017b6 <printf>:
    800017b6:	711d                	addi	sp,sp,-96
    800017b8:	02810313          	addi	t1,sp,40
    800017bc:	f42e                	sd	a1,40(sp)
    800017be:	f832                	sd	a2,48(sp)
    800017c0:	fc36                	sd	a3,56(sp)
    800017c2:	862a                	mv	a2,a0
    800017c4:	869a                	mv	a3,t1
    800017c6:	00000517          	auipc	a0,0x0
    800017ca:	aec50513          	addi	a0,a0,-1300 # 800012b2 <putchar>
    800017ce:	4581                	li	a1,0
    800017d0:	ec06                	sd	ra,24(sp)
    800017d2:	e0ba                	sd	a4,64(sp)
    800017d4:	e4be                	sd	a5,72(sp)
    800017d6:	e8c2                	sd	a6,80(sp)
    800017d8:	ecc6                	sd	a7,88(sp)
    800017da:	e41a                	sd	t1,8(sp)
    800017dc:	b15ff0ef          	jal	ra,800012f0 <vprintfmt>
    800017e0:	60e2                	ld	ra,24(sp)
    800017e2:	4501                	li	a0,0
    800017e4:	6125                	addi	sp,sp,96
    800017e6:	8082                	ret

00000000800017e8 <sprintf>:
    800017e8:	711d                	addi	sp,sp,-96
    800017ea:	03010313          	addi	t1,sp,48
    800017ee:	f022                	sd	s0,32(sp)
    800017f0:	e42a                	sd	a0,8(sp)
    800017f2:	f832                	sd	a2,48(sp)
    800017f4:	fc36                	sd	a3,56(sp)
    800017f6:	842a                	mv	s0,a0
    800017f8:	862e                	mv	a2,a1
    800017fa:	00000517          	auipc	a0,0x0
    800017fe:	e0650513          	addi	a0,a0,-506 # 80001600 <sprintf_putch.2828>
    80001802:	002c                	addi	a1,sp,8
    80001804:	869a                	mv	a3,t1
    80001806:	f406                	sd	ra,40(sp)
    80001808:	e4be                	sd	a5,72(sp)
    8000180a:	e0ba                	sd	a4,64(sp)
    8000180c:	e8c2                	sd	a6,80(sp)
    8000180e:	ecc6                	sd	a7,88(sp)
    80001810:	ec1a                	sd	t1,24(sp)
    80001812:	adfff0ef          	jal	ra,800012f0 <vprintfmt>
    80001816:	67a2                	ld	a5,8(sp)
    80001818:	00078023          	sb	zero,0(a5)
    8000181c:	6522                	ld	a0,8(sp)
    8000181e:	70a2                	ld	ra,40(sp)
    80001820:	9d01                	subw	a0,a0,s0
    80001822:	7402                	ld	s0,32(sp)
    80001824:	6125                	addi	sp,sp,96
    80001826:	8082                	ret

0000000080001828 <memcpy>:
    80001828:	00c5e7b3          	or	a5,a1,a2
    8000182c:	8fc9                	or	a5,a5,a0
    8000182e:	8b9d                	andi	a5,a5,7
    80001830:	00c506b3          	add	a3,a0,a2
    80001834:	cf91                	beqz	a5,80001850 <memcpy+0x28>
    80001836:	962e                	add	a2,a2,a1
    80001838:	87aa                	mv	a5,a0
    8000183a:	02d57763          	bleu	a3,a0,80001868 <memcpy+0x40>
    8000183e:	0585                	addi	a1,a1,1
    80001840:	fff5c703          	lbu	a4,-1(a1)
    80001844:	0785                	addi	a5,a5,1
    80001846:	fee78fa3          	sb	a4,-1(a5)
    8000184a:	feb61ae3          	bne	a2,a1,8000183e <memcpy+0x16>
    8000184e:	8082                	ret
    80001850:	fed57fe3          	bleu	a3,a0,8000184e <memcpy+0x26>
    80001854:	87aa                	mv	a5,a0
    80001856:	05a1                	addi	a1,a1,8
    80001858:	ff85b703          	ld	a4,-8(a1)
    8000185c:	07a1                	addi	a5,a5,8
    8000185e:	fee7bc23          	sd	a4,-8(a5)
    80001862:	fed7eae3          	bltu	a5,a3,80001856 <memcpy+0x2e>
    80001866:	8082                	ret
    80001868:	8082                	ret

000000008000186a <memset>:
    8000186a:	00c567b3          	or	a5,a0,a2
    8000186e:	8b9d                	andi	a5,a5,7
    80001870:	962a                	add	a2,a2,a0
    80001872:	0ff5f593          	andi	a1,a1,255
    80001876:	cb91                	beqz	a5,8000188a <memset+0x20>
    80001878:	87aa                	mv	a5,a0
    8000187a:	02c57a63          	bleu	a2,a0,800018ae <memset+0x44>
    8000187e:	0785                	addi	a5,a5,1
    80001880:	feb78fa3          	sb	a1,-1(a5)
    80001884:	fef61de3          	bne	a2,a5,8000187e <memset+0x14>
    80001888:	8082                	ret
    8000188a:	00859793          	slli	a5,a1,0x8
    8000188e:	8fcd                	or	a5,a5,a1
    80001890:	01079593          	slli	a1,a5,0x10
    80001894:	8fcd                	or	a5,a5,a1
    80001896:	02079713          	slli	a4,a5,0x20
    8000189a:	8fd9                	or	a5,a5,a4
    8000189c:	fec576e3          	bleu	a2,a0,80001888 <memset+0x1e>
    800018a0:	872a                	mv	a4,a0
    800018a2:	0721                	addi	a4,a4,8
    800018a4:	fef73c23          	sd	a5,-8(a4)
    800018a8:	fec76de3          	bltu	a4,a2,800018a2 <memset+0x38>
    800018ac:	8082                	ret
    800018ae:	8082                	ret

00000000800018b0 <_init>:
    800018b0:	7131                	addi	sp,sp,-192
    800018b2:	f922                	sd	s0,176(sp)
    800018b4:	f14a                	sd	s2,160(sp)
    800018b6:	00020913          	mv	s2,tp
    800018ba:	00020413          	mv	s0,tp
    800018be:	40890433          	sub	s0,s2,s0
    800018c2:	ed4e                	sd	s3,152(sp)
    800018c4:	e952                	sd	s4,144(sp)
    800018c6:	89aa                	mv	s3,a0
    800018c8:	8a2e                	mv	s4,a1
    800018ca:	8512                	mv	a0,tp
    800018cc:	8622                	mv	a2,s0
    800018ce:	00004597          	auipc	a1,0x4
    800018d2:	93258593          	addi	a1,a1,-1742 # 80005200 <_end>
    800018d6:	fd06                	sd	ra,184(sp)
    800018d8:	f526                	sd	s1,168(sp)
    800018da:	e556                	sd	s5,136(sp)
    800018dc:	8a92                	mv	s5,tp
    800018de:	f4bff0ef          	jal	ra,80001828 <memcpy>
    800018e2:	04420613          	addi	a2,tp,68 # 44 <_tbss_end>
    800018e6:	41260633          	sub	a2,a2,s2
    800018ea:	4581                	li	a1,0
    800018ec:	008a8533          	add	a0,s5,s0
    800018f0:	f7bff0ef          	jal	ra,8000186a <memset>
    800018f4:	85d2                	mv	a1,s4
    800018f6:	854e                	mv	a0,s3
    800018f8:	e53ff0ef          	jal	ra,8000174a <thread_entry>
    800018fc:	4581                	li	a1,0
    800018fe:	4501                	li	a0,0
    80001900:	158000ef          	jal	ra,80001a58 <main>
    80001904:	03f10493          	addi	s1,sp,63
    80001908:	00004697          	auipc	a3,0x4
    8000190c:	8a06b683          	ld	a3,-1888(a3) # 800051a8 <counters>
    80001910:	fc04f493          	andi	s1,s1,-64
    80001914:	892a                	mv	s2,a0
    80001916:	e6b9                	bnez	a3,80001964 <_init+0xb4>
    80001918:	00004697          	auipc	a3,0x4
    8000191c:	8986b683          	ld	a3,-1896(a3) # 800051b0 <counters+0x8>
    80001920:	8426                	mv	s0,s1
    80001922:	ce95                	beqz	a3,8000195e <_init+0xae>
    80001924:	8522                	mv	a0,s0
    80001926:	00004617          	auipc	a2,0x4
    8000192a:	89a63603          	ld	a2,-1894(a2) # 800051c0 <counter_names+0x8>
    8000192e:	00001597          	auipc	a1,0x1
    80001932:	eea58593          	addi	a1,a1,-278 # 80002818 <main+0xdc0>
    80001936:	eb3ff0ef          	jal	ra,800017e8 <sprintf>
    8000193a:	942a                	add	s0,s0,a0
    8000193c:	02848163          	beq	s1,s0,8000195e <_init+0xae>
    80001940:	0004c783          	lbu	a5,0(s1)
    80001944:	8626                	mv	a2,s1
    80001946:	c789                	beqz	a5,80001950 <_init+0xa0>
    80001948:	0605                	addi	a2,a2,1
    8000194a:	00064783          	lbu	a5,0(a2)
    8000194e:	ffed                	bnez	a5,80001948 <_init+0x98>
    80001950:	04000893          	li	a7,64
    80001954:	4505                	li	a0,1
    80001956:	85a6                	mv	a1,s1
    80001958:	8e05                	sub	a2,a2,s1
    8000195a:	00000073          	ecall
    8000195e:	854a                	mv	a0,s2
    80001960:	da1ff0ef          	jal	ra,80001700 <exit>
    80001964:	00004617          	auipc	a2,0x4
    80001968:	85463603          	ld	a2,-1964(a2) # 800051b8 <counter_names>
    8000196c:	00001597          	auipc	a1,0x1
    80001970:	eac58593          	addi	a1,a1,-340 # 80002818 <main+0xdc0>
    80001974:	8526                	mv	a0,s1
    80001976:	e73ff0ef          	jal	ra,800017e8 <sprintf>
    8000197a:	00004697          	auipc	a3,0x4
    8000197e:	8366b683          	ld	a3,-1994(a3) # 800051b0 <counters+0x8>
    80001982:	00a48433          	add	s0,s1,a0
    80001986:	dadd                	beqz	a3,8000193c <_init+0x8c>
    80001988:	bf71                	j	80001924 <_init+0x74>

000000008000198a <strlen>:
    8000198a:	00054783          	lbu	a5,0(a0)
    8000198e:	872a                	mv	a4,a0
    80001990:	c799                	beqz	a5,8000199e <strlen+0x14>
    80001992:	0505                	addi	a0,a0,1
    80001994:	00054783          	lbu	a5,0(a0)
    80001998:	ffed                	bnez	a5,80001992 <strlen+0x8>
    8000199a:	8d19                	sub	a0,a0,a4
    8000199c:	8082                	ret
    8000199e:	4501                	li	a0,0
    800019a0:	8082                	ret

00000000800019a2 <strnlen>:
    800019a2:	872a                	mv	a4,a0
    800019a4:	cd91                	beqz	a1,800019c0 <strnlen+0x1e>
    800019a6:	00054783          	lbu	a5,0(a0)
    800019aa:	cb99                	beqz	a5,800019c0 <strnlen+0x1e>
    800019ac:	95aa                	add	a1,a1,a0
    800019ae:	a021                	j	800019b6 <strnlen+0x14>
    800019b0:	00054783          	lbu	a5,0(a0)
    800019b4:	c781                	beqz	a5,800019bc <strnlen+0x1a>
    800019b6:	0505                	addi	a0,a0,1
    800019b8:	feb51ce3          	bne	a0,a1,800019b0 <strnlen+0xe>
    800019bc:	8d19                	sub	a0,a0,a4
    800019be:	8082                	ret
    800019c0:	4501                	li	a0,0
    800019c2:	8082                	ret

00000000800019c4 <strcmp>:
    800019c4:	0505                	addi	a0,a0,1
    800019c6:	fff54783          	lbu	a5,-1(a0)
    800019ca:	0585                	addi	a1,a1,1
    800019cc:	fff5c703          	lbu	a4,-1(a1)
    800019d0:	c799                	beqz	a5,800019de <strcmp+0x1a>
    800019d2:	fee789e3          	beq	a5,a4,800019c4 <strcmp>
    800019d6:	0007851b          	sext.w	a0,a5
    800019da:	9d19                	subw	a0,a0,a4
    800019dc:	8082                	ret
    800019de:	4501                	li	a0,0
    800019e0:	bfed                	j	800019da <strcmp+0x16>

00000000800019e2 <strcpy>:
    800019e2:	87aa                	mv	a5,a0
    800019e4:	0585                	addi	a1,a1,1
    800019e6:	fff5c703          	lbu	a4,-1(a1)
    800019ea:	0785                	addi	a5,a5,1
    800019ec:	fee78fa3          	sb	a4,-1(a5)
    800019f0:	fb75                	bnez	a4,800019e4 <strcpy+0x2>
    800019f2:	8082                	ret

00000000800019f4 <atol>:
    800019f4:	00054783          	lbu	a5,0(a0)
    800019f8:	02000713          	li	a4,32
    800019fc:	00e79763          	bne	a5,a4,80001a0a <atol+0x16>
    80001a00:	0505                	addi	a0,a0,1
    80001a02:	00054783          	lbu	a5,0(a0)
    80001a06:	fee78de3          	beq	a5,a4,80001a00 <atol+0xc>
    80001a0a:	fd57871b          	addiw	a4,a5,-43
    80001a0e:	0fd77713          	andi	a4,a4,253
    80001a12:	c715                	beqz	a4,80001a3e <atol+0x4a>
    80001a14:	00054683          	lbu	a3,0(a0)
    80001a18:	87aa                	mv	a5,a0
    80001a1a:	4601                	li	a2,0
    80001a1c:	ce85                	beqz	a3,80001a54 <atol+0x60>
    80001a1e:	4501                	li	a0,0
    80001a20:	0785                	addi	a5,a5,1
    80001a22:	fd06859b          	addiw	a1,a3,-48
    80001a26:	00251713          	slli	a4,a0,0x2
    80001a2a:	0007c683          	lbu	a3,0(a5)
    80001a2e:	953a                	add	a0,a0,a4
    80001a30:	0506                	slli	a0,a0,0x1
    80001a32:	952e                	add	a0,a0,a1
    80001a34:	f6f5                	bnez	a3,80001a20 <atol+0x2c>
    80001a36:	c219                	beqz	a2,80001a3c <atol+0x48>
    80001a38:	40a00533          	neg	a0,a0
    80001a3c:	8082                	ret
    80001a3e:	00154683          	lbu	a3,1(a0)
    80001a42:	fd378793          	addi	a5,a5,-45
    80001a46:	0017b613          	seqz	a2,a5
    80001a4a:	00150793          	addi	a5,a0,1
    80001a4e:	fae1                	bnez	a3,80001a1e <atol+0x2a>
    80001a50:	4501                	li	a0,0
    80001a52:	b7d5                	j	80001a36 <atol+0x42>
    80001a54:	4501                	li	a0,0
    80001a56:	8082                	ret

Disassembly of section .text.startup:

0000000080001a58 <main>:
    80001a58:	7115                	addi	sp,sp,-224
    80001a5a:	ed86                	sd	ra,216(sp)
    80001a5c:	e9a2                	sd	s0,208(sp)
    80001a5e:	e5a6                	sd	s1,200(sp)
    80001a60:	1180                	addi	s0,sp,224
    80001a62:	e1ca                	sd	s2,192(sp)
    80001a64:	fd4e                	sd	s3,184(sp)
    80001a66:	f952                	sd	s4,176(sp)
    80001a68:	f556                	sd	s5,168(sp)
    80001a6a:	f15a                	sd	s6,160(sp)
    80001a6c:	ed5e                	sd	s7,152(sp)
    80001a6e:	e962                	sd	s8,144(sp)
    80001a70:	e566                	sd	s9,136(sp)
    80001a72:	e16a                	sd	s10,128(sp)
    80001a74:	fcee                	sd	s11,120(sp)
    80001a76:	715d                	addi	sp,sp,-80
    80001a78:	870a                	mv	a4,sp
    80001a7a:	715d                	addi	sp,sp,-80
    80001a7c:	00001697          	auipc	a3,0x1
    80001a80:	f4e6b223          	sd	a4,-188(a3) # 800029c0 <Next_Ptr_Glob>
    80001a84:	e03a                	sd	a4,0(sp)
    80001a86:	4709                	li	a4,2
    80001a88:	467d                	li	a2,31
    80001a8a:	00000597          	auipc	a1,0x0
    80001a8e:	73658593          	addi	a1,a1,1846 # 800021c0 <main+0x768>
    80001a92:	c63a                	sw	a4,12(sp)
    80001a94:	0848                	addi	a0,sp,20
    80001a96:	02800713          	li	a4,40
    80001a9a:	c83a                	sw	a4,16(sp)
    80001a9c:	00001697          	auipc	a3,0x1
    80001aa0:	f226b623          	sd	sp,-212(a3) # 800029c8 <Ptr_Glob>
    80001aa4:	c402                	sw	zero,8(sp)
    80001aa6:	d83ff0ef          	jal	ra,80001828 <memcpy>
    80001aaa:	00001797          	auipc	a5,0x1
    80001aae:	cd67b783          	ld	a5,-810(a5) # 80002780 <main+0xd28>
    80001ab2:	f4f43823          	sd	a5,-176(s0)
    80001ab6:	00001797          	auipc	a5,0x1
    80001aba:	cd27b783          	ld	a5,-814(a5) # 80002788 <main+0xd30>
    80001abe:	f4f43c23          	sd	a5,-168(s0)
    80001ac2:	00001797          	auipc	a5,0x1
    80001ac6:	cce7b783          	ld	a5,-818(a5) # 80002790 <main+0xd38>
    80001aca:	f6f43023          	sd	a5,-160(s0)
    80001ace:	00001797          	auipc	a5,0x1
    80001ad2:	cca7a783          	lw	a5,-822(a5) # 80002798 <main+0xd40>
    80001ad6:	f6f42423          	sw	a5,-152(s0)
    80001ada:	00001797          	auipc	a5,0x1
    80001ade:	cc279783          	lh	a5,-830(a5) # 8000279c <main+0xd44>
    80001ae2:	f6f41623          	sh	a5,-148(s0)
    80001ae6:	00001797          	auipc	a5,0x1
    80001aea:	cb878783          	lb	a5,-840(a5) # 8000279e <main+0xd46>
    80001aee:	00001517          	auipc	a0,0x1
    80001af2:	97250513          	addi	a0,a0,-1678 # 80002460 <main+0xa08>
    80001af6:	f6f40723          	sb	a5,-146(s0)
    80001afa:	47a9                	li	a5,10
    80001afc:	00001717          	auipc	a4,0x1
    80001b00:	5ef72c23          	sw	a5,1528(a4) # 800030f4 <Arr_2_Glob+0x65c>
    80001b04:	f9aff0ef          	jal	ra,8000129e <debug_printf>
    80001b08:	00000597          	auipc	a1,0x0
    80001b0c:	6d858593          	addi	a1,a1,1752 # 800021e0 <main+0x788>
    80001b10:	00000517          	auipc	a0,0x0
    80001b14:	6e050513          	addi	a0,a0,1760 # 800021f0 <main+0x798>
    80001b18:	f86ff0ef          	jal	ra,8000129e <debug_printf>
    80001b1c:	00001797          	auipc	a5,0x1
    80001b20:	e907a783          	lw	a5,-368(a5) # 800029ac <Reg>
    80001b24:	2781                	sext.w	a5,a5
    80001b26:	64078d63          	beqz	a5,80002180 <main+0x728>
    80001b2a:	00000517          	auipc	a0,0x0
    80001b2e:	6ee50513          	addi	a0,a0,1774 # 80002218 <main+0x7c0>
    80001b32:	f6cff0ef          	jal	ra,8000129e <debug_printf>
    80001b36:	000f4637          	lui	a2,0xf4
    80001b3a:	24060613          	addi	a2,a2,576 # f4240 <_tbss_end+0xf41fc>
    80001b3e:	00000597          	auipc	a1,0x0
    80001b42:	73a58593          	addi	a1,a1,1850 # 80002278 <main+0x820>
    80001b46:	00000517          	auipc	a0,0x0
    80001b4a:	74250513          	addi	a0,a0,1858 # 80002288 <main+0x830>
    80001b4e:	f50ff0ef          	jal	ra,8000129e <debug_printf>
    80001b52:	00001517          	auipc	a0,0x1
    80001b56:	90e50513          	addi	a0,a0,-1778 # 80002460 <main+0xa08>
    80001b5a:	f44ff0ef          	jal	ra,8000129e <debug_printf>
    80001b5e:	1f400793          	li	a5,500
    80001b62:	f2f43023          	sd	a5,-224(s0)
    80001b66:	00001797          	auipc	a5,0x1
    80001b6a:	e407a123          	sw	zero,-446(a5) # 800029a8 <Done>
    80001b6e:	00001797          	auipc	a5,0x1
    80001b72:	c3a7b783          	ld	a5,-966(a5) # 800027a8 <main+0xd50>
    80001b76:	f2f43c23          	sd	a5,-200(s0)
    80001b7a:	00001797          	auipc	a5,0x1
    80001b7e:	c367b783          	ld	a5,-970(a5) # 800027b0 <main+0xd58>
    80001b82:	f2f43823          	sd	a5,-208(s0)
    80001b86:	00001797          	auipc	a5,0x1
    80001b8a:	c327a783          	lw	a5,-974(a5) # 800027b8 <main+0xd60>
    80001b8e:	f2f42623          	sw	a5,-212(s0)
    80001b92:	00001797          	auipc	a5,0x1
    80001b96:	c2a79783          	lh	a5,-982(a5) # 800027bc <main+0xd64>
    80001b9a:	f2f41523          	sh	a5,-214(s0)
    80001b9e:	00001797          	auipc	a5,0x1
    80001ba2:	c2078783          	lb	a5,-992(a5) # 800027be <main+0xd66>
    80001ba6:	00001d97          	auipc	s11,0x1
    80001baa:	bfadbd83          	ld	s11,-1030(s11) # 800027a0 <main+0xd48>
    80001bae:	f2f404a3          	sb	a5,-215(s0)
    80001bb2:	00001c17          	auipc	s8,0x1
    80001bb6:	c0ec3c03          	ld	s8,-1010(s8) # 800027c0 <main+0xd68>
    80001bba:	00001b97          	auipc	s7,0x1
    80001bbe:	c0ebbb83          	ld	s7,-1010(s7) # 800027c8 <main+0xd70>
    80001bc2:	00001b17          	auipc	s6,0x1
    80001bc6:	c0eb3b03          	ld	s6,-1010(s6) # 800027d0 <main+0xd78>
    80001bca:	f2043903          	ld	s2,-224(s0)
    80001bce:	00000517          	auipc	a0,0x0
    80001bd2:	6d250513          	addi	a0,a0,1746 # 800022a0 <main+0x848>
    80001bd6:	85ca                	mv	a1,s2
    80001bd8:	ec6ff0ef          	jal	ra,8000129e <debug_printf>
    80001bdc:	4505                	li	a0,1
    80001bde:	b31ff0ef          	jal	ra,8000170e <setStats>
    80001be2:	b00027f3          	csrr	a5,mcycle
    80001be6:	4485                	li	s1,1
    80001be8:	00001717          	auipc	a4,0x1
    80001bec:	daf73c23          	sd	a5,-584(a4) # 800029a0 <Begin_Time>
    80001bf0:	00190c9b          	addiw	s9,s2,1
    80001bf4:	00001a97          	auipc	s5,0x1
    80001bf8:	be4aaa83          	lw	s5,-1052(s5) # 800027d8 <main+0xd80>
    80001bfc:	d5eff0ef          	jal	ra,8000115a <Proc_5>
    80001c00:	d2eff0ef          	jal	ra,8000112e <Proc_4>
    80001c04:	4789                	li	a5,2
    80001c06:	f4f42223          	sw	a5,-188(s0)
    80001c0a:	f3843783          	ld	a5,-200(s0)
    80001c0e:	f7040593          	addi	a1,s0,-144
    80001c12:	f5040513          	addi	a0,s0,-176
    80001c16:	f6f43c23          	sd	a5,-136(s0)
    80001c1a:	f3043783          	ld	a5,-208(s0)
    80001c1e:	f7b43823          	sd	s11,-144(s0)
    80001c22:	f8f43023          	sd	a5,-128(s0)
    80001c26:	f2c42783          	lw	a5,-212(s0)
    80001c2a:	f8f42423          	sw	a5,-120(s0)
    80001c2e:	f2a45783          	lhu	a5,-214(s0)
    80001c32:	f8f41623          	sh	a5,-116(s0)
    80001c36:	f2944783          	lbu	a5,-215(s0)
    80001c3a:	f8f40723          	sb	a5,-114(s0)
    80001c3e:	4785                	li	a5,1
    80001c40:	f4f42623          	sw	a5,-180(s0)
    80001c44:	d9aff0ef          	jal	ra,800011de <Func_2>
    80001c48:	00153513          	seqz	a0,a0
    80001c4c:	f4442603          	lw	a2,-188(s0)
    80001c50:	00001797          	auipc	a5,0x1
    80001c54:	d6a7a223          	sw	a0,-668(a5) # 800029b4 <Bool_Glob>
    80001c58:	4789                	li	a5,2
    80001c5a:	02c7c763          	blt	a5,a2,80001c88 <main+0x230>
    80001c5e:	4909                	li	s2,2
    80001c60:	0026179b          	slliw	a5,a2,0x2
    80001c64:	9fb1                	addw	a5,a5,a2
    80001c66:	37f5                	addiw	a5,a5,-3
    80001c68:	8532                	mv	a0,a2
    80001c6a:	458d                	li	a1,3
    80001c6c:	f4840613          	addi	a2,s0,-184
    80001c70:	f4f42423          	sw	a5,-184(s0)
    80001c74:	cfcff0ef          	jal	ra,80001170 <Proc_7>
    80001c78:	f4442783          	lw	a5,-188(s0)
    80001c7c:	0017861b          	addiw	a2,a5,1
    80001c80:	f4c42223          	sw	a2,-188(s0)
    80001c84:	fcc95ee3          	ble	a2,s2,80001c60 <main+0x208>
    80001c88:	f4842683          	lw	a3,-184(s0)
    80001c8c:	00001597          	auipc	a1,0x1
    80001c90:	e0c58593          	addi	a1,a1,-500 # 80002a98 <Arr_2_Glob>
    80001c94:	00001517          	auipc	a0,0x1
    80001c98:	d3c50513          	addi	a0,a0,-708 # 800029d0 <Arr_1_Glob>
    80001c9c:	cdcff0ef          	jal	ra,80001178 <Proc_8>
    80001ca0:	00001517          	auipc	a0,0x1
    80001ca4:	d2853503          	ld	a0,-728(a0) # 800029c8 <Ptr_Glob>
    80001ca8:	becff0ef          	jal	ra,80001094 <Proc_1>
    80001cac:	00001717          	auipc	a4,0x1
    80001cb0:	d0474703          	lbu	a4,-764(a4) # 800029b0 <Ch_2_Glob>
    80001cb4:	04000793          	li	a5,64
    80001cb8:	48e7f563          	bleu	a4,a5,80002142 <main+0x6ea>
    80001cbc:	04100d13          	li	s10,65
    80001cc0:	490d                	li	s2,3
    80001cc2:	00001a17          	auipc	s4,0x1
    80001cc6:	b1aa1a03          	lh	s4,-1254(s4) # 800027dc <main+0xd84>
    80001cca:	00001997          	auipc	s3,0x1
    80001cce:	b1498983          	lb	s3,-1260(s3) # 800027de <main+0xd86>
    80001cd2:	a819                	j	80001ce8 <main+0x290>
    80001cd4:	001d079b          	addiw	a5,s10,1
    80001cd8:	0ff7fd13          	andi	s10,a5,255
    80001cdc:	00001717          	auipc	a4,0x1
    80001ce0:	cd474703          	lbu	a4,-812(a4) # 800029b0 <Ch_2_Glob>
    80001ce4:	05a76c63          	bltu	a4,s10,80001d3c <main+0x2e4>
    80001ce8:	04300593          	li	a1,67
    80001cec:	856a                	mv	a0,s10
    80001cee:	cd4ff0ef          	jal	ra,800011c2 <Func_1>
    80001cf2:	f4c42703          	lw	a4,-180(s0)
    80001cf6:	2501                	sext.w	a0,a0
    80001cf8:	fca71ee3          	bne	a4,a0,80001cd4 <main+0x27c>
    80001cfc:	f4c40593          	addi	a1,s0,-180
    80001d00:	4501                	li	a0,0
    80001d02:	d26ff0ef          	jal	ra,80001228 <Proc_6>
    80001d06:	00001797          	auipc	a5,0x1
    80001d0a:	ca97a923          	sw	s1,-846(a5) # 800029b8 <Int_Glob>
    80001d0e:	001d079b          	addiw	a5,s10,1
    80001d12:	f7843823          	sd	s8,-144(s0)
    80001d16:	f7743c23          	sd	s7,-136(s0)
    80001d1a:	f9643023          	sd	s6,-128(s0)
    80001d1e:	f9542423          	sw	s5,-120(s0)
    80001d22:	f9441623          	sh	s4,-116(s0)
    80001d26:	f9340723          	sb	s3,-114(s0)
    80001d2a:	0ff7fd13          	andi	s10,a5,255
    80001d2e:	00001717          	auipc	a4,0x1
    80001d32:	c8274703          	lbu	a4,-894(a4) # 800029b0 <Ch_2_Glob>
    80001d36:	8926                	mv	s2,s1
    80001d38:	fba778e3          	bleu	s10,a4,80001ce8 <main+0x290>
    80001d3c:	f4442a03          	lw	s4,-188(s0)
    80001d40:	f4842983          	lw	s3,-184(s0)
    80001d44:	2485                	addiw	s1,s1,1
    80001d46:	032a0a3b          	mulw	s4,s4,s2
    80001d4a:	f4440513          	addi	a0,s0,-188
    80001d4e:	033a47bb          	divw	a5,s4,s3
    80001d52:	0007891b          	sext.w	s2,a5
    80001d56:	f4f42223          	sw	a5,-188(s0)
    80001d5a:	aeeff0ef          	jal	ra,80001048 <Proc_2>
    80001d5e:	e9949fe3          	bne	s1,s9,80001bfc <main+0x1a4>
    80001d62:	b00027f3          	csrr	a5,mcycle
    80001d66:	4501                	li	a0,0
    80001d68:	00001717          	auipc	a4,0x1
    80001d6c:	c2f73823          	sd	a5,-976(a4) # 80002998 <End_Time>
    80001d70:	99fff0ef          	jal	ra,8000170e <setStats>
    80001d74:	00001717          	auipc	a4,0x1
    80001d78:	c2c73703          	ld	a4,-980(a4) # 800029a0 <Begin_Time>
    80001d7c:	00001797          	auipc	a5,0x1
    80001d80:	c1c7b783          	ld	a5,-996(a5) # 80002998 <End_Time>
    80001d84:	8f99                	sub	a5,a5,a4
    80001d86:	00001717          	auipc	a4,0x1
    80001d8a:	c0f73523          	sd	a5,-1014(a4) # 80002990 <User_Time>
    80001d8e:	3af05c63          	blez	a5,80002146 <main+0x6ee>
    80001d92:	4785                	li	a5,1
    80001d94:	00001717          	auipc	a4,0x1
    80001d98:	c0f72a23          	sw	a5,-1004(a4) # 800029a8 <Done>
    80001d9c:	00000517          	auipc	a0,0x0
    80001da0:	56450513          	addi	a0,a0,1380 # 80002300 <main+0x8a8>
    80001da4:	cfaff0ef          	jal	ra,8000129e <debug_printf>
    80001da8:	00000517          	auipc	a0,0x0
    80001dac:	6b850513          	addi	a0,a0,1720 # 80002460 <main+0xa08>
    80001db0:	ceeff0ef          	jal	ra,8000129e <debug_printf>
    80001db4:	00001797          	auipc	a5,0x1
    80001db8:	c0478793          	addi	a5,a5,-1020 # 800029b8 <Int_Glob>
    80001dbc:	438c                	lw	a1,0(a5)
    80001dbe:	00000517          	auipc	a0,0x0
    80001dc2:	57a50513          	addi	a0,a0,1402 # 80002338 <main+0x8e0>
    80001dc6:	413a09bb          	subw	s3,s4,s3
    80001dca:	cd4ff0ef          	jal	ra,8000129e <debug_printf>
    80001dce:	4595                	li	a1,5
    80001dd0:	00000517          	auipc	a0,0x0
    80001dd4:	58850513          	addi	a0,a0,1416 # 80002358 <main+0x900>
    80001dd8:	cc6ff0ef          	jal	ra,8000129e <debug_printf>
    80001ddc:	00001797          	auipc	a5,0x1
    80001de0:	bd878793          	addi	a5,a5,-1064 # 800029b4 <Bool_Glob>
    80001de4:	438c                	lw	a1,0(a5)
    80001de6:	00000517          	auipc	a0,0x0
    80001dea:	59250513          	addi	a0,a0,1426 # 80002378 <main+0x920>
    80001dee:	cb0ff0ef          	jal	ra,8000129e <debug_printf>
    80001df2:	4585                	li	a1,1
    80001df4:	00000517          	auipc	a0,0x0
    80001df8:	56450513          	addi	a0,a0,1380 # 80002358 <main+0x900>
    80001dfc:	ca2ff0ef          	jal	ra,8000129e <debug_printf>
    80001e00:	00001597          	auipc	a1,0x1
    80001e04:	bb15c583          	lbu	a1,-1103(a1) # 800029b1 <Ch_1_Glob>
    80001e08:	00000517          	auipc	a0,0x0
    80001e0c:	59050513          	addi	a0,a0,1424 # 80002398 <main+0x940>
    80001e10:	c8eff0ef          	jal	ra,8000129e <debug_printf>
    80001e14:	04100593          	li	a1,65
    80001e18:	00000517          	auipc	a0,0x0
    80001e1c:	5a050513          	addi	a0,a0,1440 # 800023b8 <main+0x960>
    80001e20:	c7eff0ef          	jal	ra,8000129e <debug_printf>
    80001e24:	00001597          	auipc	a1,0x1
    80001e28:	b8c5c583          	lbu	a1,-1140(a1) # 800029b0 <Ch_2_Glob>
    80001e2c:	00000517          	auipc	a0,0x0
    80001e30:	5ac50513          	addi	a0,a0,1452 # 800023d8 <main+0x980>
    80001e34:	c6aff0ef          	jal	ra,8000129e <debug_printf>
    80001e38:	04200593          	li	a1,66
    80001e3c:	00000517          	auipc	a0,0x0
    80001e40:	57c50513          	addi	a0,a0,1404 # 800023b8 <main+0x960>
    80001e44:	c5aff0ef          	jal	ra,8000129e <debug_printf>
    80001e48:	00001797          	auipc	a5,0x1
    80001e4c:	b8878793          	addi	a5,a5,-1144 # 800029d0 <Arr_1_Glob>
    80001e50:	538c                	lw	a1,32(a5)
    80001e52:	00000517          	auipc	a0,0x0
    80001e56:	5a650513          	addi	a0,a0,1446 # 800023f8 <main+0x9a0>
    80001e5a:	c44ff0ef          	jal	ra,8000129e <debug_printf>
    80001e5e:	459d                	li	a1,7
    80001e60:	00000517          	auipc	a0,0x0
    80001e64:	4f850513          	addi	a0,a0,1272 # 80002358 <main+0x900>
    80001e68:	c36ff0ef          	jal	ra,8000129e <debug_printf>
    80001e6c:	00001797          	auipc	a5,0x1
    80001e70:	c2c78793          	addi	a5,a5,-980 # 80002a98 <Arr_2_Glob>
    80001e74:	65c7a583          	lw	a1,1628(a5)
    80001e78:	00000517          	auipc	a0,0x0
    80001e7c:	5a050513          	addi	a0,a0,1440 # 80002418 <main+0x9c0>
    80001e80:	c1eff0ef          	jal	ra,8000129e <debug_printf>
    80001e84:	00000517          	auipc	a0,0x0
    80001e88:	5b450513          	addi	a0,a0,1460 # 80002438 <main+0x9e0>
    80001e8c:	c12ff0ef          	jal	ra,8000129e <debug_printf>
    80001e90:	00000517          	auipc	a0,0x0
    80001e94:	5d850513          	addi	a0,a0,1496 # 80002468 <main+0xa10>
    80001e98:	c06ff0ef          	jal	ra,8000129e <debug_printf>
    80001e9c:	00001797          	auipc	a5,0x1
    80001ea0:	b2c7b783          	ld	a5,-1236(a5) # 800029c8 <Ptr_Glob>
    80001ea4:	638c                	ld	a1,0(a5)
    80001ea6:	00000517          	auipc	a0,0x0
    80001eaa:	5d250513          	addi	a0,a0,1490 # 80002478 <main+0xa20>
    80001eae:	bf0ff0ef          	jal	ra,8000129e <debug_printf>
    80001eb2:	00000517          	auipc	a0,0x0
    80001eb6:	5e650513          	addi	a0,a0,1510 # 80002498 <main+0xa40>
    80001eba:	be4ff0ef          	jal	ra,8000129e <debug_printf>
    80001ebe:	00001797          	auipc	a5,0x1
    80001ec2:	b0a7b783          	ld	a5,-1270(a5) # 800029c8 <Ptr_Glob>
    80001ec6:	478c                	lw	a1,8(a5)
    80001ec8:	00000517          	auipc	a0,0x0
    80001ecc:	60850513          	addi	a0,a0,1544 # 800024d0 <main+0xa78>
    80001ed0:	bceff0ef          	jal	ra,8000129e <debug_printf>
    80001ed4:	4581                	li	a1,0
    80001ed6:	00000517          	auipc	a0,0x0
    80001eda:	48250513          	addi	a0,a0,1154 # 80002358 <main+0x900>
    80001ede:	bc0ff0ef          	jal	ra,8000129e <debug_printf>
    80001ee2:	00001797          	auipc	a5,0x1
    80001ee6:	ae67b783          	ld	a5,-1306(a5) # 800029c8 <Ptr_Glob>
    80001eea:	47cc                	lw	a1,12(a5)
    80001eec:	00000517          	auipc	a0,0x0
    80001ef0:	60450513          	addi	a0,a0,1540 # 800024f0 <main+0xa98>
    80001ef4:	baaff0ef          	jal	ra,8000129e <debug_printf>
    80001ef8:	4589                	li	a1,2
    80001efa:	00000517          	auipc	a0,0x0
    80001efe:	45e50513          	addi	a0,a0,1118 # 80002358 <main+0x900>
    80001f02:	b9cff0ef          	jal	ra,8000129e <debug_printf>
    80001f06:	00001797          	auipc	a5,0x1
    80001f0a:	ac27b783          	ld	a5,-1342(a5) # 800029c8 <Ptr_Glob>
    80001f0e:	4b8c                	lw	a1,16(a5)
    80001f10:	00000517          	auipc	a0,0x0
    80001f14:	60050513          	addi	a0,a0,1536 # 80002510 <main+0xab8>
    80001f18:	b86ff0ef          	jal	ra,8000129e <debug_printf>
    80001f1c:	45c5                	li	a1,17
    80001f1e:	00000517          	auipc	a0,0x0
    80001f22:	43a50513          	addi	a0,a0,1082 # 80002358 <main+0x900>
    80001f26:	b78ff0ef          	jal	ra,8000129e <debug_printf>
    80001f2a:	00001597          	auipc	a1,0x1
    80001f2e:	a9e5b583          	ld	a1,-1378(a1) # 800029c8 <Ptr_Glob>
    80001f32:	05d1                	addi	a1,a1,20
    80001f34:	00000517          	auipc	a0,0x0
    80001f38:	5fc50513          	addi	a0,a0,1532 # 80002530 <main+0xad8>
    80001f3c:	b62ff0ef          	jal	ra,8000129e <debug_printf>
    80001f40:	00000517          	auipc	a0,0x0
    80001f44:	61050513          	addi	a0,a0,1552 # 80002550 <main+0xaf8>
    80001f48:	b56ff0ef          	jal	ra,8000129e <debug_printf>
    80001f4c:	00000517          	auipc	a0,0x0
    80001f50:	63c50513          	addi	a0,a0,1596 # 80002588 <main+0xb30>
    80001f54:	b4aff0ef          	jal	ra,8000129e <debug_printf>
    80001f58:	00001797          	auipc	a5,0x1
    80001f5c:	a687b783          	ld	a5,-1432(a5) # 800029c0 <Next_Ptr_Glob>
    80001f60:	638c                	ld	a1,0(a5)
    80001f62:	00000517          	auipc	a0,0x0
    80001f66:	51650513          	addi	a0,a0,1302 # 80002478 <main+0xa20>
    80001f6a:	b34ff0ef          	jal	ra,8000129e <debug_printf>
    80001f6e:	00000517          	auipc	a0,0x0
    80001f72:	63250513          	addi	a0,a0,1586 # 800025a0 <main+0xb48>
    80001f76:	b28ff0ef          	jal	ra,8000129e <debug_printf>
    80001f7a:	00001797          	auipc	a5,0x1
    80001f7e:	a467b783          	ld	a5,-1466(a5) # 800029c0 <Next_Ptr_Glob>
    80001f82:	478c                	lw	a1,8(a5)
    80001f84:	00000517          	auipc	a0,0x0
    80001f88:	54c50513          	addi	a0,a0,1356 # 800024d0 <main+0xa78>
    80001f8c:	b12ff0ef          	jal	ra,8000129e <debug_printf>
    80001f90:	4581                	li	a1,0
    80001f92:	00000517          	auipc	a0,0x0
    80001f96:	3c650513          	addi	a0,a0,966 # 80002358 <main+0x900>
    80001f9a:	b04ff0ef          	jal	ra,8000129e <debug_printf>
    80001f9e:	00001797          	auipc	a5,0x1
    80001fa2:	a227b783          	ld	a5,-1502(a5) # 800029c0 <Next_Ptr_Glob>
    80001fa6:	47cc                	lw	a1,12(a5)
    80001fa8:	00000517          	auipc	a0,0x0
    80001fac:	54850513          	addi	a0,a0,1352 # 800024f0 <main+0xa98>
    80001fb0:	aeeff0ef          	jal	ra,8000129e <debug_printf>
    80001fb4:	4585                	li	a1,1
    80001fb6:	00000517          	auipc	a0,0x0
    80001fba:	3a250513          	addi	a0,a0,930 # 80002358 <main+0x900>
    80001fbe:	ae0ff0ef          	jal	ra,8000129e <debug_printf>
    80001fc2:	00001797          	auipc	a5,0x1
    80001fc6:	9fe7b783          	ld	a5,-1538(a5) # 800029c0 <Next_Ptr_Glob>
    80001fca:	4b8c                	lw	a1,16(a5)
    80001fcc:	00000517          	auipc	a0,0x0
    80001fd0:	54450513          	addi	a0,a0,1348 # 80002510 <main+0xab8>
    80001fd4:	acaff0ef          	jal	ra,8000129e <debug_printf>
    80001fd8:	45c9                	li	a1,18
    80001fda:	00000517          	auipc	a0,0x0
    80001fde:	37e50513          	addi	a0,a0,894 # 80002358 <main+0x900>
    80001fe2:	abcff0ef          	jal	ra,8000129e <debug_printf>
    80001fe6:	00001597          	auipc	a1,0x1
    80001fea:	9da5b583          	ld	a1,-1574(a1) # 800029c0 <Next_Ptr_Glob>
    80001fee:	05d1                	addi	a1,a1,20
    80001ff0:	00000517          	auipc	a0,0x0
    80001ff4:	54050513          	addi	a0,a0,1344 # 80002530 <main+0xad8>
    80001ff8:	aa6ff0ef          	jal	ra,8000129e <debug_printf>
    80001ffc:	00000517          	auipc	a0,0x0
    80002000:	55450513          	addi	a0,a0,1364 # 80002550 <main+0xaf8>
    80002004:	a9aff0ef          	jal	ra,8000129e <debug_printf>
    80002008:	f4442583          	lw	a1,-188(s0)
    8000200c:	00000517          	auipc	a0,0x0
    80002010:	5d450513          	addi	a0,a0,1492 # 800025e0 <main+0xb88>
    80002014:	a8aff0ef          	jal	ra,8000129e <debug_printf>
    80002018:	4595                	li	a1,5
    8000201a:	00000517          	auipc	a0,0x0
    8000201e:	33e50513          	addi	a0,a0,830 # 80002358 <main+0x900>
    80002022:	a7cff0ef          	jal	ra,8000129e <debug_printf>
    80002026:	0039979b          	slliw	a5,s3,0x3
    8000202a:	413789bb          	subw	s3,a5,s3
    8000202e:	412985bb          	subw	a1,s3,s2
    80002032:	00000517          	auipc	a0,0x0
    80002036:	5ce50513          	addi	a0,a0,1486 # 80002600 <main+0xba8>
    8000203a:	a64ff0ef          	jal	ra,8000129e <debug_printf>
    8000203e:	45b5                	li	a1,13
    80002040:	00000517          	auipc	a0,0x0
    80002044:	31850513          	addi	a0,a0,792 # 80002358 <main+0x900>
    80002048:	a56ff0ef          	jal	ra,8000129e <debug_printf>
    8000204c:	f4842583          	lw	a1,-184(s0)
    80002050:	00000517          	auipc	a0,0x0
    80002054:	5d050513          	addi	a0,a0,1488 # 80002620 <main+0xbc8>
    80002058:	a46ff0ef          	jal	ra,8000129e <debug_printf>
    8000205c:	459d                	li	a1,7
    8000205e:	00000517          	auipc	a0,0x0
    80002062:	2fa50513          	addi	a0,a0,762 # 80002358 <main+0x900>
    80002066:	a38ff0ef          	jal	ra,8000129e <debug_printf>
    8000206a:	f4c42583          	lw	a1,-180(s0)
    8000206e:	00000517          	auipc	a0,0x0
    80002072:	5d250513          	addi	a0,a0,1490 # 80002640 <main+0xbe8>
    80002076:	a28ff0ef          	jal	ra,8000129e <debug_printf>
    8000207a:	00000517          	auipc	a0,0x0
    8000207e:	2de50513          	addi	a0,a0,734 # 80002358 <main+0x900>
    80002082:	4585                	li	a1,1
    80002084:	a1aff0ef          	jal	ra,8000129e <debug_printf>
    80002088:	f5040593          	addi	a1,s0,-176
    8000208c:	00000517          	auipc	a0,0x0
    80002090:	5d450513          	addi	a0,a0,1492 # 80002660 <main+0xc08>
    80002094:	a0aff0ef          	jal	ra,8000129e <debug_printf>
    80002098:	00000517          	auipc	a0,0x0
    8000209c:	5e850513          	addi	a0,a0,1512 # 80002680 <main+0xc28>
    800020a0:	9feff0ef          	jal	ra,8000129e <debug_printf>
    800020a4:	f7040593          	addi	a1,s0,-144
    800020a8:	00000517          	auipc	a0,0x0
    800020ac:	61050513          	addi	a0,a0,1552 # 800026b8 <main+0xc60>
    800020b0:	9eeff0ef          	jal	ra,8000129e <debug_printf>
    800020b4:	00000517          	auipc	a0,0x0
    800020b8:	62450513          	addi	a0,a0,1572 # 800026d8 <main+0xc80>
    800020bc:	9e2ff0ef          	jal	ra,8000129e <debug_printf>
    800020c0:	00000517          	auipc	a0,0x0
    800020c4:	3a050513          	addi	a0,a0,928 # 80002460 <main+0xa08>
    800020c8:	9d6ff0ef          	jal	ra,8000129e <debug_printf>
    800020cc:	f2043783          	ld	a5,-224(s0)
    800020d0:	000f4737          	lui	a4,0xf4
    800020d4:	2407071b          	addiw	a4,a4,576
    800020d8:	02f7073b          	mulw	a4,a4,a5
    800020dc:	00001697          	auipc	a3,0x1
    800020e0:	8b46b683          	ld	a3,-1868(a3) # 80002990 <User_Time>
    800020e4:	00000517          	auipc	a0,0x0
    800020e8:	62c50513          	addi	a0,a0,1580 # 80002710 <main+0xcb8>
    800020ec:	02f6c7b3          	div	a5,a3,a5
    800020f0:	02d74733          	div	a4,a4,a3
    800020f4:	85be                	mv	a1,a5
    800020f6:	00001697          	auipc	a3,0x1
    800020fa:	88f6b923          	sd	a5,-1902(a3) # 80002988 <Microseconds>
    800020fe:	00001797          	auipc	a5,0x1
    80002102:	88e7b123          	sd	a4,-1918(a5) # 80002980 <Dhrystones_Per_Second>
    80002106:	eb0ff0ef          	jal	ra,800017b6 <printf>
    8000210a:	00001597          	auipc	a1,0x1
    8000210e:	8765b583          	ld	a1,-1930(a1) # 80002980 <Dhrystones_Per_Second>
    80002112:	00000517          	auipc	a0,0x0
    80002116:	63650513          	addi	a0,a0,1590 # 80002748 <main+0xcf0>
    8000211a:	e9cff0ef          	jal	ra,800017b6 <printf>
    8000211e:	f2040113          	addi	sp,s0,-224
    80002122:	60ee                	ld	ra,216(sp)
    80002124:	4501                	li	a0,0
    80002126:	644e                	ld	s0,208(sp)
    80002128:	64ae                	ld	s1,200(sp)
    8000212a:	690e                	ld	s2,192(sp)
    8000212c:	79ea                	ld	s3,184(sp)
    8000212e:	7a4a                	ld	s4,176(sp)
    80002130:	7aaa                	ld	s5,168(sp)
    80002132:	7b0a                	ld	s6,160(sp)
    80002134:	6bea                	ld	s7,152(sp)
    80002136:	6c4a                	ld	s8,144(sp)
    80002138:	6caa                	ld	s9,136(sp)
    8000213a:	6d0a                	ld	s10,128(sp)
    8000213c:	7de6                	ld	s11,120(sp)
    8000213e:	612d                	addi	sp,sp,224
    80002140:	8082                	ret
    80002142:	490d                	li	s2,3
    80002144:	bee5                	j	80001d3c <main+0x2e4>
    80002146:	00000517          	auipc	a0,0x0
    8000214a:	18250513          	addi	a0,a0,386 # 800022c8 <main+0x870>
    8000214e:	e68ff0ef          	jal	ra,800017b6 <printf>
    80002152:	f2043703          	ld	a4,-224(s0)
    80002156:	00000517          	auipc	a0,0x0
    8000215a:	30a50513          	addi	a0,a0,778 # 80002460 <main+0xa08>
    8000215e:	0027179b          	slliw	a5,a4,0x2
    80002162:	9fb9                	addw	a5,a5,a4
    80002164:	0017979b          	slliw	a5,a5,0x1
    80002168:	f2f43023          	sd	a5,-224(s0)
    8000216c:	e4aff0ef          	jal	ra,800017b6 <printf>
    80002170:	00001797          	auipc	a5,0x1
    80002174:	8387a783          	lw	a5,-1992(a5) # 800029a8 <Done>
    80002178:	2781                	sext.w	a5,a5
    8000217a:	a40788e3          	beqz	a5,80001bca <main+0x172>
    8000217e:	b939                	j	80001d9c <main+0x344>
    80002180:	00000517          	auipc	a0,0x0
    80002184:	0c850513          	addi	a0,a0,200 # 80002248 <main+0x7f0>
    80002188:	916ff0ef          	jal	ra,8000129e <debug_printf>
    8000218c:	b26d                	j	80001b36 <main+0xde>
    8000218e:	00000617          	auipc	a2,0x0
    80002192:	67260613          	addi	a2,a2,1650 # 80002800 <main+0xda8>
    80002196:	87b2                	mv	a5,a2
    80002198:	0785                	addi	a5,a5,1
    8000219a:	0007c703          	lbu	a4,0(a5)
    8000219e:	ff6d                	bnez	a4,80002198 <main+0x740>
    800021a0:	04000893          	li	a7,64
    800021a4:	4505                	li	a0,1
    800021a6:	00000597          	auipc	a1,0x0
    800021aa:	65a58593          	addi	a1,a1,1626 # 80002800 <main+0xda8>
    800021ae:	40c78633          	sub	a2,a5,a2
    800021b2:	00000073          	ecall
    800021b6:	557d                	li	a0,-1
    800021b8:	8082                	ret
