
median.riscv:     file format elf64-littleriscv


Disassembly of section .text:

0000000080001048 <median>:
    80001048:	00251793          	slli	a5,a0,0x2
    8000104c:	97b2                	add	a5,a5,a2
    8000104e:	00062023          	sw	zero,0(a2)
    80001052:	fe07ae23          	sw	zero,-4(a5)
    80001056:	4789                	li	a5,2
    80001058:	02a7d863          	ble	a0,a5,80001088 <median+0x40>
    8000105c:	ffd5069b          	addiw	a3,a0,-3
    80001060:	1682                	slli	a3,a3,0x20
    80001062:	9281                	srli	a3,a3,0x20
    80001064:	0685                	addi	a3,a3,1
    80001066:	068a                	slli	a3,a3,0x2
    80001068:	0611                	addi	a2,a2,4
    8000106a:	96ae                	add	a3,a3,a1
    8000106c:	4198                	lw	a4,0(a1)
    8000106e:	41dc                	lw	a5,4(a1)
    80001070:	4588                	lw	a0,8(a1)
    80001072:	00f75c63          	ble	a5,a4,8000108a <median+0x42>
    80001076:	02a7c063          	blt	a5,a0,80001096 <median+0x4e>
    8000107a:	00e55c63          	ble	a4,a0,80001092 <median+0x4a>
    8000107e:	c218                	sw	a4,0(a2)
    80001080:	0591                	addi	a1,a1,4
    80001082:	0611                	addi	a2,a2,4
    80001084:	feb694e3          	bne	a3,a1,8000106c <median+0x24>
    80001088:	8082                	ret
    8000108a:	fea74ae3          	blt	a4,a0,8000107e <median+0x36>
    8000108e:	00f54463          	blt	a0,a5,80001096 <median+0x4e>
    80001092:	c208                	sw	a0,0(a2)
    80001094:	b7f5                	j	80001080 <median+0x38>
    80001096:	c21c                	sw	a5,0(a2)
    80001098:	b7e5                	j	80001080 <median+0x38>

000000008000109a <putchar>:
    8000109a:	04022803          	lw	a6,64(tp) # 40 <buflen.2714>
    8000109e:	00020793          	mv	a5,tp
    800010a2:	97c2                	add	a5,a5,a6
    800010a4:	0018061b          	addiw	a2,a6,1
    800010a8:	00a78023          	sb	a0,0(a5)
    800010ac:	04c22023          	sw	a2,64(tp) # 40 <buflen.2714>
    800010b0:	47a9                	li	a5,10
    800010b2:	00f50863          	beq	a0,a5,800010c2 <putchar+0x28>
    800010b6:	04000793          	li	a5,64
    800010ba:	00f60463          	beq	a2,a5,800010c2 <putchar+0x28>
    800010be:	4501                	li	a0,0
    800010c0:	8082                	ret
    800010c2:	04000893          	li	a7,64
    800010c6:	4505                	li	a0,1
    800010c8:	00020593          	mv	a1,tp
    800010cc:	00000073          	ecall
    800010d0:	04022023          	sw	zero,64(tp) # 40 <buflen.2714>
    800010d4:	4501                	li	a0,0
    800010d6:	8082                	ret

00000000800010d8 <vprintfmt>:
    800010d8:	710d                	addi	sp,sp,-352
    800010da:	eaa2                	sd	s0,336(sp)
    800010dc:	e6a6                	sd	s1,328(sp)
    800010de:	e2ca                	sd	s2,320(sp)
    800010e0:	fa52                	sd	s4,304(sp)
    800010e2:	f656                	sd	s5,296(sp)
    800010e4:	f25a                	sd	s6,288(sp)
    800010e6:	ee86                	sd	ra,344(sp)
    800010e8:	fe4e                	sd	s3,312(sp)
    800010ea:	ee5e                	sd	s7,280(sp)
    800010ec:	ea62                	sd	s8,272(sp)
    800010ee:	e666                	sd	s9,264(sp)
    800010f0:	892a                	mv	s2,a0
    800010f2:	84ae                	mv	s1,a1
    800010f4:	8432                	mv	s0,a2
    800010f6:	8b36                	mv	s6,a3
    800010f8:	02500a13          	li	s4,37
    800010fc:	00000a97          	auipc	s5,0x0
    80001100:	7e8a8a93          	addi	s5,s5,2024 # 800018e4 <main+0xa4>
    80001104:	a029                	j	8000110e <vprintfmt+0x36>
    80001106:	c131                	beqz	a0,8000114a <vprintfmt+0x72>
    80001108:	85a6                	mv	a1,s1
    8000110a:	0405                	addi	s0,s0,1
    8000110c:	9902                	jalr	s2
    8000110e:	00044503          	lbu	a0,0(s0)
    80001112:	ff451ae3          	bne	a0,s4,80001106 <vprintfmt+0x2e>
    80001116:	00144683          	lbu	a3,1(s0)
    8000111a:	00140c93          	addi	s9,s0,1
    8000111e:	8766                	mv	a4,s9
    80001120:	02000b93          	li	s7,32
    80001124:	59fd                	li	s3,-1
    80001126:	5c7d                	li	s8,-1
    80001128:	4581                	li	a1,0
    8000112a:	05500613          	li	a2,85
    8000112e:	4525                	li	a0,9
    80001130:	fdd6879b          	addiw	a5,a3,-35
    80001134:	0ff7f793          	andi	a5,a5,255
    80001138:	00170413          	addi	s0,a4,1
    8000113c:	1ef66963          	bltu	a2,a5,8000132e <vprintfmt+0x256>
    80001140:	078a                	slli	a5,a5,0x2
    80001142:	97d6                	add	a5,a5,s5
    80001144:	439c                	lw	a5,0(a5)
    80001146:	97d6                	add	a5,a5,s5
    80001148:	8782                	jr	a5
    8000114a:	60f6                	ld	ra,344(sp)
    8000114c:	6456                	ld	s0,336(sp)
    8000114e:	64b6                	ld	s1,328(sp)
    80001150:	6916                	ld	s2,320(sp)
    80001152:	79f2                	ld	s3,312(sp)
    80001154:	7a52                	ld	s4,304(sp)
    80001156:	7ab2                	ld	s5,296(sp)
    80001158:	7b12                	ld	s6,288(sp)
    8000115a:	6bf2                	ld	s7,280(sp)
    8000115c:	6c52                	ld	s8,272(sp)
    8000115e:	6cb2                	ld	s9,264(sp)
    80001160:	6135                	addi	sp,sp,352
    80001162:	8082                	ret
    80001164:	4721                	li	a4,8
    80001166:	4785                	li	a5,1
    80001168:	008b0693          	addi	a3,s6,8
    8000116c:	0eb7d463          	ble	a1,a5,80001254 <vprintfmt+0x17c>
    80001170:	000b3783          	ld	a5,0(s6)
    80001174:	8b36                	mv	s6,a3
    80001176:	02e7f6b3          	remu	a3,a5,a4
    8000117a:	2b81                	sext.w	s7,s7
    8000117c:	0050                	addi	a2,sp,4
    8000117e:	4985                	li	s3,1
    80001180:	c036                	sw	a3,0(sp)
    80001182:	00e7f463          	bleu	a4,a5,8000118a <vprintfmt+0xb2>
    80001186:	aa55                	j	8000133a <vprintfmt+0x262>
    80001188:	89e6                	mv	s3,s9
    8000118a:	02e7d7b3          	divu	a5,a5,a4
    8000118e:	0611                	addi	a2,a2,4
    80001190:	00198c9b          	addiw	s9,s3,1
    80001194:	02e7f6b3          	remu	a3,a5,a4
    80001198:	fed62e23          	sw	a3,-4(a2)
    8000119c:	fee7f6e3          	bleu	a4,a5,80001188 <vprintfmt+0xb0>
    800011a0:	018cd963          	ble	s8,s9,800011b2 <vprintfmt+0xda>
    800011a4:	2c01                	sext.w	s8,s8
    800011a6:	3c7d                	addiw	s8,s8,-1
    800011a8:	85a6                	mv	a1,s1
    800011aa:	855e                	mv	a0,s7
    800011ac:	9902                	jalr	s2
    800011ae:	ff8ccce3          	blt	s9,s8,800011a6 <vprintfmt+0xce>
    800011b2:	00299793          	slli	a5,s3,0x2
    800011b6:	0218                	addi	a4,sp,256
    800011b8:	97ba                	add	a5,a5,a4
    800011ba:	f007a683          	lw	a3,-256(a5)
    800011be:	fff98b9b          	addiw	s7,s3,-1
    800011c2:	0b8a                	slli	s7,s7,0x2
    800011c4:	9b8a                	add	s7,s7,sp
    800011c6:	4c25                	li	s8,9
    800011c8:	a029                	j	800011d2 <vprintfmt+0xfa>
    800011ca:	000ba683          	lw	a3,0(s7)
    800011ce:	19fd                	addi	s3,s3,-1
    800011d0:	1bf1                	addi	s7,s7,-4
    800011d2:	03000513          	li	a0,48
    800011d6:	00dc7463          	bleu	a3,s8,800011de <vprintfmt+0x106>
    800011da:	05700513          	li	a0,87
    800011de:	85a6                	mv	a1,s1
    800011e0:	9d35                	addw	a0,a0,a3
    800011e2:	9902                	jalr	s2
    800011e4:	0009879b          	sext.w	a5,s3
    800011e8:	fef041e3          	bgtz	a5,800011ca <vprintfmt+0xf2>
    800011ec:	b70d                	j	8000110e <vprintfmt+0x36>
    800011ee:	03000513          	li	a0,48
    800011f2:	85a6                	mv	a1,s1
    800011f4:	9902                	jalr	s2
    800011f6:	85a6                	mv	a1,s1
    800011f8:	07800513          	li	a0,120
    800011fc:	9902                	jalr	s2
    800011fe:	008b0693          	addi	a3,s6,8
    80001202:	4741                	li	a4,16
    80001204:	b7b5                	j	80001170 <vprintfmt+0x98>
    80001206:	000b3c83          	ld	s9,0(s6)
    8000120a:	0b21                	addi	s6,s6,8
    8000120c:	180c8863          	beqz	s9,8000139c <vprintfmt+0x2c4>
    80001210:	15805163          	blez	s8,80001352 <vprintfmt+0x27a>
    80001214:	02d00793          	li	a5,45
    80001218:	16fb8d63          	beq	s7,a5,80001392 <vprintfmt+0x2ba>
    8000121c:	000c059b          	sext.w	a1,s8
    80001220:	18098963          	beqz	s3,800013b2 <vprintfmt+0x2da>
    80001224:	000cc783          	lbu	a5,0(s9)
    80001228:	18078563          	beqz	a5,800013b2 <vprintfmt+0x2da>
    8000122c:	001c8793          	addi	a5,s9,1
    80001230:	013c8633          	add	a2,s9,s3
    80001234:	1af60363          	beq	a2,a5,800013da <vprintfmt+0x302>
    80001238:	00178713          	addi	a4,a5,1
    8000123c:	fff74683          	lbu	a3,-1(a4)
    80001240:	10068363          	beqz	a3,80001346 <vprintfmt+0x26e>
    80001244:	87ba                	mv	a5,a4
    80001246:	b7fd                	j	80001234 <vprintfmt+0x15c>
    80001248:	4785                	li	a5,1
    8000124a:	4729                	li	a4,10
    8000124c:	008b0693          	addi	a3,s6,8
    80001250:	f2b7c0e3          	blt	a5,a1,80001170 <vprintfmt+0x98>
    80001254:	fd91                	bnez	a1,80001170 <vprintfmt+0x98>
    80001256:	000b6783          	lwu	a5,0(s6)
    8000125a:	8b36                	mv	s6,a3
    8000125c:	bf29                	j	80001176 <vprintfmt+0x9e>
    8000125e:	00174683          	lbu	a3,1(a4)
    80001262:	8722                	mv	a4,s0
    80001264:	b5f1                	j	80001130 <vprintfmt+0x58>
    80001266:	85a6                	mv	a1,s1
    80001268:	02500513          	li	a0,37
    8000126c:	9902                	jalr	s2
    8000126e:	b545                	j	8000110e <vprintfmt+0x36>
    80001270:	4741                	li	a4,16
    80001272:	bdd5                	j	80001166 <vprintfmt+0x8e>
    80001274:	000b2983          	lw	s3,0(s6)
    80001278:	00174683          	lbu	a3,1(a4)
    8000127c:	0b21                	addi	s6,s6,8
    8000127e:	8722                	mv	a4,s0
    80001280:	ea0c58e3          	bgez	s8,80001130 <vprintfmt+0x58>
    80001284:	8c4e                	mv	s8,s3
    80001286:	59fd                	li	s3,-1
    80001288:	b565                	j	80001130 <vprintfmt+0x58>
    8000128a:	00174683          	lbu	a3,1(a4)
    8000128e:	02d00b93          	li	s7,45
    80001292:	8722                	mv	a4,s0
    80001294:	bd71                	j	80001130 <vprintfmt+0x58>
    80001296:	fffc4793          	not	a5,s8
    8000129a:	97fd                	srai	a5,a5,0x3f
    8000129c:	00fc7c33          	and	s8,s8,a5
    800012a0:	00174683          	lbu	a3,1(a4)
    800012a4:	2c01                	sext.w	s8,s8
    800012a6:	8722                	mv	a4,s0
    800012a8:	b561                	j	80001130 <vprintfmt+0x58>
    800012aa:	00174683          	lbu	a3,1(a4)
    800012ae:	03000b93          	li	s7,48
    800012b2:	8722                	mv	a4,s0
    800012b4:	bdb5                	j	80001130 <vprintfmt+0x58>
    800012b6:	fd06899b          	addiw	s3,a3,-48
    800012ba:	00174683          	lbu	a3,1(a4)
    800012be:	8722                	mv	a4,s0
    800012c0:	fd06879b          	addiw	a5,a3,-48
    800012c4:	0006881b          	sext.w	a6,a3
    800012c8:	faf56ce3          	bltu	a0,a5,80001280 <vprintfmt+0x1a8>
    800012cc:	0705                	addi	a4,a4,1
    800012ce:	0029979b          	slliw	a5,s3,0x2
    800012d2:	00074683          	lbu	a3,0(a4)
    800012d6:	013789bb          	addw	s3,a5,s3
    800012da:	0019999b          	slliw	s3,s3,0x1
    800012de:	010989bb          	addw	s3,s3,a6
    800012e2:	fd06879b          	addiw	a5,a3,-48
    800012e6:	fd09899b          	addiw	s3,s3,-48
    800012ea:	0006881b          	sext.w	a6,a3
    800012ee:	fcf57fe3          	bleu	a5,a0,800012cc <vprintfmt+0x1f4>
    800012f2:	b779                	j	80001280 <vprintfmt+0x1a8>
    800012f4:	000b2503          	lw	a0,0(s6)
    800012f8:	85a6                	mv	a1,s1
    800012fa:	0b21                	addi	s6,s6,8
    800012fc:	9902                	jalr	s2
    800012fe:	bd01                	j	8000110e <vprintfmt+0x36>
    80001300:	4785                	li	a5,1
    80001302:	008b0c93          	addi	s9,s6,8
    80001306:	08b7d263          	ble	a1,a5,8000138a <vprintfmt+0x2b2>
    8000130a:	000b3983          	ld	s3,0(s6)
    8000130e:	0a09da63          	bgez	s3,800013c2 <vprintfmt+0x2ea>
    80001312:	85a6                	mv	a1,s1
    80001314:	02d00513          	li	a0,45
    80001318:	9902                	jalr	s2
    8000131a:	8b66                	mv	s6,s9
    8000131c:	413007b3          	neg	a5,s3
    80001320:	4729                	li	a4,10
    80001322:	bd91                	j	80001176 <vprintfmt+0x9e>
    80001324:	00174683          	lbu	a3,1(a4)
    80001328:	2585                	addiw	a1,a1,1
    8000132a:	8722                	mv	a4,s0
    8000132c:	b511                	j	80001130 <vprintfmt+0x58>
    8000132e:	85a6                	mv	a1,s1
    80001330:	02500513          	li	a0,37
    80001334:	9902                	jalr	s2
    80001336:	8466                	mv	s0,s9
    80001338:	bbd9                	j	8000110e <vprintfmt+0x36>
    8000133a:	4785                	li	a5,1
    8000133c:	4981                	li	s3,0
    8000133e:	4c85                	li	s9,1
    80001340:	e787c2e3          	blt	a5,s8,800011a4 <vprintfmt+0xcc>
    80001344:	bdad                	j	800011be <vprintfmt+0xe6>
    80001346:	41978c33          	sub	s8,a5,s9
    8000134a:	41858c3b          	subw	s8,a1,s8
    8000134e:	07804263          	bgtz	s8,800013b2 <vprintfmt+0x2da>
    80001352:	000cc503          	lbu	a0,0(s9)
    80001356:	da050ce3          	beqz	a0,8000110e <vprintfmt+0x36>
    8000135a:	5bfd                	li	s7,-1
    8000135c:	0209d363          	bgez	s3,80001382 <vprintfmt+0x2aa>
    80001360:	85a6                	mv	a1,s1
    80001362:	0c85                	addi	s9,s9,1
    80001364:	9902                	jalr	s2
    80001366:	000cc503          	lbu	a0,0(s9)
    8000136a:	3c7d                	addiw	s8,s8,-1
    8000136c:	f965                	bnez	a0,8000135c <vprintfmt+0x284>
    8000136e:	db8050e3          	blez	s8,8000110e <vprintfmt+0x36>
    80001372:	3c7d                	addiw	s8,s8,-1
    80001374:	85a6                	mv	a1,s1
    80001376:	02000513          	li	a0,32
    8000137a:	9902                	jalr	s2
    8000137c:	fe0c1be3          	bnez	s8,80001372 <vprintfmt+0x29a>
    80001380:	b379                	j	8000110e <vprintfmt+0x36>
    80001382:	39fd                	addiw	s3,s3,-1
    80001384:	fd799ee3          	bne	s3,s7,80001360 <vprintfmt+0x288>
    80001388:	b7dd                	j	8000136e <vprintfmt+0x296>
    8000138a:	f1c1                	bnez	a1,8000130a <vprintfmt+0x232>
    8000138c:	000b2983          	lw	s3,0(s6)
    80001390:	bfbd                	j	8000130e <vprintfmt+0x236>
    80001392:	000cc503          	lbu	a0,0(s9)
    80001396:	dd71                	beqz	a0,80001372 <vprintfmt+0x29a>
    80001398:	5bfd                	li	s7,-1
    8000139a:	b7c9                	j	8000135c <vprintfmt+0x284>
    8000139c:	03805763          	blez	s8,800013ca <vprintfmt+0x2f2>
    800013a0:	02d00793          	li	a5,45
    800013a4:	02fb8363          	beq	s7,a5,800013ca <vprintfmt+0x2f2>
    800013a8:	00000c97          	auipc	s9,0x0
    800013ac:	698c8c93          	addi	s9,s9,1688 # 80001a40 <main+0x200>
    800013b0:	b5b5                	j	8000121c <vprintfmt+0x144>
    800013b2:	2b81                	sext.w	s7,s7
    800013b4:	3c7d                	addiw	s8,s8,-1
    800013b6:	85a6                	mv	a1,s1
    800013b8:	855e                	mv	a0,s7
    800013ba:	9902                	jalr	s2
    800013bc:	fe0c1ce3          	bnez	s8,800013b4 <vprintfmt+0x2dc>
    800013c0:	bf49                	j	80001352 <vprintfmt+0x27a>
    800013c2:	87ce                	mv	a5,s3
    800013c4:	8b66                	mv	s6,s9
    800013c6:	4729                	li	a4,10
    800013c8:	b37d                	j	80001176 <vprintfmt+0x9e>
    800013ca:	00000c97          	auipc	s9,0x0
    800013ce:	676c8c93          	addi	s9,s9,1654 # 80001a40 <main+0x200>
    800013d2:	02800513          	li	a0,40
    800013d6:	5bfd                	li	s7,-1
    800013d8:	b751                	j	8000135c <vprintfmt+0x284>
    800013da:	41960c33          	sub	s8,a2,s9
    800013de:	41858c3b          	subw	s8,a1,s8
    800013e2:	fd8048e3          	bgtz	s8,800013b2 <vprintfmt+0x2da>
    800013e6:	b7b5                	j	80001352 <vprintfmt+0x27a>

00000000800013e8 <sprintf_putch.2828>:
    800013e8:	619c                	ld	a5,0(a1)
    800013ea:	00a78023          	sb	a0,0(a5)
    800013ee:	619c                	ld	a5,0(a1)
    800013f0:	0785                	addi	a5,a5,1
    800013f2:	e19c                	sd	a5,0(a1)
    800013f4:	8082                	ret

00000000800013f6 <tohost_exit>:
    800013f6:	00151793          	slli	a5,a0,0x1
    800013fa:	0017e793          	ori	a5,a5,1
    800013fe:	00000717          	auipc	a4,0x0
    80001402:	c0f73123          	sd	a5,-1022(a4) # 80001000 <tohost>
    80001406:	a001                	j	80001406 <tohost_exit+0x10>

0000000080001408 <handle_trap>:
    80001408:	472d                	li	a4,11
    8000140a:	00e50a63          	beq	a0,a4,8000141e <handle_trap+0x16>
    8000140e:	6785                	lui	a5,0x1
    80001410:	a7378793          	addi	a5,a5,-1421 # a73 <_tbss_end+0xa2f>
    80001414:	00000717          	auipc	a4,0x0
    80001418:	bef73623          	sd	a5,-1044(a4) # 80001000 <tohost>
    8000141c:	a001                	j	8000141c <handle_trap+0x14>
    8000141e:	6658                	ld	a4,136(a2)
    80001420:	7175                	addi	sp,sp,-144
    80001422:	e506                	sd	ra,136(sp)
    80001424:	05d00693          	li	a3,93
    80001428:	6a28                	ld	a0,80(a2)
    8000142a:	04d70f63          	beq	a4,a3,80001488 <handle_trap+0x80>
    8000142e:	4d200693          	li	a3,1234
    80001432:	06d71b63          	bne	a4,a3,800014a8 <handle_trap+0xa0>
    80001436:	2501                	sext.w	a0,a0
    80001438:	b00027f3          	csrr	a5,mcycle
    8000143c:	c921                	beqz	a0,8000148c <handle_trap+0x84>
    8000143e:	00001717          	auipc	a4,0x1
    80001442:	2cf73523          	sd	a5,714(a4) # 80002708 <counters>
    80001446:	b02027f3          	csrr	a5,minstret
    8000144a:	ed11                	bnez	a0,80001466 <handle_trap+0x5e>
    8000144c:	00001717          	auipc	a4,0x1
    80001450:	2c473703          	ld	a4,708(a4) # 80002710 <counters+0x8>
    80001454:	8f99                	sub	a5,a5,a4
    80001456:	00000717          	auipc	a4,0x0
    8000145a:	5fa70713          	addi	a4,a4,1530 # 80001a50 <main+0x210>
    8000145e:	00001697          	auipc	a3,0x1
    80001462:	2ce6b123          	sd	a4,706(a3) # 80002720 <counter_names+0x8>
    80001466:	00001717          	auipc	a4,0x1
    8000146a:	2af73523          	sd	a5,682(a4) # 80002710 <counters+0x8>
    8000146e:	04063823          	sd	zero,80(a2)
    80001472:	0005d783          	lhu	a5,0(a1)
    80001476:	470d                	li	a4,3
    80001478:	4509                	li	a0,2
    8000147a:	8b8d                	andi	a5,a5,3
    8000147c:	06e78463          	beq	a5,a4,800014e4 <handle_trap+0xdc>
    80001480:	60aa                	ld	ra,136(sp)
    80001482:	952e                	add	a0,a0,a1
    80001484:	6149                	addi	sp,sp,144
    80001486:	8082                	ret
    80001488:	f6fff0ef          	jal	ra,800013f6 <tohost_exit>
    8000148c:	00001717          	auipc	a4,0x1
    80001490:	27c73703          	ld	a4,636(a4) # 80002708 <counters>
    80001494:	8f99                	sub	a5,a5,a4
    80001496:	00000717          	auipc	a4,0x0
    8000149a:	5b270713          	addi	a4,a4,1458 # 80001a48 <main+0x208>
    8000149e:	00001697          	auipc	a3,0x1
    800014a2:	26e6bd23          	sd	a4,634(a3) # 80002718 <counter_names>
    800014a6:	bf61                	j	8000143e <handle_trap+0x36>
    800014a8:	03f10793          	addi	a5,sp,63
    800014ac:	fc07f793          	andi	a5,a5,-64
    800014b0:	6e34                	ld	a3,88(a2)
    800014b2:	e398                	sd	a4,0(a5)
    800014b4:	7238                	ld	a4,96(a2)
    800014b6:	e788                	sd	a0,8(a5)
    800014b8:	eb94                	sd	a3,16(a5)
    800014ba:	ef98                	sd	a4,24(a5)
    800014bc:	0330000f          	fence	rw,rw
    800014c0:	00000717          	auipc	a4,0x0
    800014c4:	b4f73023          	sd	a5,-1216(a4) # 80001000 <tohost>
    800014c8:	00000717          	auipc	a4,0x0
    800014cc:	b7873703          	ld	a4,-1160(a4) # 80001040 <fromhost>
    800014d0:	df65                	beqz	a4,800014c8 <handle_trap+0xc0>
    800014d2:	00000717          	auipc	a4,0x0
    800014d6:	b6073723          	sd	zero,-1170(a4) # 80001040 <fromhost>
    800014da:	0330000f          	fence	rw,rw
    800014de:	639c                	ld	a5,0(a5)
    800014e0:	ea3c                	sd	a5,80(a2)
    800014e2:	bf41                	j	80001472 <handle_trap+0x6a>
    800014e4:	4511                	li	a0,4
    800014e6:	bf69                	j	80001480 <handle_trap+0x78>

00000000800014e8 <exit>:
    800014e8:	05d00893          	li	a7,93
    800014ec:	4581                	li	a1,0
    800014ee:	4601                	li	a2,0
    800014f0:	00000073          	ecall
    800014f4:	a001                	j	800014f4 <exit+0xc>

00000000800014f6 <setStats>:
    800014f6:	4d200893          	li	a7,1234
    800014fa:	4581                	li	a1,0
    800014fc:	4601                	li	a2,0
    800014fe:	00000073          	ecall
    80001502:	8082                	ret

0000000080001504 <printstr>:
    80001504:	00054783          	lbu	a5,0(a0)
    80001508:	85aa                	mv	a1,a0
    8000150a:	862a                	mv	a2,a0
    8000150c:	cf81                	beqz	a5,80001524 <printstr+0x20>
    8000150e:	0605                	addi	a2,a2,1
    80001510:	00064783          	lbu	a5,0(a2)
    80001514:	ffed                	bnez	a5,8000150e <printstr+0xa>
    80001516:	8e0d                	sub	a2,a2,a1
    80001518:	04000893          	li	a7,64
    8000151c:	4505                	li	a0,1
    8000151e:	00000073          	ecall
    80001522:	8082                	ret
    80001524:	4601                	li	a2,0
    80001526:	04000893          	li	a7,64
    8000152a:	4505                	li	a0,1
    8000152c:	00000073          	ecall
    80001530:	8082                	ret

0000000080001532 <thread_entry>:
    80001532:	c111                	beqz	a0,80001536 <thread_entry+0x4>
    80001534:	a001                	j	80001534 <thread_entry+0x2>
    80001536:	8082                	ret

0000000080001538 <printhex>:
    80001538:	1101                	addi	sp,sp,-32
    8000153a:	01710713          	addi	a4,sp,23
    8000153e:	00710813          	addi	a6,sp,7
    80001542:	45a5                	li	a1,9
    80001544:	00f57793          	andi	a5,a0,15
    80001548:	05700613          	li	a2,87
    8000154c:	0ff7f693          	andi	a3,a5,255
    80001550:	00f5e463          	bltu	a1,a5,80001558 <printhex+0x20>
    80001554:	03000613          	li	a2,48
    80001558:	00c687bb          	addw	a5,a3,a2
    8000155c:	00f70023          	sb	a5,0(a4)
    80001560:	177d                	addi	a4,a4,-1
    80001562:	8111                	srli	a0,a0,0x4
    80001564:	fee810e3          	bne	a6,a4,80001544 <printhex+0xc>
    80001568:	00814783          	lbu	a5,8(sp)
    8000156c:	00010c23          	sb	zero,24(sp)
    80001570:	002c                	addi	a1,sp,8
    80001572:	cf91                	beqz	a5,8000158e <printhex+0x56>
    80001574:	862e                	mv	a2,a1
    80001576:	0605                	addi	a2,a2,1
    80001578:	00064783          	lbu	a5,0(a2)
    8000157c:	ffed                	bnez	a5,80001576 <printhex+0x3e>
    8000157e:	8e0d                	sub	a2,a2,a1
    80001580:	04000893          	li	a7,64
    80001584:	4505                	li	a0,1
    80001586:	00000073          	ecall
    8000158a:	6105                	addi	sp,sp,32
    8000158c:	8082                	ret
    8000158e:	4601                	li	a2,0
    80001590:	04000893          	li	a7,64
    80001594:	4505                	li	a0,1
    80001596:	00000073          	ecall
    8000159a:	6105                	addi	sp,sp,32
    8000159c:	8082                	ret

000000008000159e <printf>:
    8000159e:	711d                	addi	sp,sp,-96
    800015a0:	02810313          	addi	t1,sp,40
    800015a4:	f42e                	sd	a1,40(sp)
    800015a6:	f832                	sd	a2,48(sp)
    800015a8:	fc36                	sd	a3,56(sp)
    800015aa:	862a                	mv	a2,a0
    800015ac:	869a                	mv	a3,t1
    800015ae:	00000517          	auipc	a0,0x0
    800015b2:	aec50513          	addi	a0,a0,-1300 # 8000109a <putchar>
    800015b6:	4581                	li	a1,0
    800015b8:	ec06                	sd	ra,24(sp)
    800015ba:	e0ba                	sd	a4,64(sp)
    800015bc:	e4be                	sd	a5,72(sp)
    800015be:	e8c2                	sd	a6,80(sp)
    800015c0:	ecc6                	sd	a7,88(sp)
    800015c2:	e41a                	sd	t1,8(sp)
    800015c4:	b15ff0ef          	jal	ra,800010d8 <vprintfmt>
    800015c8:	60e2                	ld	ra,24(sp)
    800015ca:	4501                	li	a0,0
    800015cc:	6125                	addi	sp,sp,96
    800015ce:	8082                	ret

00000000800015d0 <sprintf>:
    800015d0:	711d                	addi	sp,sp,-96
    800015d2:	03010313          	addi	t1,sp,48
    800015d6:	f022                	sd	s0,32(sp)
    800015d8:	e42a                	sd	a0,8(sp)
    800015da:	f832                	sd	a2,48(sp)
    800015dc:	fc36                	sd	a3,56(sp)
    800015de:	842a                	mv	s0,a0
    800015e0:	862e                	mv	a2,a1
    800015e2:	00000517          	auipc	a0,0x0
    800015e6:	e0650513          	addi	a0,a0,-506 # 800013e8 <sprintf_putch.2828>
    800015ea:	002c                	addi	a1,sp,8
    800015ec:	869a                	mv	a3,t1
    800015ee:	f406                	sd	ra,40(sp)
    800015f0:	e4be                	sd	a5,72(sp)
    800015f2:	e0ba                	sd	a4,64(sp)
    800015f4:	e8c2                	sd	a6,80(sp)
    800015f6:	ecc6                	sd	a7,88(sp)
    800015f8:	ec1a                	sd	t1,24(sp)
    800015fa:	adfff0ef          	jal	ra,800010d8 <vprintfmt>
    800015fe:	67a2                	ld	a5,8(sp)
    80001600:	00078023          	sb	zero,0(a5)
    80001604:	6522                	ld	a0,8(sp)
    80001606:	70a2                	ld	ra,40(sp)
    80001608:	9d01                	subw	a0,a0,s0
    8000160a:	7402                	ld	s0,32(sp)
    8000160c:	6125                	addi	sp,sp,96
    8000160e:	8082                	ret

0000000080001610 <memcpy>:
    80001610:	00c5e7b3          	or	a5,a1,a2
    80001614:	8fc9                	or	a5,a5,a0
    80001616:	8b9d                	andi	a5,a5,7
    80001618:	00c506b3          	add	a3,a0,a2
    8000161c:	cf91                	beqz	a5,80001638 <memcpy+0x28>
    8000161e:	962e                	add	a2,a2,a1
    80001620:	87aa                	mv	a5,a0
    80001622:	02d57763          	bleu	a3,a0,80001650 <memcpy+0x40>
    80001626:	0585                	addi	a1,a1,1
    80001628:	fff5c703          	lbu	a4,-1(a1)
    8000162c:	0785                	addi	a5,a5,1
    8000162e:	fee78fa3          	sb	a4,-1(a5)
    80001632:	feb61ae3          	bne	a2,a1,80001626 <memcpy+0x16>
    80001636:	8082                	ret
    80001638:	fed57fe3          	bleu	a3,a0,80001636 <memcpy+0x26>
    8000163c:	87aa                	mv	a5,a0
    8000163e:	05a1                	addi	a1,a1,8
    80001640:	ff85b703          	ld	a4,-8(a1)
    80001644:	07a1                	addi	a5,a5,8
    80001646:	fee7bc23          	sd	a4,-8(a5)
    8000164a:	fed7eae3          	bltu	a5,a3,8000163e <memcpy+0x2e>
    8000164e:	8082                	ret
    80001650:	8082                	ret

0000000080001652 <memset>:
    80001652:	00c567b3          	or	a5,a0,a2
    80001656:	8b9d                	andi	a5,a5,7
    80001658:	962a                	add	a2,a2,a0
    8000165a:	0ff5f593          	andi	a1,a1,255
    8000165e:	cb91                	beqz	a5,80001672 <memset+0x20>
    80001660:	87aa                	mv	a5,a0
    80001662:	02c57a63          	bleu	a2,a0,80001696 <memset+0x44>
    80001666:	0785                	addi	a5,a5,1
    80001668:	feb78fa3          	sb	a1,-1(a5)
    8000166c:	fef61de3          	bne	a2,a5,80001666 <memset+0x14>
    80001670:	8082                	ret
    80001672:	00859793          	slli	a5,a1,0x8
    80001676:	8fcd                	or	a5,a5,a1
    80001678:	01079593          	slli	a1,a5,0x10
    8000167c:	8fcd                	or	a5,a5,a1
    8000167e:	02079713          	slli	a4,a5,0x20
    80001682:	8fd9                	or	a5,a5,a4
    80001684:	fec576e3          	bleu	a2,a0,80001670 <memset+0x1e>
    80001688:	872a                	mv	a4,a0
    8000168a:	0721                	addi	a4,a4,8
    8000168c:	fef73c23          	sd	a5,-8(a4)
    80001690:	fec76de3          	bltu	a4,a2,8000168a <memset+0x38>
    80001694:	8082                	ret
    80001696:	8082                	ret

0000000080001698 <_init>:
    80001698:	7131                	addi	sp,sp,-192
    8000169a:	f922                	sd	s0,176(sp)
    8000169c:	f14a                	sd	s2,160(sp)
    8000169e:	00020913          	mv	s2,tp
    800016a2:	00020413          	mv	s0,tp
    800016a6:	40890433          	sub	s0,s2,s0
    800016aa:	ed4e                	sd	s3,152(sp)
    800016ac:	e952                	sd	s4,144(sp)
    800016ae:	89aa                	mv	s3,a0
    800016b0:	8a2e                	mv	s4,a1
    800016b2:	8512                	mv	a0,tp
    800016b4:	8622                	mv	a2,s0
    800016b6:	00001597          	auipc	a1,0x1
    800016ba:	08a58593          	addi	a1,a1,138 # 80002740 <_end>
    800016be:	fd06                	sd	ra,184(sp)
    800016c0:	f526                	sd	s1,168(sp)
    800016c2:	e556                	sd	s5,136(sp)
    800016c4:	8a92                	mv	s5,tp
    800016c6:	f4bff0ef          	jal	ra,80001610 <memcpy>
    800016ca:	04420613          	addi	a2,tp,68 # 44 <_tbss_end>
    800016ce:	41260633          	sub	a2,a2,s2
    800016d2:	4581                	li	a1,0
    800016d4:	008a8533          	add	a0,s5,s0
    800016d8:	f7bff0ef          	jal	ra,80001652 <memset>
    800016dc:	85d2                	mv	a1,s4
    800016de:	854e                	mv	a0,s3
    800016e0:	e53ff0ef          	jal	ra,80001532 <thread_entry>
    800016e4:	4581                	li	a1,0
    800016e6:	4501                	li	a0,0
    800016e8:	158000ef          	jal	ra,80001840 <main>
    800016ec:	03f10493          	addi	s1,sp,63
    800016f0:	00001697          	auipc	a3,0x1
    800016f4:	0186b683          	ld	a3,24(a3) # 80002708 <counters>
    800016f8:	fc04f493          	andi	s1,s1,-64
    800016fc:	892a                	mv	s2,a0
    800016fe:	e6b9                	bnez	a3,8000174c <_init+0xb4>
    80001700:	00001697          	auipc	a3,0x1
    80001704:	0106b683          	ld	a3,16(a3) # 80002710 <counters+0x8>
    80001708:	8426                	mv	s0,s1
    8000170a:	ce95                	beqz	a3,80001746 <_init+0xae>
    8000170c:	8522                	mv	a0,s0
    8000170e:	00001617          	auipc	a2,0x1
    80001712:	01263603          	ld	a2,18(a2) # 80002720 <counter_names+0x8>
    80001716:	00000597          	auipc	a1,0x0
    8000171a:	36258593          	addi	a1,a1,866 # 80001a78 <main+0x238>
    8000171e:	eb3ff0ef          	jal	ra,800015d0 <sprintf>
    80001722:	942a                	add	s0,s0,a0
    80001724:	02848163          	beq	s1,s0,80001746 <_init+0xae>
    80001728:	0004c783          	lbu	a5,0(s1)
    8000172c:	8626                	mv	a2,s1
    8000172e:	c789                	beqz	a5,80001738 <_init+0xa0>
    80001730:	0605                	addi	a2,a2,1
    80001732:	00064783          	lbu	a5,0(a2)
    80001736:	ffed                	bnez	a5,80001730 <_init+0x98>
    80001738:	04000893          	li	a7,64
    8000173c:	4505                	li	a0,1
    8000173e:	85a6                	mv	a1,s1
    80001740:	8e05                	sub	a2,a2,s1
    80001742:	00000073          	ecall
    80001746:	854a                	mv	a0,s2
    80001748:	da1ff0ef          	jal	ra,800014e8 <exit>
    8000174c:	00001617          	auipc	a2,0x1
    80001750:	fcc63603          	ld	a2,-52(a2) # 80002718 <counter_names>
    80001754:	00000597          	auipc	a1,0x0
    80001758:	32458593          	addi	a1,a1,804 # 80001a78 <main+0x238>
    8000175c:	8526                	mv	a0,s1
    8000175e:	e73ff0ef          	jal	ra,800015d0 <sprintf>
    80001762:	00001697          	auipc	a3,0x1
    80001766:	fae6b683          	ld	a3,-82(a3) # 80002710 <counters+0x8>
    8000176a:	00a48433          	add	s0,s1,a0
    8000176e:	dadd                	beqz	a3,80001724 <_init+0x8c>
    80001770:	bf71                	j	8000170c <_init+0x74>

0000000080001772 <strlen>:
    80001772:	00054783          	lbu	a5,0(a0)
    80001776:	872a                	mv	a4,a0
    80001778:	c799                	beqz	a5,80001786 <strlen+0x14>
    8000177a:	0505                	addi	a0,a0,1
    8000177c:	00054783          	lbu	a5,0(a0)
    80001780:	ffed                	bnez	a5,8000177a <strlen+0x8>
    80001782:	8d19                	sub	a0,a0,a4
    80001784:	8082                	ret
    80001786:	4501                	li	a0,0
    80001788:	8082                	ret

000000008000178a <strnlen>:
    8000178a:	872a                	mv	a4,a0
    8000178c:	cd91                	beqz	a1,800017a8 <strnlen+0x1e>
    8000178e:	00054783          	lbu	a5,0(a0)
    80001792:	cb99                	beqz	a5,800017a8 <strnlen+0x1e>
    80001794:	95aa                	add	a1,a1,a0
    80001796:	a021                	j	8000179e <strnlen+0x14>
    80001798:	00054783          	lbu	a5,0(a0)
    8000179c:	c781                	beqz	a5,800017a4 <strnlen+0x1a>
    8000179e:	0505                	addi	a0,a0,1
    800017a0:	feb51ce3          	bne	a0,a1,80001798 <strnlen+0xe>
    800017a4:	8d19                	sub	a0,a0,a4
    800017a6:	8082                	ret
    800017a8:	4501                	li	a0,0
    800017aa:	8082                	ret

00000000800017ac <strcmp>:
    800017ac:	0505                	addi	a0,a0,1
    800017ae:	fff54783          	lbu	a5,-1(a0)
    800017b2:	0585                	addi	a1,a1,1
    800017b4:	fff5c703          	lbu	a4,-1(a1)
    800017b8:	c799                	beqz	a5,800017c6 <strcmp+0x1a>
    800017ba:	fee789e3          	beq	a5,a4,800017ac <strcmp>
    800017be:	0007851b          	sext.w	a0,a5
    800017c2:	9d19                	subw	a0,a0,a4
    800017c4:	8082                	ret
    800017c6:	4501                	li	a0,0
    800017c8:	bfed                	j	800017c2 <strcmp+0x16>

00000000800017ca <strcpy>:
    800017ca:	87aa                	mv	a5,a0
    800017cc:	0585                	addi	a1,a1,1
    800017ce:	fff5c703          	lbu	a4,-1(a1)
    800017d2:	0785                	addi	a5,a5,1
    800017d4:	fee78fa3          	sb	a4,-1(a5)
    800017d8:	fb75                	bnez	a4,800017cc <strcpy+0x2>
    800017da:	8082                	ret

00000000800017dc <atol>:
    800017dc:	00054783          	lbu	a5,0(a0)
    800017e0:	02000713          	li	a4,32
    800017e4:	00e79763          	bne	a5,a4,800017f2 <atol+0x16>
    800017e8:	0505                	addi	a0,a0,1
    800017ea:	00054783          	lbu	a5,0(a0)
    800017ee:	fee78de3          	beq	a5,a4,800017e8 <atol+0xc>
    800017f2:	fd57871b          	addiw	a4,a5,-43
    800017f6:	0fd77713          	andi	a4,a4,253
    800017fa:	c715                	beqz	a4,80001826 <atol+0x4a>
    800017fc:	00054683          	lbu	a3,0(a0)
    80001800:	87aa                	mv	a5,a0
    80001802:	4601                	li	a2,0
    80001804:	ce85                	beqz	a3,8000183c <atol+0x60>
    80001806:	4501                	li	a0,0
    80001808:	0785                	addi	a5,a5,1
    8000180a:	fd06859b          	addiw	a1,a3,-48
    8000180e:	00251713          	slli	a4,a0,0x2
    80001812:	0007c683          	lbu	a3,0(a5)
    80001816:	953a                	add	a0,a0,a4
    80001818:	0506                	slli	a0,a0,0x1
    8000181a:	952e                	add	a0,a0,a1
    8000181c:	f6f5                	bnez	a3,80001808 <atol+0x2c>
    8000181e:	c219                	beqz	a2,80001824 <atol+0x48>
    80001820:	40a00533          	neg	a0,a0
    80001824:	8082                	ret
    80001826:	00154683          	lbu	a3,1(a0)
    8000182a:	fd378793          	addi	a5,a5,-45
    8000182e:	0017b613          	seqz	a2,a5
    80001832:	00150793          	addi	a5,a0,1
    80001836:	fae1                	bnez	a3,80001806 <atol+0x2a>
    80001838:	4501                	li	a0,0
    8000183a:	b7d5                	j	8000181e <atol+0x42>
    8000183c:	4501                	li	a0,0
    8000183e:	8082                	ret

Disassembly of section .text.startup:

0000000080001840 <main>:
    80001840:	9b010113          	addi	sp,sp,-1616
    80001844:	00000597          	auipc	a1,0x0
    80001848:	24458593          	addi	a1,a1,580 # 80001a88 <input_data>
    8000184c:	860a                	mv	a2,sp
    8000184e:	19000513          	li	a0,400
    80001852:	64113423          	sd	ra,1608(sp)
    80001856:	ff2ff0ef          	jal	ra,80001048 <median>
    8000185a:	4505                	li	a0,1
    8000185c:	c9bff0ef          	jal	ra,800014f6 <setStats>
    80001860:	860a                	mv	a2,sp
    80001862:	00000597          	auipc	a1,0x0
    80001866:	22658593          	addi	a1,a1,550 # 80001a88 <input_data>
    8000186a:	19000513          	li	a0,400
    8000186e:	fdaff0ef          	jal	ra,80001048 <median>
    80001872:	4501                	li	a0,0
    80001874:	c83ff0ef          	jal	ra,800014f6 <setStats>
    80001878:	878a                	mv	a5,sp
    8000187a:	00001717          	auipc	a4,0x1
    8000187e:	84e70713          	addi	a4,a4,-1970 # 800020c8 <verify_data>
    80001882:	4501                	li	a0,0
    80001884:	19000893          	li	a7,400
    80001888:	4390                	lw	a2,0(a5)
    8000188a:	430c                	lw	a1,0(a4)
    8000188c:	43d4                	lw	a3,4(a5)
    8000188e:	00472803          	lw	a6,4(a4)
    80001892:	07a1                	addi	a5,a5,8
    80001894:	2681                	sext.w	a3,a3
    80001896:	00c59e63          	bne	a1,a2,800018b2 <main+0x72>
    8000189a:	2509                	addiw	a0,a0,2
    8000189c:	01069663          	bne	a3,a6,800018a8 <main+0x68>
    800018a0:	0721                	addi	a4,a4,8
    800018a2:	ff1513e3          	bne	a0,a7,80001888 <main+0x48>
    800018a6:	4501                	li	a0,0
    800018a8:	64813083          	ld	ra,1608(sp)
    800018ac:	65010113          	addi	sp,sp,1616
    800018b0:	8082                	ret
    800018b2:	2505                	addiw	a0,a0,1
    800018b4:	bfd5                	j	800018a8 <main+0x68>
    800018b6:	00000617          	auipc	a2,0x0
    800018ba:	1aa60613          	addi	a2,a2,426 # 80001a60 <main+0x220>
    800018be:	87b2                	mv	a5,a2
    800018c0:	0785                	addi	a5,a5,1
    800018c2:	0007c703          	lbu	a4,0(a5)
    800018c6:	ff6d                	bnez	a4,800018c0 <main+0x80>
    800018c8:	04000893          	li	a7,64
    800018cc:	4505                	li	a0,1
    800018ce:	00000597          	auipc	a1,0x0
    800018d2:	19258593          	addi	a1,a1,402 # 80001a60 <main+0x220>
    800018d6:	40c78633          	sub	a2,a5,a2
    800018da:	00000073          	ecall
    800018de:	557d                	li	a0,-1
    800018e0:	8082                	ret
