
mm.riscv:     file format elf32-littleriscv


Disassembly of section .text:

80001048 <mm_naive>:
80001048:	36050063          	beqz	a0,800013a8 <mm_naive+0x360>
8000104c:	f6010113          	addi	sp,sp,-160
80001050:	00070313          	mv	t1,a4
80001054:	04e12a23          	sw	a4,84(sp)
80001058:	0a012703          	lw	a4,160(sp)
8000105c:	02f12823          	sw	a5,48(sp)
80001060:	00361793          	slli	a5,a2,0x3
80001064:	00d787b3          	add	a5,a5,a3
80001068:	02c12623          	sw	a2,44(sp)
8000106c:	ffc67613          	andi	a2,a2,-4
80001070:	00371713          	slli	a4,a4,0x3
80001074:	02f12023          	sw	a5,32(sp)
80001078:	ffc60793          	addi	a5,a2,-4
8000107c:	04e12623          	sw	a4,76(sp)
80001080:	04f12c23          	sw	a5,88(sp)
80001084:	00331713          	slli	a4,t1,0x3
80001088:	02068793          	addi	a5,a3,32
8000108c:	07912a23          	sw	s9,116(sp)
80001090:	07a12823          	sw	s10,112(sp)
80001094:	07b12623          	sw	s11,108(sp)
80001098:	08112e23          	sw	ra,156(sp)
8000109c:	08812c23          	sw	s0,152(sp)
800010a0:	08912a23          	sw	s1,148(sp)
800010a4:	09212823          	sw	s2,144(sp)
800010a8:	09312623          	sw	s3,140(sp)
800010ac:	09412423          	sw	s4,136(sp)
800010b0:	09512223          	sw	s5,132(sp)
800010b4:	09612023          	sw	s6,128(sp)
800010b8:	07712e23          	sw	s7,124(sp)
800010bc:	07812c23          	sw	s8,120(sp)
800010c0:	03012e23          	sw	a6,60(sp)
800010c4:	02d12c23          	sw	a3,56(sp)
800010c8:	02b12423          	sw	a1,40(sp)
800010cc:	04a12823          	sw	a0,80(sp)
800010d0:	00c12a23          	sw	a2,20(sp)
800010d4:	05112023          	sw	a7,64(sp)
800010d8:	04e12423          	sw	a4,72(sp)
800010dc:	00581c93          	slli	s9,a6,0x5
800010e0:	00381d13          	slli	s10,a6,0x3
800010e4:	00481d93          	slli	s11,a6,0x4
800010e8:	02d12223          	sw	a3,36(sp)
800010ec:	00012e23          	sw	zero,28(sp)
800010f0:	04012223          	sw	zero,68(sp)
800010f4:	04f12e23          	sw	a5,92(sp)
800010f8:	02812783          	lw	a5,40(sp)
800010fc:	20078863          	beqz	a5,8000130c <mm_naive+0x2c4>
80001100:	05812703          	lw	a4,88(sp)
80001104:	01c12783          	lw	a5,28(sp)
80001108:	00012623          	sw	zero,12(sp)
8000110c:	00e787b3          	add	a5,a5,a4
80001110:	03012703          	lw	a4,48(sp)
80001114:	00379793          	slli	a5,a5,0x3
80001118:	00e12823          	sw	a4,16(sp)
8000111c:	05c12703          	lw	a4,92(sp)
80001120:	00e787b3          	add	a5,a5,a4
80001124:	02f12a23          	sw	a5,52(sp)
80001128:	04012783          	lw	a5,64(sp)
8000112c:	00f12423          	sw	a5,8(sp)
80001130:	00812783          	lw	a5,8(sp)
80001134:	0007a803          	lw	a6,0(a5)
80001138:	0047a883          	lw	a7,4(a5)
8000113c:	01412783          	lw	a5,20(sp)
80001140:	24078c63          	beqz	a5,80001398 <mm_naive+0x350>
80001144:	01012c03          	lw	s8,16(sp)
80001148:	01a12c23          	sw	s10,24(sp)
8000114c:	02412403          	lw	s0,36(sp)
80001150:	018d04b3          	add	s1,s10,s8
80001154:	03412d03          	lw	s10,52(sp)
80001158:	00000b13          	li	s6,0
8000115c:	00000b93          	li	s7,0
80001160:	000b0a13          	mv	s4,s6
80001164:	000b8a93          	mv	s5,s7
80001168:	000b0913          	mv	s2,s6
8000116c:	000b8993          	mv	s3,s7
80001170:	00042503          	lw	a0,0(s0)
80001174:	00442583          	lw	a1,4(s0)
80001178:	000c2603          	lw	a2,0(s8)
8000117c:	004c2683          	lw	a3,4(s8)
80001180:	00080713          	mv	a4,a6
80001184:	00088793          	mv	a5,a7
80001188:	3e90a0ef          	jal	ra,8000bd70 <fma>
8000118c:	02040413          	addi	s0,s0,32
80001190:	0004a603          	lw	a2,0(s1)
80001194:	0044a683          	lw	a3,4(s1)
80001198:	00a12023          	sw	a0,0(sp)
8000119c:	00b12223          	sw	a1,4(sp)
800011a0:	fe842503          	lw	a0,-24(s0)
800011a4:	fec42583          	lw	a1,-20(s0)
800011a8:	00090713          	mv	a4,s2
800011ac:	00098793          	mv	a5,s3
800011b0:	3c10a0ef          	jal	ra,8000bd70 <fma>
800011b4:	01bc07b3          	add	a5,s8,s11
800011b8:	0007a603          	lw	a2,0(a5)
800011bc:	0047a683          	lw	a3,4(a5)
800011c0:	00050913          	mv	s2,a0
800011c4:	00058993          	mv	s3,a1
800011c8:	ff042503          	lw	a0,-16(s0)
800011cc:	ff442583          	lw	a1,-12(s0)
800011d0:	000a0713          	mv	a4,s4
800011d4:	000a8793          	mv	a5,s5
800011d8:	3990a0ef          	jal	ra,8000bd70 <fma>
800011dc:	01b487b3          	add	a5,s1,s11
800011e0:	0007a603          	lw	a2,0(a5)
800011e4:	0047a683          	lw	a3,4(a5)
800011e8:	00050a13          	mv	s4,a0
800011ec:	00058a93          	mv	s5,a1
800011f0:	ff842503          	lw	a0,-8(s0)
800011f4:	ffc42583          	lw	a1,-4(s0)
800011f8:	000b0713          	mv	a4,s6
800011fc:	000b8793          	mv	a5,s7
80001200:	3710a0ef          	jal	ra,8000bd70 <fma>
80001204:	019c0c33          	add	s8,s8,s9
80001208:	019484b3          	add	s1,s1,s9
8000120c:	00050b13          	mv	s6,a0
80001210:	00058b93          	mv	s7,a1
80001214:	00012803          	lw	a6,0(sp)
80001218:	00412883          	lw	a7,4(sp)
8000121c:	f48d1ae3          	bne	s10,s0,80001170 <mm_naive+0x128>
80001220:	000a0613          	mv	a2,s4
80001224:	000a8693          	mv	a3,s5
80001228:	00090513          	mv	a0,s2
8000122c:	00098593          	mv	a1,s3
80001230:	7f80b0ef          	jal	ra,8000ca28 <__adddf3>
80001234:	000b0613          	mv	a2,s6
80001238:	000b8693          	mv	a3,s7
8000123c:	7ec0b0ef          	jal	ra,8000ca28 <__adddf3>
80001240:	01812d03          	lw	s10,24(sp)
80001244:	01412903          	lw	s2,20(sp)
80001248:	00012803          	lw	a6,0(sp)
8000124c:	00412883          	lw	a7,4(sp)
80001250:	00050413          	mv	s0,a0
80001254:	00058493          	mv	s1,a1
80001258:	02c12783          	lw	a5,44(sp)
8000125c:	06f97463          	bleu	a5,s2,800012c4 <mm_naive+0x27c>
80001260:	03c12783          	lw	a5,60(sp)
80001264:	02012a03          	lw	s4,32(sp)
80001268:	032789b3          	mul	s3,a5,s2
8000126c:	01c12783          	lw	a5,28(sp)
80001270:	00f90933          	add	s2,s2,a5
80001274:	03812783          	lw	a5,56(sp)
80001278:	00391913          	slli	s2,s2,0x3
8000127c:	01278933          	add	s2,a5,s2
80001280:	00c12783          	lw	a5,12(sp)
80001284:	00f989b3          	add	s3,s3,a5
80001288:	03012783          	lw	a5,48(sp)
8000128c:	00399993          	slli	s3,s3,0x3
80001290:	013789b3          	add	s3,a5,s3
80001294:	0009a603          	lw	a2,0(s3)
80001298:	0049a683          	lw	a3,4(s3)
8000129c:	00092503          	lw	a0,0(s2)
800012a0:	00492583          	lw	a1,4(s2)
800012a4:	00080713          	mv	a4,a6
800012a8:	00088793          	mv	a5,a7
800012ac:	2c50a0ef          	jal	ra,8000bd70 <fma>
800012b0:	00890913          	addi	s2,s2,8
800012b4:	00050813          	mv	a6,a0
800012b8:	00058893          	mv	a7,a1
800012bc:	01a989b3          	add	s3,s3,s10
800012c0:	fd2a1ae3          	bne	s4,s2,80001294 <mm_naive+0x24c>
800012c4:	00040613          	mv	a2,s0
800012c8:	00048693          	mv	a3,s1
800012cc:	00080513          	mv	a0,a6
800012d0:	00088593          	mv	a1,a7
800012d4:	7540b0ef          	jal	ra,8000ca28 <__adddf3>
800012d8:	00812783          	lw	a5,8(sp)
800012dc:	00c12703          	lw	a4,12(sp)
800012e0:	00a7a023          	sw	a0,0(a5)
800012e4:	00b7a223          	sw	a1,4(a5)
800012e8:	00878793          	addi	a5,a5,8
800012ec:	00f12423          	sw	a5,8(sp)
800012f0:	01012783          	lw	a5,16(sp)
800012f4:	00170713          	addi	a4,a4,1
800012f8:	00e12623          	sw	a4,12(sp)
800012fc:	00878793          	addi	a5,a5,8
80001300:	00f12823          	sw	a5,16(sp)
80001304:	02812783          	lw	a5,40(sp)
80001308:	e2e794e3          	bne	a5,a4,80001130 <mm_naive+0xe8>
8000130c:	04012703          	lw	a4,64(sp)
80001310:	04c12683          	lw	a3,76(sp)
80001314:	05412603          	lw	a2,84(sp)
80001318:	04412783          	lw	a5,68(sp)
8000131c:	00d70733          	add	a4,a4,a3
80001320:	04e12023          	sw	a4,64(sp)
80001324:	02412683          	lw	a3,36(sp)
80001328:	04812703          	lw	a4,72(sp)
8000132c:	00178793          	addi	a5,a5,1
80001330:	04f12223          	sw	a5,68(sp)
80001334:	00e686b3          	add	a3,a3,a4
80001338:	02d12223          	sw	a3,36(sp)
8000133c:	01c12683          	lw	a3,28(sp)
80001340:	00c686b3          	add	a3,a3,a2
80001344:	00d12e23          	sw	a3,28(sp)
80001348:	02012683          	lw	a3,32(sp)
8000134c:	00e68733          	add	a4,a3,a4
80001350:	02e12023          	sw	a4,32(sp)
80001354:	05012703          	lw	a4,80(sp)
80001358:	daf710e3          	bne	a4,a5,800010f8 <mm_naive+0xb0>
8000135c:	09c12083          	lw	ra,156(sp)
80001360:	09812403          	lw	s0,152(sp)
80001364:	09412483          	lw	s1,148(sp)
80001368:	09012903          	lw	s2,144(sp)
8000136c:	08c12983          	lw	s3,140(sp)
80001370:	08812a03          	lw	s4,136(sp)
80001374:	08412a83          	lw	s5,132(sp)
80001378:	08012b03          	lw	s6,128(sp)
8000137c:	07c12b83          	lw	s7,124(sp)
80001380:	07812c03          	lw	s8,120(sp)
80001384:	07412c83          	lw	s9,116(sp)
80001388:	07012d03          	lw	s10,112(sp)
8000138c:	06c12d83          	lw	s11,108(sp)
80001390:	0a010113          	addi	sp,sp,160
80001394:	00008067          	ret
80001398:	00000913          	li	s2,0
8000139c:	00000413          	li	s0,0
800013a0:	00000493          	li	s1,0
800013a4:	eb5ff06f          	j	80001258 <mm_naive+0x210>
800013a8:	00008067          	ret

800013ac <mm_cb>:
800013ac:	d5010113          	addi	sp,sp,-688
800013b0:	2a812423          	sw	s0,680(sp)
800013b4:	2a112623          	sw	ra,684(sp)
800013b8:	2b010413          	addi	s0,sp,688
800013bc:	2a912223          	sw	s1,676(sp)
800013c0:	2b212023          	sw	s2,672(sp)
800013c4:	29312e23          	sw	s3,668(sp)
800013c8:	29412c23          	sw	s4,664(sp)
800013cc:	29512a23          	sw	s5,660(sp)
800013d0:	29612823          	sw	s6,656(sp)
800013d4:	29712623          	sw	s7,652(sp)
800013d8:	29812423          	sw	s8,648(sp)
800013dc:	29912223          	sw	s9,644(sp)
800013e0:	29a12023          	sw	s10,640(sp)
800013e4:	27b12e23          	sw	s11,636(sp)
800013e8:	00060f13          	mv	t5,a2
800013ec:	e0c42223          	sw	a2,-508(s0)
800013f0:	01900613          	li	a2,25
800013f4:	02c5de33          	divu	t3,a1,a2
800013f8:	01800313          	li	t1,24
800013fc:	00070e93          	mv	t4,a4
80001400:	e2e42223          	sw	a4,-476(s0)
80001404:	daf42c23          	sw	a5,-584(s0)
80001408:	e3042623          	sw	a6,-468(s0)
8000140c:	daa42e23          	sw	a0,-580(s0)
80001410:	00002637          	lui	a2,0x2
80001414:	fff60613          	addi	a2,a2,-1 # 1fff <_tbss_end+0x1f7b>
80001418:	deb42623          	sw	a1,-532(s0)
8000141c:	ffffe5b7          	lui	a1,0xffffe
80001420:	d8d42a23          	sw	a3,-620(s0)
80001424:	dd142c23          	sw	a7,-552(s0)
80001428:	026f5733          	divu	a4,t5,t1
8000142c:	001e1793          	slli	a5,t3,0x1
80001430:	01c787b3          	add	a5,a5,t3
80001434:	00379793          	slli	a5,a5,0x3
80001438:	01c78833          	add	a6,a5,t3
8000143c:	e1c42a23          	sw	t3,-492(s0)
80001440:	e1042823          	sw	a6,-496(s0)
80001444:	02655333          	divu	t1,a0,t1
80001448:	00171793          	slli	a5,a4,0x1
8000144c:	00e787b3          	add	a5,a5,a4
80001450:	dae42423          	sw	a4,-600(s0)
80001454:	00379713          	slli	a4,a5,0x3
80001458:	e2e42423          	sw	a4,-472(s0)
8000145c:	00131793          	slli	a5,t1,0x1
80001460:	00678333          	add	t1,a5,t1
80001464:	00331513          	slli	a0,t1,0x3
80001468:	02e507b3          	mul	a5,a0,a4
8000146c:	e0a42023          	sw	a0,-512(s0)
80001470:	40078793          	addi	a5,a5,1024
80001474:	00379793          	slli	a5,a5,0x3
80001478:	01078793          	addi	a5,a5,16
8000147c:	40f10133          	sub	sp,sp,a5
80001480:	01010793          	addi	a5,sp,16
80001484:	00c787b3          	add	a5,a5,a2
80001488:	00b7f7b3          	and	a5,a5,a1
8000148c:	02e80733          	mul	a4,a6,a4
80001490:	def42e23          	sw	a5,-516(s0)
80001494:	030507b3          	mul	a5,a0,a6
80001498:	40070713          	addi	a4,a4,1024
8000149c:	00371713          	slli	a4,a4,0x3
800014a0:	01070713          	addi	a4,a4,16
800014a4:	40e10133          	sub	sp,sp,a4
800014a8:	01010713          	addi	a4,sp,16
800014ac:	00c70733          	add	a4,a4,a2
800014b0:	00b77733          	and	a4,a4,a1
800014b4:	dee42c23          	sw	a4,-520(s0)
800014b8:	40078793          	addi	a5,a5,1024
800014bc:	00379793          	slli	a5,a5,0x3
800014c0:	01078793          	addi	a5,a5,16
800014c4:	40f10133          	sub	sp,sp,a5
800014c8:	01010793          	addi	a5,sp,16
800014cc:	00c78633          	add	a2,a5,a2
800014d0:	00b677b3          	and	a5,a2,a1
800014d4:	def42423          	sw	a5,-536(s0)
800014d8:	16050c63          	beqz	a0,80001650 <mm_cb+0x2a4>
800014dc:	001e9d93          	slli	s11,t4,0x1
800014e0:	01dd87b3          	add	a5,s11,t4
800014e4:	00679793          	slli	a5,a5,0x6
800014e8:	faf42023          	sw	a5,-96(s0)
800014ec:	000017b7          	lui	a5,0x1
800014f0:	003e9b13          	slli	s6,t4,0x3
800014f4:	20078793          	addi	a5,a5,512 # 1200 <_tbss_end+0x117c>
800014f8:	00068d13          	mv	s10,a3
800014fc:	db642623          	sw	s6,-596(s0)
80001500:	00000c93          	li	s9,0
80001504:	f8f42c23          	sw	a5,-104(s0)
80001508:	e2842783          	lw	a5,-472(s0)
8000150c:	10078a63          	beqz	a5,80001620 <mm_cb+0x274>
80001510:	01800793          	li	a5,24
80001514:	02fcd7b3          	divu	a5,s9,a5
80001518:	da842703          	lw	a4,-600(s0)
8000151c:	000d0c13          	mv	s8,s10
80001520:	00000b93          	li	s7,0
80001524:	02e787b3          	mul	a5,a5,a4
80001528:	faf42423          	sw	a5,-88(s0)
8000152c:	01800793          	li	a5,24
80001530:	02fbd7b3          	divu	a5,s7,a5
80001534:	fa842703          	lw	a4,-88(s0)
80001538:	000c0493          	mv	s1,s8
8000153c:	00e787b3          	add	a5,a5,a4
80001540:	00379293          	slli	t0,a5,0x3
80001544:	00f282b3          	add	t0,t0,a5
80001548:	dfc42783          	lw	a5,-516(s0)
8000154c:	00929293          	slli	t0,t0,0x9
80001550:	005782b3          	add	t0,a5,t0
80001554:	f9842783          	lw	a5,-104(s0)
80001558:	00f28ab3          	add	s5,t0,a5
8000155c:	0c048a13          	addi	s4,s1,192
80001560:	00028713          	mv	a4,t0
80001564:	00048793          	mv	a5,s1
80001568:	fb542c23          	sw	s5,-72(s0)
8000156c:	fb642823          	sw	s6,-80(s0)
80001570:	0087a903          	lw	s2,8(a5)
80001574:	00c7a983          	lw	s3,12(a5)
80001578:	0107af03          	lw	t5,16(a5)
8000157c:	0147af83          	lw	t6,20(a5)
80001580:	0187ae03          	lw	t3,24(a5)
80001584:	01c7ae83          	lw	t4,28(a5)
80001588:	0207a303          	lw	t1,32(a5)
8000158c:	0247a383          	lw	t2,36(a5)
80001590:	0287a803          	lw	a6,40(a5)
80001594:	02c7a883          	lw	a7,44(a5)
80001598:	0307a503          	lw	a0,48(a5)
8000159c:	0347a583          	lw	a1,52(a5)
800015a0:	0387a603          	lw	a2,56(a5)
800015a4:	03c7a683          	lw	a3,60(a5)
800015a8:	0007aa83          	lw	s5,0(a5)
800015ac:	0047ab03          	lw	s6,4(a5)
800015b0:	01272423          	sw	s2,8(a4)
800015b4:	01572023          	sw	s5,0(a4)
800015b8:	01672223          	sw	s6,4(a4)
800015bc:	01372623          	sw	s3,12(a4)
800015c0:	01e72823          	sw	t5,16(a4)
800015c4:	01f72a23          	sw	t6,20(a4)
800015c8:	01c72c23          	sw	t3,24(a4)
800015cc:	01d72e23          	sw	t4,28(a4)
800015d0:	02672023          	sw	t1,32(a4)
800015d4:	02772223          	sw	t2,36(a4)
800015d8:	03072423          	sw	a6,40(a4)
800015dc:	03172623          	sw	a7,44(a4)
800015e0:	02a72823          	sw	a0,48(a4)
800015e4:	02b72a23          	sw	a1,52(a4)
800015e8:	02c72c23          	sw	a2,56(a4)
800015ec:	02d72e23          	sw	a3,60(a4)
800015f0:	04078793          	addi	a5,a5,64
800015f4:	04070713          	addi	a4,a4,64
800015f8:	f6fa1ce3          	bne	s4,a5,80001570 <mm_cb+0x1c4>
800015fc:	fb042b03          	lw	s6,-80(s0)
80001600:	fb842a83          	lw	s5,-72(s0)
80001604:	0c028293          	addi	t0,t0,192
80001608:	016484b3          	add	s1,s1,s6
8000160c:	f45a98e3          	bne	s5,t0,8000155c <mm_cb+0x1b0>
80001610:	e2842783          	lw	a5,-472(s0)
80001614:	018b8b93          	addi	s7,s7,24
80001618:	0c0c0c13          	addi	s8,s8,192
8000161c:	f0fbe8e3          	bltu	s7,a5,8000152c <mm_cb+0x180>
80001620:	fa042783          	lw	a5,-96(s0)
80001624:	018c8c93          	addi	s9,s9,24
80001628:	00fd0d33          	add	s10,s10,a5
8000162c:	e0042783          	lw	a5,-512(s0)
80001630:	ecfcece3          	bltu	s9,a5,80001508 <mm_cb+0x15c>
80001634:	e2842783          	lw	a5,-472(s0)
80001638:	02079263          	bnez	a5,8000165c <mm_cb+0x2b0>
8000163c:	e2c42783          	lw	a5,-468(s0)
80001640:	00179d13          	slli	s10,a5,0x1
80001644:	00379793          	slli	a5,a5,0x3
80001648:	e8f42a23          	sw	a5,-364(s0)
8000164c:	1880006f          	j	800017d4 <mm_cb+0x428>
80001650:	e2842783          	lw	a5,-472(s0)
80001654:	00079463          	bnez	a5,8000165c <mm_cb+0x2b0>
80001658:	4950106f          	j	800032ec <mm_cb+0x1f40>
8000165c:	e2c42703          	lw	a4,-468(s0)
80001660:	00001db7          	lui	s11,0x1
80001664:	00000c13          	li	s8,0
80001668:	00171d13          	slli	s10,a4,0x1
8000166c:	00ed07b3          	add	a5,s10,a4
80001670:	00679793          	slli	a5,a5,0x6
80001674:	faf42423          	sw	a5,-88(s0)
80001678:	db842783          	lw	a5,-584(s0)
8000167c:	00371a93          	slli	s5,a4,0x3
80001680:	e9542a23          	sw	s5,-364(s0)
80001684:	0c078c93          	addi	s9,a5,192
80001688:	2c0d8793          	addi	a5,s11,704 # 12c0 <_tbss_end+0x123c>
8000168c:	faf42023          	sw	a5,-96(s0)
80001690:	e1042783          	lw	a5,-496(s0)
80001694:	10078863          	beqz	a5,800017a4 <mm_cb+0x3f8>
80001698:	01800793          	li	a5,24
8000169c:	02fc57b3          	divu	a5,s8,a5
800016a0:	e1442703          	lw	a4,-492(s0)
800016a4:	000c8b93          	mv	s7,s9
800016a8:	00000b13          	li	s6,0
800016ac:	02e787b3          	mul	a5,a5,a4
800016b0:	faf42823          	sw	a5,-80(s0)
800016b4:	01900793          	li	a5,25
800016b8:	02fb54b3          	divu	s1,s6,a5
800016bc:	fb042783          	lw	a5,-80(s0)
800016c0:	fa042703          	lw	a4,-96(s0)
800016c4:	000b8293          	mv	t0,s7
800016c8:	00f484b3          	add	s1,s1,a5
800016cc:	02e484b3          	mul	s1,s1,a4
800016d0:	df842783          	lw	a5,-520(s0)
800016d4:	009784b3          	add	s1,a5,s1
800016d8:	00e48a33          	add	s4,s1,a4
800016dc:	f4028793          	addi	a5,t0,-192
800016e0:	00048713          	mv	a4,s1
800016e4:	fba42c23          	sw	s10,-72(s0)
800016e8:	0087a903          	lw	s2,8(a5)
800016ec:	00c7a983          	lw	s3,12(a5)
800016f0:	0107af03          	lw	t5,16(a5)
800016f4:	0147af83          	lw	t6,20(a5)
800016f8:	0187ae03          	lw	t3,24(a5)
800016fc:	01c7ae83          	lw	t4,28(a5)
80001700:	0207a303          	lw	t1,32(a5)
80001704:	0247a383          	lw	t2,36(a5)
80001708:	0287a803          	lw	a6,40(a5)
8000170c:	02c7a883          	lw	a7,44(a5)
80001710:	0307a503          	lw	a0,48(a5)
80001714:	0347a583          	lw	a1,52(a5)
80001718:	0387a603          	lw	a2,56(a5)
8000171c:	03c7a683          	lw	a3,60(a5)
80001720:	0007ad03          	lw	s10,0(a5)
80001724:	0047ad83          	lw	s11,4(a5)
80001728:	01272423          	sw	s2,8(a4)
8000172c:	01a72023          	sw	s10,0(a4)
80001730:	01b72223          	sw	s11,4(a4)
80001734:	01372623          	sw	s3,12(a4)
80001738:	01e72823          	sw	t5,16(a4)
8000173c:	01f72a23          	sw	t6,20(a4)
80001740:	01c72c23          	sw	t3,24(a4)
80001744:	01d72e23          	sw	t4,28(a4)
80001748:	02672023          	sw	t1,32(a4)
8000174c:	02772223          	sw	t2,36(a4)
80001750:	03072423          	sw	a6,40(a4)
80001754:	03172623          	sw	a7,44(a4)
80001758:	02a72823          	sw	a0,48(a4)
8000175c:	02b72a23          	sw	a1,52(a4)
80001760:	02c72c23          	sw	a2,56(a4)
80001764:	02d72e23          	sw	a3,60(a4)
80001768:	04078793          	addi	a5,a5,64
8000176c:	04070713          	addi	a4,a4,64
80001770:	f6f29ce3          	bne	t0,a5,800016e8 <mm_cb+0x33c>
80001774:	0002a703          	lw	a4,0(t0)
80001778:	0042a783          	lw	a5,4(t0)
8000177c:	0c848493          	addi	s1,s1,200
80001780:	fee4ac23          	sw	a4,-8(s1)
80001784:	fef4ae23          	sw	a5,-4(s1)
80001788:	fb842d03          	lw	s10,-72(s0)
8000178c:	015282b3          	add	t0,t0,s5
80001790:	f49a16e3          	bne	s4,s1,800016dc <mm_cb+0x330>
80001794:	e1042783          	lw	a5,-496(s0)
80001798:	019b0b13          	addi	s6,s6,25
8000179c:	0c8b8b93          	addi	s7,s7,200
800017a0:	f0fb6ae3          	bltu	s6,a5,800016b4 <mm_cb+0x308>
800017a4:	fa842783          	lw	a5,-88(s0)
800017a8:	018c0c13          	addi	s8,s8,24
800017ac:	00fc8cb3          	add	s9,s9,a5
800017b0:	e2842783          	lw	a5,-472(s0)
800017b4:	ecfc6ee3          	bltu	s8,a5,80001690 <mm_cb+0x2e4>
800017b8:	e2442783          	lw	a5,-476(s0)
800017bc:	00179d93          	slli	s11,a5,0x1
800017c0:	00379793          	slli	a5,a5,0x3
800017c4:	daf42623          	sw	a5,-596(s0)
800017c8:	e0042783          	lw	a5,-512(s0)
800017cc:	00079463          	bnez	a5,800017d4 <mm_cb+0x428>
800017d0:	3850306f          	j	80005354 <mm_cb+0x3fa8>
800017d4:	00042783          	lw	a5,0(s0)
800017d8:	00042703          	lw	a4,0(s0)
800017dc:	00000c13          	li	s8,0
800017e0:	00179793          	slli	a5,a5,0x1
800017e4:	00e787b3          	add	a5,a5,a4
800017e8:	00679793          	slli	a5,a5,0x6
800017ec:	d8f42823          	sw	a5,-624(s0)
800017f0:	dd842783          	lw	a5,-552(s0)
800017f4:	00371493          	slli	s1,a4,0x3
800017f8:	d6942e23          	sw	s1,-644(s0)
800017fc:	0c078c93          	addi	s9,a5,192
80001800:	000017b7          	lui	a5,0x1
80001804:	2c078793          	addi	a5,a5,704 # 12c0 <_tbss_end+0x123c>
80001808:	faf42023          	sw	a5,-96(s0)
8000180c:	e1042783          	lw	a5,-496(s0)
80001810:	10078c63          	beqz	a5,80001928 <mm_cb+0x57c>
80001814:	01800793          	li	a5,24
80001818:	02fc57b3          	divu	a5,s8,a5
8000181c:	e1442703          	lw	a4,-492(s0)
80001820:	000c8b93          	mv	s7,s9
80001824:	00000b13          	li	s6,0
80001828:	02e787b3          	mul	a5,a5,a4
8000182c:	faf42423          	sw	a5,-88(s0)
80001830:	01900793          	li	a5,25
80001834:	02fb5633          	divu	a2,s6,a5
80001838:	fa842783          	lw	a5,-88(s0)
8000183c:	de842703          	lw	a4,-536(s0)
80001840:	000b8693          	mv	a3,s7
80001844:	00f60633          	add	a2,a2,a5
80001848:	fa042783          	lw	a5,-96(s0)
8000184c:	02f60633          	mul	a2,a2,a5
80001850:	00c70633          	add	a2,a4,a2
80001854:	00f602b3          	add	t0,a2,a5
80001858:	f4068793          	addi	a5,a3,-192
8000185c:	00060713          	mv	a4,a2
80001860:	fb642c23          	sw	s6,-72(s0)
80001864:	fb742823          	sw	s7,-80(s0)
80001868:	0087aa03          	lw	s4,8(a5)
8000186c:	00c7aa83          	lw	s5,12(a5)
80001870:	0107a903          	lw	s2,16(a5)
80001874:	0147a983          	lw	s3,20(a5)
80001878:	0187af03          	lw	t5,24(a5)
8000187c:	01c7af83          	lw	t6,28(a5)
80001880:	0207ae03          	lw	t3,32(a5)
80001884:	0247ae83          	lw	t4,36(a5)
80001888:	0287a303          	lw	t1,40(a5)
8000188c:	02c7a383          	lw	t2,44(a5)
80001890:	0307a803          	lw	a6,48(a5)
80001894:	0347a883          	lw	a7,52(a5)
80001898:	0387a503          	lw	a0,56(a5)
8000189c:	03c7a583          	lw	a1,60(a5)
800018a0:	0007ab03          	lw	s6,0(a5)
800018a4:	0047ab83          	lw	s7,4(a5)
800018a8:	01472423          	sw	s4,8(a4)
800018ac:	01672023          	sw	s6,0(a4)
800018b0:	01772223          	sw	s7,4(a4)
800018b4:	01572623          	sw	s5,12(a4)
800018b8:	01272823          	sw	s2,16(a4)
800018bc:	01372a23          	sw	s3,20(a4)
800018c0:	01e72c23          	sw	t5,24(a4)
800018c4:	01f72e23          	sw	t6,28(a4)
800018c8:	03c72023          	sw	t3,32(a4)
800018cc:	03d72223          	sw	t4,36(a4)
800018d0:	02672423          	sw	t1,40(a4)
800018d4:	02772623          	sw	t2,44(a4)
800018d8:	03072823          	sw	a6,48(a4)
800018dc:	03172a23          	sw	a7,52(a4)
800018e0:	02a72c23          	sw	a0,56(a4)
800018e4:	02b72e23          	sw	a1,60(a4)
800018e8:	04078793          	addi	a5,a5,64
800018ec:	04070713          	addi	a4,a4,64
800018f0:	f6f69ce3          	bne	a3,a5,80001868 <mm_cb+0x4bc>
800018f4:	0006a703          	lw	a4,0(a3)
800018f8:	0046a783          	lw	a5,4(a3)
800018fc:	0c860613          	addi	a2,a2,200
80001900:	fee62c23          	sw	a4,-8(a2)
80001904:	fef62e23          	sw	a5,-4(a2)
80001908:	fb842b03          	lw	s6,-72(s0)
8000190c:	fb042b83          	lw	s7,-80(s0)
80001910:	009686b3          	add	a3,a3,s1
80001914:	f4c292e3          	bne	t0,a2,80001858 <mm_cb+0x4ac>
80001918:	e1042783          	lw	a5,-496(s0)
8000191c:	019b0b13          	addi	s6,s6,25
80001920:	0c8b8b93          	addi	s7,s7,200
80001924:	f0fb66e3          	bltu	s6,a5,80001830 <mm_cb+0x484>
80001928:	d9042783          	lw	a5,-624(s0)
8000192c:	018c0c13          	addi	s8,s8,24
80001930:	00fc8cb3          	add	s9,s9,a5
80001934:	e0042783          	lw	a5,-512(s0)
80001938:	ecfc6ae3          	bltu	s8,a5,8000180c <mm_cb+0x460>
8000193c:	e2c42803          	lw	a6,-468(s0)
80001940:	e0442703          	lw	a4,-508(s0)
80001944:	e2442e83          	lw	t4,-476(s0)
80001948:	01800793          	li	a5,24
8000194c:	02f778b3          	remu	a7,a4,a5
80001950:	00281793          	slli	a5,a6,0x2
80001954:	010787b3          	add	a5,a5,a6
80001958:	00379793          	slli	a5,a5,0x3
8000195c:	01dd8db3          	add	s11,s11,t4
80001960:	e1042703          	lw	a4,-496(s0)
80001964:	e6f42823          	sw	a5,-400(s0)
80001968:	006d9793          	slli	a5,s11,0x6
8000196c:	daf42a23          	sw	a5,-588(s0)
80001970:	dd842783          	lw	a5,-552(s0)
80001974:	00371713          	slli	a4,a4,0x3
80001978:	e2842303          	lw	t1,-472(s0)
8000197c:	00e787b3          	add	a5,a5,a4
80001980:	dcf42223          	sw	a5,-572(s0)
80001984:	d9442783          	lw	a5,-620(s0)
80001988:	010d0d33          	add	s10,s10,a6
8000198c:	00481f13          	slli	t5,a6,0x4
80001990:	00331593          	slli	a1,t1,0x3
80001994:	00581813          	slli	a6,a6,0x5
80001998:	00b787b3          	add	a5,a5,a1
8000199c:	e7042c23          	sw	a6,-392(s0)
800019a0:	db842803          	lw	a6,-584(s0)
800019a4:	e2f42e23          	sw	a5,-452(s0)
800019a8:	005e9793          	slli	a5,t4,0x5
800019ac:	def42223          	sw	a5,-540(s0)
800019b0:	006d1793          	slli	a5,s10,0x6
800019b4:	40600533          	neg	a0,t1
800019b8:	d6f42823          	sw	a5,-656(s0)
800019bc:	00e807b3          	add	a5,a6,a4
800019c0:	d6f42a23          	sw	a5,-652(s0)
800019c4:	00351793          	slli	a5,a0,0x3
800019c8:	d6f42623          	sw	a5,-660(s0)
800019cc:	00042783          	lw	a5,0(s0)
800019d0:	dec42703          	lw	a4,-532(s0)
800019d4:	000016b7          	lui	a3,0x1
800019d8:	00579793          	slli	a5,a5,0x5
800019dc:	d8f42c23          	sw	a5,-616(s0)
800019e0:	38868793          	addi	a5,a3,904 # 1388 <_tbss_end+0x1304>
800019e4:	d8f42423          	sw	a5,-632(s0)
800019e8:	01900793          	li	a5,25
800019ec:	02f77533          	remu	a0,a4,a5
800019f0:	00389793          	slli	a5,a7,0x3
800019f4:	daf42223          	sw	a5,-604(s0)
800019f8:	00600793          	li	a5,6
800019fc:	00500613          	li	a2,5
80001a00:	004d1e13          	slli	t3,s10,0x4
80001a04:	e7e42e23          	sw	t5,-388(s0)
80001a08:	003d1f13          	slli	t5,s10,0x3
80001a0c:	dd142623          	sw	a7,-564(s0)
80001a10:	e9c42823          	sw	t3,-368(s0)
80001a14:	e7e42a23          	sw	t5,-396(s0)
80001a18:	dc042823          	sw	zero,-560(s0)
80001a1c:	02f8d7b3          	divu	a5,a7,a5
80001a20:	d8a42223          	sw	a0,-636(s0)
80001a24:	02c556b3          	divu	a3,a0,a2
80001a28:	00179713          	slli	a4,a5,0x1
80001a2c:	00f70733          	add	a4,a4,a5
80001a30:	00471713          	slli	a4,a4,0x4
80001a34:	e0e42e23          	sw	a4,-484(s0)
80001a38:	e9442703          	lw	a4,-364(s0)
80001a3c:	03c787b3          	mul	a5,a5,t3
80001a40:	00269593          	slli	a1,a3,0x2
80001a44:	00d586b3          	add	a3,a1,a3
80001a48:	e0d42c23          	sw	a3,-488(s0)
80001a4c:	00369693          	slli	a3,a3,0x3
80001a50:	dcd42423          	sw	a3,-568(s0)
80001a54:	02670733          	mul	a4,a4,t1
80001a58:	e2f42023          	sw	a5,-480(s0)
80001a5c:	00e807b3          	add	a5,a6,a4
80001a60:	d6f42c23          	sw	a5,-648(s0)
80001a64:	02c577b3          	remu	a5,a0,a2
80001a68:	daf42023          	sw	a5,-608(s0)
80001a6c:	e1042783          	lw	a5,-496(s0)
80001a70:	00079463          	bnez	a5,80001a78 <mm_cb+0x6cc>
80001a74:	2040706f          	j	80008c78 <mm_cb+0x78cc>
80001a78:	dd042703          	lw	a4,-560(s0)
80001a7c:	01800793          	li	a5,24
80001a80:	e3c42683          	lw	a3,-452(s0)
80001a84:	02f757b3          	divu	a5,a4,a5
80001a88:	db442703          	lw	a4,-588(s0)
80001a8c:	e2042a23          	sw	zero,-460(s0)
80001a90:	00d70733          	add	a4,a4,a3
80001a94:	dae42823          	sw	a4,-592(s0)
80001a98:	d7842703          	lw	a4,-648(s0)
80001a9c:	e2e42c23          	sw	a4,-456(s0)
80001aa0:	da842703          	lw	a4,-600(s0)
80001aa4:	02e78733          	mul	a4,a5,a4
80001aa8:	e4e42223          	sw	a4,-444(s0)
80001aac:	e1442703          	lw	a4,-492(s0)
80001ab0:	02e787b3          	mul	a5,a5,a4
80001ab4:	e2f42823          	sw	a5,-464(s0)
80001ab8:	e2842783          	lw	a5,-472(s0)
80001abc:	00079463          	bnez	a5,80001ac4 <mm_cb+0x718>
80001ac0:	7a80106f          	j	80003268 <mm_cb+0x1ebc>
80001ac4:	e3442783          	lw	a5,-460(s0)
80001ac8:	01900713          	li	a4,25
80001acc:	e4042e23          	sw	zero,-420(s0)
80001ad0:	02e7d7b3          	divu	a5,a5,a4
80001ad4:	e3042703          	lw	a4,-464(s0)
80001ad8:	e4f42a23          	sw	a5,-428(s0)
80001adc:	00e787b3          	add	a5,a5,a4
80001ae0:	00001737          	lui	a4,0x1
80001ae4:	2c070693          	addi	a3,a4,704 # 12c0 <_tbss_end+0x123c>
80001ae8:	02d787b3          	mul	a5,a5,a3
80001aec:	de842683          	lw	a3,-536(s0)
80001af0:	2c070713          	addi	a4,a4,704
80001af4:	00f687b3          	add	a5,a3,a5
80001af8:	00e78733          	add	a4,a5,a4
80001afc:	e4e42823          	sw	a4,-432(s0)
80001b00:	0c878713          	addi	a4,a5,200
80001b04:	e4e42623          	sw	a4,-436(s0)
80001b08:	d8842703          	lw	a4,-632(s0)
80001b0c:	00e787b3          	add	a5,a5,a4
80001b10:	e6f42023          	sw	a5,-416(s0)
80001b14:	e5c42783          	lw	a5,-420(s0)
80001b18:	01800713          	li	a4,24
80001b1c:	e4442683          	lw	a3,-444(s0)
80001b20:	02e7d7b3          	divu	a5,a5,a4
80001b24:	e4c42703          	lw	a4,-436(s0)
80001b28:	e8e42023          	sw	a4,-384(s0)
80001b2c:	e1442703          	lw	a4,-492(s0)
80001b30:	02e78733          	mul	a4,a5,a4
80001b34:	00f687b3          	add	a5,a3,a5
80001b38:	00379693          	slli	a3,a5,0x3
80001b3c:	00f687b3          	add	a5,a3,a5
80001b40:	dfc42683          	lw	a3,-516(s0)
80001b44:	00979793          	slli	a5,a5,0x9
80001b48:	00f687b3          	add	a5,a3,a5
80001b4c:	e4f42c23          	sw	a5,-424(s0)
80001b50:	e8f42c23          	sw	a5,-360(s0)
80001b54:	e5442783          	lw	a5,-428(s0)
80001b58:	00f707b3          	add	a5,a4,a5
80001b5c:	00001737          	lui	a4,0x1
80001b60:	2c070713          	addi	a4,a4,704 # 12c0 <_tbss_end+0x123c>
80001b64:	02e787b3          	mul	a5,a5,a4
80001b68:	df842703          	lw	a4,-520(s0)
80001b6c:	00f707b3          	add	a5,a4,a5
80001b70:	e6f42423          	sw	a5,-408(s0)
80001b74:	0c878793          	addi	a5,a5,200
80001b78:	e8f42423          	sw	a5,-376(s0)
80001b7c:	e8042783          	lw	a5,-384(s0)
80001b80:	f3878993          	addi	s3,a5,-200
80001b84:	e6842783          	lw	a5,-408(s0)
80001b88:	00098293          	mv	t0,s3
80001b8c:	eaf42423          	sw	a5,-344(s0)
80001b90:	0082a703          	lw	a4,8(t0)
80001b94:	00c2a783          	lw	a5,12(t0)
80001b98:	0002a803          	lw	a6,0(t0)
80001b9c:	f8e42423          	sw	a4,-120(s0)
80001ba0:	0102a703          	lw	a4,16(t0)
80001ba4:	f8f42623          	sw	a5,-116(s0)
80001ba8:	0142a783          	lw	a5,20(t0)
80001bac:	f8e42023          	sw	a4,-128(s0)
80001bb0:	0182a703          	lw	a4,24(t0)
80001bb4:	f8f42223          	sw	a5,-124(s0)
80001bb8:	01c2a783          	lw	a5,28(t0)
80001bbc:	f6e42c23          	sw	a4,-136(s0)
80001bc0:	0202a703          	lw	a4,32(t0)
80001bc4:	f6f42e23          	sw	a5,-132(s0)
80001bc8:	0242a783          	lw	a5,36(t0)
80001bcc:	f6e42823          	sw	a4,-144(s0)
80001bd0:	0c82a703          	lw	a4,200(t0)
80001bd4:	f6f42a23          	sw	a5,-140(s0)
80001bd8:	0cc2a783          	lw	a5,204(t0)
80001bdc:	f6e42423          	sw	a4,-152(s0)
80001be0:	0d02a703          	lw	a4,208(t0)
80001be4:	f6f42623          	sw	a5,-148(s0)
80001be8:	0d42a783          	lw	a5,212(t0)
80001bec:	f8e42823          	sw	a4,-112(s0)
80001bf0:	0d82a703          	lw	a4,216(t0)
80001bf4:	f8f42a23          	sw	a5,-108(s0)
80001bf8:	0dc2a783          	lw	a5,220(t0)
80001bfc:	fae42023          	sw	a4,-96(s0)
80001c00:	0e02a703          	lw	a4,224(t0)
80001c04:	faf42223          	sw	a5,-92(s0)
80001c08:	0e42a783          	lw	a5,228(t0)
80001c0c:	0042a883          	lw	a7,4(t0)
80001c10:	fae42423          	sw	a4,-88(s0)
80001c14:	0e82a703          	lw	a4,232(t0)
80001c18:	faf42623          	sw	a5,-84(s0)
80001c1c:	0ec2a783          	lw	a5,236(t0)
80001c20:	f6e42023          	sw	a4,-160(s0)
80001c24:	1902a703          	lw	a4,400(t0)
80001c28:	f6f42223          	sw	a5,-156(s0)
80001c2c:	1942a783          	lw	a5,404(t0)
80001c30:	f4e42c23          	sw	a4,-168(s0)
80001c34:	1982a703          	lw	a4,408(t0)
80001c38:	f4f42e23          	sw	a5,-164(s0)
80001c3c:	19c2a783          	lw	a5,412(t0)
80001c40:	f4e42823          	sw	a4,-176(s0)
80001c44:	1a02a703          	lw	a4,416(t0)
80001c48:	f4f42a23          	sw	a5,-172(s0)
80001c4c:	1a42a783          	lw	a5,420(t0)
80001c50:	f4e42423          	sw	a4,-184(s0)
80001c54:	1a82a703          	lw	a4,424(t0)
80001c58:	f4f42623          	sw	a5,-180(s0)
80001c5c:	1ac2a783          	lw	a5,428(t0)
80001c60:	f4e42023          	sw	a4,-192(s0)
80001c64:	1b02a703          	lw	a4,432(t0)
80001c68:	f4f42223          	sw	a5,-188(s0)
80001c6c:	1b42a783          	lw	a5,436(t0)
80001c70:	f2e42c23          	sw	a4,-200(s0)
80001c74:	2582a703          	lw	a4,600(t0)
80001c78:	f2f42e23          	sw	a5,-196(s0)
80001c7c:	25c2a783          	lw	a5,604(t0)
80001c80:	f2e42823          	sw	a4,-208(s0)
80001c84:	2602a703          	lw	a4,608(t0)
80001c88:	f2f42a23          	sw	a5,-204(s0)
80001c8c:	2642a783          	lw	a5,612(t0)
80001c90:	f2e42423          	sw	a4,-216(s0)
80001c94:	f2f42623          	sw	a5,-212(s0)
80001c98:	26c2a783          	lw	a5,620(t0)
80001c9c:	2682a703          	lw	a4,616(t0)
80001ca0:	2782a303          	lw	t1,632(t0)
80001ca4:	f2f42223          	sw	a5,-220(s0)
80001ca8:	2742a783          	lw	a5,628(t0)
80001cac:	f2e42023          	sw	a4,-224(s0)
80001cb0:	2702a703          	lw	a4,624(t0)
80001cb4:	f8f42e23          	sw	a5,-100(s0)
80001cb8:	ea842783          	lw	a5,-344(s0)
80001cbc:	f8e42c23          	sw	a4,-104(s0)
80001cc0:	27c2a383          	lw	t2,636(t0)
80001cc4:	00001737          	lui	a4,0x1
80001cc8:	e9842903          	lw	s2,-360(s0)
80001ccc:	2c070713          	addi	a4,a4,704 # 12c0 <_tbss_end+0x123c>
80001cd0:	00078493          	mv	s1,a5
80001cd4:	00e789b3          	add	s3,a5,a4
80001cd8:	ea542023          	sw	t0,-352(s0)
80001cdc:	00092a03          	lw	s4,0(s2)
80001ce0:	00492a83          	lw	s5,4(s2)
80001ce4:	0004a703          	lw	a4,0(s1)
80001ce8:	0044a783          	lw	a5,4(s1)
80001cec:	000a0513          	mv	a0,s4
80001cf0:	00070613          	mv	a2,a4
80001cf4:	00078693          	mv	a3,a5
80001cf8:	00080713          	mv	a4,a6
80001cfc:	00088793          	mv	a5,a7
80001d00:	000a8593          	mv	a1,s5
80001d04:	f0642823          	sw	t1,-240(s0)
80001d08:	f0742a23          	sw	t2,-236(s0)
80001d0c:	fac42c23          	sw	a2,-72(s0)
80001d10:	fad42e23          	sw	a3,-68(s0)
80001d14:	05c0a0ef          	jal	ra,8000bd70 <fma>
80001d18:	0084ad03          	lw	s10,8(s1)
80001d1c:	00c4ad83          	lw	s11,12(s1)
80001d20:	f8842703          	lw	a4,-120(s0)
80001d24:	f8c42783          	lw	a5,-116(s0)
80001d28:	000d0613          	mv	a2,s10
80001d2c:	000d8693          	mv	a3,s11
80001d30:	f0a42c23          	sw	a0,-232(s0)
80001d34:	f0b42e23          	sw	a1,-228(s0)
80001d38:	000a0513          	mv	a0,s4
80001d3c:	000a8593          	mv	a1,s5
80001d40:	0300a0ef          	jal	ra,8000bd70 <fma>
80001d44:	0104a783          	lw	a5,16(s1)
80001d48:	0144a803          	lw	a6,20(s1)
80001d4c:	f8042703          	lw	a4,-128(s0)
80001d50:	f0a42023          	sw	a0,-256(s0)
80001d54:	00080893          	mv	a7,a6
80001d58:	00078813          	mv	a6,a5
80001d5c:	f8442783          	lw	a5,-124(s0)
80001d60:	00080613          	mv	a2,a6
80001d64:	00088693          	mv	a3,a7
80001d68:	f0b42223          	sw	a1,-252(s0)
80001d6c:	000a0513          	mv	a0,s4
80001d70:	000a8593          	mv	a1,s5
80001d74:	fb042823          	sw	a6,-80(s0)
80001d78:	fb142a23          	sw	a7,-76(s0)
80001d7c:	7f5090ef          	jal	ra,8000bd70 <fma>
80001d80:	0184ab03          	lw	s6,24(s1)
80001d84:	01c4ab83          	lw	s7,28(s1)
80001d88:	f7842703          	lw	a4,-136(s0)
80001d8c:	f7c42783          	lw	a5,-132(s0)
80001d90:	000b0613          	mv	a2,s6
80001d94:	000b8693          	mv	a3,s7
80001d98:	f0a42423          	sw	a0,-248(s0)
80001d9c:	f0b42623          	sw	a1,-244(s0)
80001da0:	000a0513          	mv	a0,s4
80001da4:	000a8593          	mv	a1,s5
80001da8:	7c9090ef          	jal	ra,8000bd70 <fma>
80001dac:	0204ac03          	lw	s8,32(s1)
80001db0:	0244ac83          	lw	s9,36(s1)
80001db4:	f7042703          	lw	a4,-144(s0)
80001db8:	f7442783          	lw	a5,-140(s0)
80001dbc:	000c0613          	mv	a2,s8
80001dc0:	000c8693          	mv	a3,s9
80001dc4:	f8a42423          	sw	a0,-120(s0)
80001dc8:	f8b42623          	sw	a1,-116(s0)
80001dcc:	000a0513          	mv	a0,s4
80001dd0:	000a8593          	mv	a1,s5
80001dd4:	79d090ef          	jal	ra,8000bd70 <fma>
80001dd8:	0c092a03          	lw	s4,192(s2)
80001ddc:	0c492a83          	lw	s5,196(s2)
80001de0:	f6842703          	lw	a4,-152(s0)
80001de4:	f6c42783          	lw	a5,-148(s0)
80001de8:	fb842603          	lw	a2,-72(s0)
80001dec:	f8a42023          	sw	a0,-128(s0)
80001df0:	f8b42223          	sw	a1,-124(s0)
80001df4:	fbc42683          	lw	a3,-68(s0)
80001df8:	000a0513          	mv	a0,s4
80001dfc:	000a8593          	mv	a1,s5
80001e00:	771090ef          	jal	ra,8000bd70 <fma>
80001e04:	f9042703          	lw	a4,-112(s0)
80001e08:	f9442783          	lw	a5,-108(s0)
80001e0c:	000d0613          	mv	a2,s10
80001e10:	000d8693          	mv	a3,s11
80001e14:	f6a42c23          	sw	a0,-136(s0)
80001e18:	f6b42e23          	sw	a1,-132(s0)
80001e1c:	000a0513          	mv	a0,s4
80001e20:	000a8593          	mv	a1,s5
80001e24:	74d090ef          	jal	ra,8000bd70 <fma>
80001e28:	fa042703          	lw	a4,-96(s0)
80001e2c:	fa442783          	lw	a5,-92(s0)
80001e30:	fb042603          	lw	a2,-80(s0)
80001e34:	fb442683          	lw	a3,-76(s0)
80001e38:	f8a42823          	sw	a0,-112(s0)
80001e3c:	f8b42a23          	sw	a1,-108(s0)
80001e40:	000a0513          	mv	a0,s4
80001e44:	000a8593          	mv	a1,s5
80001e48:	729090ef          	jal	ra,8000bd70 <fma>
80001e4c:	fa842703          	lw	a4,-88(s0)
80001e50:	fac42783          	lw	a5,-84(s0)
80001e54:	000b0613          	mv	a2,s6
80001e58:	000b8693          	mv	a3,s7
80001e5c:	faa42023          	sw	a0,-96(s0)
80001e60:	fab42223          	sw	a1,-92(s0)
80001e64:	000a0513          	mv	a0,s4
80001e68:	000a8593          	mv	a1,s5
80001e6c:	705090ef          	jal	ra,8000bd70 <fma>
80001e70:	f6042703          	lw	a4,-160(s0)
80001e74:	f6442783          	lw	a5,-156(s0)
80001e78:	000c0613          	mv	a2,s8
80001e7c:	000c8693          	mv	a3,s9
80001e80:	faa42423          	sw	a0,-88(s0)
80001e84:	fab42623          	sw	a1,-84(s0)
80001e88:	000a0513          	mv	a0,s4
80001e8c:	000a8593          	mv	a1,s5
80001e90:	6e1090ef          	jal	ra,8000bd70 <fma>
80001e94:	18092a03          	lw	s4,384(s2)
80001e98:	18492a83          	lw	s5,388(s2)
80001e9c:	f5842703          	lw	a4,-168(s0)
80001ea0:	f5c42783          	lw	a5,-164(s0)
80001ea4:	fb842603          	lw	a2,-72(s0)
80001ea8:	fbc42683          	lw	a3,-68(s0)
80001eac:	f6a42823          	sw	a0,-144(s0)
80001eb0:	f6b42a23          	sw	a1,-140(s0)
80001eb4:	000a0513          	mv	a0,s4
80001eb8:	000a8593          	mv	a1,s5
80001ebc:	6b5090ef          	jal	ra,8000bd70 <fma>
80001ec0:	f5042703          	lw	a4,-176(s0)
80001ec4:	f5442783          	lw	a5,-172(s0)
80001ec8:	000d0613          	mv	a2,s10
80001ecc:	000d8693          	mv	a3,s11
80001ed0:	f6a42423          	sw	a0,-152(s0)
80001ed4:	f6b42623          	sw	a1,-148(s0)
80001ed8:	000a0513          	mv	a0,s4
80001edc:	000a8593          	mv	a1,s5
80001ee0:	691090ef          	jal	ra,8000bd70 <fma>
80001ee4:	f4842703          	lw	a4,-184(s0)
80001ee8:	f4c42783          	lw	a5,-180(s0)
80001eec:	fb042603          	lw	a2,-80(s0)
80001ef0:	fb442683          	lw	a3,-76(s0)
80001ef4:	f6a42023          	sw	a0,-160(s0)
80001ef8:	f6b42223          	sw	a1,-156(s0)
80001efc:	000a0513          	mv	a0,s4
80001f00:	000a8593          	mv	a1,s5
80001f04:	66d090ef          	jal	ra,8000bd70 <fma>
80001f08:	f4042703          	lw	a4,-192(s0)
80001f0c:	f4442783          	lw	a5,-188(s0)
80001f10:	000b0613          	mv	a2,s6
80001f14:	000b8693          	mv	a3,s7
80001f18:	f4a42c23          	sw	a0,-168(s0)
80001f1c:	f4b42e23          	sw	a1,-164(s0)
80001f20:	000a0513          	mv	a0,s4
80001f24:	000a8593          	mv	a1,s5
80001f28:	649090ef          	jal	ra,8000bd70 <fma>
80001f2c:	f3842703          	lw	a4,-200(s0)
80001f30:	f3c42783          	lw	a5,-196(s0)
80001f34:	000c0613          	mv	a2,s8
80001f38:	000c8693          	mv	a3,s9
80001f3c:	f4a42823          	sw	a0,-176(s0)
80001f40:	f4b42a23          	sw	a1,-172(s0)
80001f44:	000a0513          	mv	a0,s4
80001f48:	000a8593          	mv	a1,s5
80001f4c:	625090ef          	jal	ra,8000bd70 <fma>
80001f50:	24092a03          	lw	s4,576(s2)
80001f54:	24492a83          	lw	s5,580(s2)
80001f58:	f3042703          	lw	a4,-208(s0)
80001f5c:	f3442783          	lw	a5,-204(s0)
80001f60:	fb842603          	lw	a2,-72(s0)
80001f64:	fbc42683          	lw	a3,-68(s0)
80001f68:	f4a42423          	sw	a0,-184(s0)
80001f6c:	f4b42623          	sw	a1,-180(s0)
80001f70:	000a0513          	mv	a0,s4
80001f74:	000a8593          	mv	a1,s5
80001f78:	5f9090ef          	jal	ra,8000bd70 <fma>
80001f7c:	f2842703          	lw	a4,-216(s0)
80001f80:	f2c42783          	lw	a5,-212(s0)
80001f84:	000d0613          	mv	a2,s10
80001f88:	000d8693          	mv	a3,s11
80001f8c:	f4a42023          	sw	a0,-192(s0)
80001f90:	f4b42223          	sw	a1,-188(s0)
80001f94:	000a0513          	mv	a0,s4
80001f98:	000a8593          	mv	a1,s5
80001f9c:	5d5090ef          	jal	ra,8000bd70 <fma>
80001fa0:	f2042703          	lw	a4,-224(s0)
80001fa4:	f2442783          	lw	a5,-220(s0)
80001fa8:	fb042603          	lw	a2,-80(s0)
80001fac:	fb442683          	lw	a3,-76(s0)
80001fb0:	f2a42c23          	sw	a0,-200(s0)
80001fb4:	f2b42e23          	sw	a1,-196(s0)
80001fb8:	000a0513          	mv	a0,s4
80001fbc:	000a8593          	mv	a1,s5
80001fc0:	5b1090ef          	jal	ra,8000bd70 <fma>
80001fc4:	f9842703          	lw	a4,-104(s0)
80001fc8:	f9c42783          	lw	a5,-100(s0)
80001fcc:	000b0613          	mv	a2,s6
80001fd0:	000b8693          	mv	a3,s7
80001fd4:	f2a42823          	sw	a0,-208(s0)
80001fd8:	f2b42a23          	sw	a1,-204(s0)
80001fdc:	000a0513          	mv	a0,s4
80001fe0:	000a8593          	mv	a1,s5
80001fe4:	58d090ef          	jal	ra,8000bd70 <fma>
80001fe8:	f1042303          	lw	t1,-240(s0)
80001fec:	f1442383          	lw	t2,-236(s0)
80001ff0:	000c0613          	mv	a2,s8
80001ff4:	00030713          	mv	a4,t1
80001ff8:	00038793          	mv	a5,t2
80001ffc:	000c8693          	mv	a3,s9
80002000:	f8a42c23          	sw	a0,-104(s0)
80002004:	f8b42e23          	sw	a1,-100(s0)
80002008:	000a0513          	mv	a0,s4
8000200c:	000a8593          	mv	a1,s5
80002010:	561090ef          	jal	ra,8000bd70 <fma>
80002014:	f0a42823          	sw	a0,-240(s0)
80002018:	00892a03          	lw	s4,8(s2)
8000201c:	00c92a83          	lw	s5,12(s2)
80002020:	f0b42a23          	sw	a1,-236(s0)
80002024:	0c84a603          	lw	a2,200(s1)
80002028:	f1842803          	lw	a6,-232(s0)
8000202c:	f1c42883          	lw	a7,-228(s0)
80002030:	0cc4a683          	lw	a3,204(s1)
80002034:	00080713          	mv	a4,a6
80002038:	00088793          	mv	a5,a7
8000203c:	000a0513          	mv	a0,s4
80002040:	000a8593          	mv	a1,s5
80002044:	fac42c23          	sw	a2,-72(s0)
80002048:	fad42e23          	sw	a3,-68(s0)
8000204c:	525090ef          	jal	ra,8000bd70 <fma>
80002050:	f0042e03          	lw	t3,-256(s0)
80002054:	f0442e83          	lw	t4,-252(s0)
80002058:	0d04ad03          	lw	s10,208(s1)
8000205c:	0d44ad83          	lw	s11,212(s1)
80002060:	000e0713          	mv	a4,t3
80002064:	000e8793          	mv	a5,t4
80002068:	000d0613          	mv	a2,s10
8000206c:	000d8693          	mv	a3,s11
80002070:	f0a42c23          	sw	a0,-232(s0)
80002074:	f0b42e23          	sw	a1,-228(s0)
80002078:	000a0513          	mv	a0,s4
8000207c:	000a8593          	mv	a1,s5
80002080:	4f1090ef          	jal	ra,8000bd70 <fma>
80002084:	0d84a803          	lw	a6,216(s1)
80002088:	0dc4a883          	lw	a7,220(s1)
8000208c:	f0842f03          	lw	t5,-248(s0)
80002090:	f0c42f83          	lw	t6,-244(s0)
80002094:	00080613          	mv	a2,a6
80002098:	000f0713          	mv	a4,t5
8000209c:	000f8793          	mv	a5,t6
800020a0:	00088693          	mv	a3,a7
800020a4:	f2a42023          	sw	a0,-224(s0)
800020a8:	f2b42223          	sw	a1,-220(s0)
800020ac:	000a0513          	mv	a0,s4
800020b0:	000a8593          	mv	a1,s5
800020b4:	fb042823          	sw	a6,-80(s0)
800020b8:	fb142a23          	sw	a7,-76(s0)
800020bc:	4b5090ef          	jal	ra,8000bd70 <fma>
800020c0:	0e04ac03          	lw	s8,224(s1)
800020c4:	0e44ac83          	lw	s9,228(s1)
800020c8:	f8842703          	lw	a4,-120(s0)
800020cc:	f8c42783          	lw	a5,-116(s0)
800020d0:	000c0613          	mv	a2,s8
800020d4:	000c8693          	mv	a3,s9
800020d8:	f2a42423          	sw	a0,-216(s0)
800020dc:	f2b42623          	sw	a1,-212(s0)
800020e0:	000a0513          	mv	a0,s4
800020e4:	000a8593          	mv	a1,s5
800020e8:	489090ef          	jal	ra,8000bd70 <fma>
800020ec:	0e84ab03          	lw	s6,232(s1)
800020f0:	0ec4ab83          	lw	s7,236(s1)
800020f4:	f8042703          	lw	a4,-128(s0)
800020f8:	f8442783          	lw	a5,-124(s0)
800020fc:	000b0613          	mv	a2,s6
80002100:	000b8693          	mv	a3,s7
80002104:	f8a42423          	sw	a0,-120(s0)
80002108:	f8b42623          	sw	a1,-116(s0)
8000210c:	000a0513          	mv	a0,s4
80002110:	000a8593          	mv	a1,s5
80002114:	45d090ef          	jal	ra,8000bd70 <fma>
80002118:	0c892a03          	lw	s4,200(s2)
8000211c:	0cc92a83          	lw	s5,204(s2)
80002120:	f7842703          	lw	a4,-136(s0)
80002124:	f7c42783          	lw	a5,-132(s0)
80002128:	fb842603          	lw	a2,-72(s0)
8000212c:	f8a42023          	sw	a0,-128(s0)
80002130:	f8b42223          	sw	a1,-124(s0)
80002134:	fbc42683          	lw	a3,-68(s0)
80002138:	000a0513          	mv	a0,s4
8000213c:	000a8593          	mv	a1,s5
80002140:	431090ef          	jal	ra,8000bd70 <fma>
80002144:	f9042703          	lw	a4,-112(s0)
80002148:	f9442783          	lw	a5,-108(s0)
8000214c:	000d0613          	mv	a2,s10
80002150:	000d8693          	mv	a3,s11
80002154:	f6a42c23          	sw	a0,-136(s0)
80002158:	f6b42e23          	sw	a1,-132(s0)
8000215c:	000a0513          	mv	a0,s4
80002160:	000a8593          	mv	a1,s5
80002164:	40d090ef          	jal	ra,8000bd70 <fma>
80002168:	fa042703          	lw	a4,-96(s0)
8000216c:	fa442783          	lw	a5,-92(s0)
80002170:	fb042603          	lw	a2,-80(s0)
80002174:	fb442683          	lw	a3,-76(s0)
80002178:	f8a42823          	sw	a0,-112(s0)
8000217c:	f8b42a23          	sw	a1,-108(s0)
80002180:	000a0513          	mv	a0,s4
80002184:	000a8593          	mv	a1,s5
80002188:	3e9090ef          	jal	ra,8000bd70 <fma>
8000218c:	fa842703          	lw	a4,-88(s0)
80002190:	fac42783          	lw	a5,-84(s0)
80002194:	000c0613          	mv	a2,s8
80002198:	000c8693          	mv	a3,s9
8000219c:	faa42023          	sw	a0,-96(s0)
800021a0:	fab42223          	sw	a1,-92(s0)
800021a4:	000a0513          	mv	a0,s4
800021a8:	000a8593          	mv	a1,s5
800021ac:	3c5090ef          	jal	ra,8000bd70 <fma>
800021b0:	f7042703          	lw	a4,-144(s0)
800021b4:	f7442783          	lw	a5,-140(s0)
800021b8:	000b0613          	mv	a2,s6
800021bc:	000b8693          	mv	a3,s7
800021c0:	faa42423          	sw	a0,-88(s0)
800021c4:	fab42623          	sw	a1,-84(s0)
800021c8:	000a0513          	mv	a0,s4
800021cc:	000a8593          	mv	a1,s5
800021d0:	3a1090ef          	jal	ra,8000bd70 <fma>
800021d4:	18892a03          	lw	s4,392(s2)
800021d8:	18c92a83          	lw	s5,396(s2)
800021dc:	f6842703          	lw	a4,-152(s0)
800021e0:	f6c42783          	lw	a5,-148(s0)
800021e4:	fb842603          	lw	a2,-72(s0)
800021e8:	fbc42683          	lw	a3,-68(s0)
800021ec:	f6a42823          	sw	a0,-144(s0)
800021f0:	f6b42a23          	sw	a1,-140(s0)
800021f4:	000a0513          	mv	a0,s4
800021f8:	000a8593          	mv	a1,s5
800021fc:	375090ef          	jal	ra,8000bd70 <fma>
80002200:	f6042703          	lw	a4,-160(s0)
80002204:	f6442783          	lw	a5,-156(s0)
80002208:	000d0613          	mv	a2,s10
8000220c:	000d8693          	mv	a3,s11
80002210:	f6a42423          	sw	a0,-152(s0)
80002214:	f6b42623          	sw	a1,-148(s0)
80002218:	000a0513          	mv	a0,s4
8000221c:	000a8593          	mv	a1,s5
80002220:	351090ef          	jal	ra,8000bd70 <fma>
80002224:	f5842703          	lw	a4,-168(s0)
80002228:	f5c42783          	lw	a5,-164(s0)
8000222c:	fb042603          	lw	a2,-80(s0)
80002230:	fb442683          	lw	a3,-76(s0)
80002234:	f6a42023          	sw	a0,-160(s0)
80002238:	f6b42223          	sw	a1,-156(s0)
8000223c:	000a0513          	mv	a0,s4
80002240:	000a8593          	mv	a1,s5
80002244:	32d090ef          	jal	ra,8000bd70 <fma>
80002248:	f5042703          	lw	a4,-176(s0)
8000224c:	f5442783          	lw	a5,-172(s0)
80002250:	000c0613          	mv	a2,s8
80002254:	000c8693          	mv	a3,s9
80002258:	f4a42c23          	sw	a0,-168(s0)
8000225c:	f4b42e23          	sw	a1,-164(s0)
80002260:	000a0513          	mv	a0,s4
80002264:	000a8593          	mv	a1,s5
80002268:	309090ef          	jal	ra,8000bd70 <fma>
8000226c:	f4842703          	lw	a4,-184(s0)
80002270:	f4c42783          	lw	a5,-180(s0)
80002274:	000b0613          	mv	a2,s6
80002278:	000b8693          	mv	a3,s7
8000227c:	f4a42823          	sw	a0,-176(s0)
80002280:	f4b42a23          	sw	a1,-172(s0)
80002284:	000a0513          	mv	a0,s4
80002288:	000a8593          	mv	a1,s5
8000228c:	2e5090ef          	jal	ra,8000bd70 <fma>
80002290:	24892a03          	lw	s4,584(s2)
80002294:	24c92a83          	lw	s5,588(s2)
80002298:	f4042703          	lw	a4,-192(s0)
8000229c:	f4442783          	lw	a5,-188(s0)
800022a0:	fb842603          	lw	a2,-72(s0)
800022a4:	fbc42683          	lw	a3,-68(s0)
800022a8:	f4a42423          	sw	a0,-184(s0)
800022ac:	f4b42623          	sw	a1,-180(s0)
800022b0:	000a0513          	mv	a0,s4
800022b4:	000a8593          	mv	a1,s5
800022b8:	2b9090ef          	jal	ra,8000bd70 <fma>
800022bc:	f3842703          	lw	a4,-200(s0)
800022c0:	f3c42783          	lw	a5,-196(s0)
800022c4:	000d0613          	mv	a2,s10
800022c8:	000d8693          	mv	a3,s11
800022cc:	f4a42023          	sw	a0,-192(s0)
800022d0:	f4b42223          	sw	a1,-188(s0)
800022d4:	000a0513          	mv	a0,s4
800022d8:	000a8593          	mv	a1,s5
800022dc:	295090ef          	jal	ra,8000bd70 <fma>
800022e0:	f3042703          	lw	a4,-208(s0)
800022e4:	f3442783          	lw	a5,-204(s0)
800022e8:	fb042603          	lw	a2,-80(s0)
800022ec:	fb442683          	lw	a3,-76(s0)
800022f0:	f2a42c23          	sw	a0,-200(s0)
800022f4:	f2b42e23          	sw	a1,-196(s0)
800022f8:	000a0513          	mv	a0,s4
800022fc:	000a8593          	mv	a1,s5
80002300:	271090ef          	jal	ra,8000bd70 <fma>
80002304:	f9842703          	lw	a4,-104(s0)
80002308:	f9c42783          	lw	a5,-100(s0)
8000230c:	000c0613          	mv	a2,s8
80002310:	000c8693          	mv	a3,s9
80002314:	f2a42823          	sw	a0,-208(s0)
80002318:	f2b42a23          	sw	a1,-204(s0)
8000231c:	000a0513          	mv	a0,s4
80002320:	000a8593          	mv	a1,s5
80002324:	24d090ef          	jal	ra,8000bd70 <fma>
80002328:	f1042303          	lw	t1,-240(s0)
8000232c:	f1442383          	lw	t2,-236(s0)
80002330:	000b0613          	mv	a2,s6
80002334:	00030713          	mv	a4,t1
80002338:	00038793          	mv	a5,t2
8000233c:	000b8693          	mv	a3,s7
80002340:	f8a42c23          	sw	a0,-104(s0)
80002344:	f8b42e23          	sw	a1,-100(s0)
80002348:	000a0513          	mv	a0,s4
8000234c:	000a8593          	mv	a1,s5
80002350:	221090ef          	jal	ra,8000bd70 <fma>
80002354:	f0a42823          	sw	a0,-240(s0)
80002358:	01092a03          	lw	s4,16(s2)
8000235c:	01492a83          	lw	s5,20(s2)
80002360:	f0b42a23          	sw	a1,-236(s0)
80002364:	1904a603          	lw	a2,400(s1)
80002368:	f1842803          	lw	a6,-232(s0)
8000236c:	f1c42883          	lw	a7,-228(s0)
80002370:	1944a683          	lw	a3,404(s1)
80002374:	00080713          	mv	a4,a6
80002378:	00088793          	mv	a5,a7
8000237c:	000a0513          	mv	a0,s4
80002380:	000a8593          	mv	a1,s5
80002384:	fac42c23          	sw	a2,-72(s0)
80002388:	fad42e23          	sw	a3,-68(s0)
8000238c:	1e5090ef          	jal	ra,8000bd70 <fma>
80002390:	f2042e03          	lw	t3,-224(s0)
80002394:	f2442e83          	lw	t4,-220(s0)
80002398:	1984ad03          	lw	s10,408(s1)
8000239c:	19c4ad83          	lw	s11,412(s1)
800023a0:	000e0713          	mv	a4,t3
800023a4:	000e8793          	mv	a5,t4
800023a8:	000d0613          	mv	a2,s10
800023ac:	000d8693          	mv	a3,s11
800023b0:	f0a42c23          	sw	a0,-232(s0)
800023b4:	f0b42e23          	sw	a1,-228(s0)
800023b8:	000a0513          	mv	a0,s4
800023bc:	000a8593          	mv	a1,s5
800023c0:	1b1090ef          	jal	ra,8000bd70 <fma>
800023c4:	f2842f03          	lw	t5,-216(s0)
800023c8:	f2c42f83          	lw	t6,-212(s0)
800023cc:	1a04a803          	lw	a6,416(s1)
800023d0:	1a44a883          	lw	a7,420(s1)
800023d4:	000f0713          	mv	a4,t5
800023d8:	000f8793          	mv	a5,t6
800023dc:	00080613          	mv	a2,a6
800023e0:	00088693          	mv	a3,a7
800023e4:	f2a42023          	sw	a0,-224(s0)
800023e8:	f2b42223          	sw	a1,-220(s0)
800023ec:	000a0513          	mv	a0,s4
800023f0:	000a8593          	mv	a1,s5
800023f4:	fb042823          	sw	a6,-80(s0)
800023f8:	fb142a23          	sw	a7,-76(s0)
800023fc:	175090ef          	jal	ra,8000bd70 <fma>
80002400:	1a84ac03          	lw	s8,424(s1)
80002404:	1ac4ac83          	lw	s9,428(s1)
80002408:	f8842703          	lw	a4,-120(s0)
8000240c:	f8c42783          	lw	a5,-116(s0)
80002410:	000c0613          	mv	a2,s8
80002414:	000c8693          	mv	a3,s9
80002418:	f2a42423          	sw	a0,-216(s0)
8000241c:	f2b42623          	sw	a1,-212(s0)
80002420:	000a0513          	mv	a0,s4
80002424:	000a8593          	mv	a1,s5
80002428:	149090ef          	jal	ra,8000bd70 <fma>
8000242c:	1b04ab03          	lw	s6,432(s1)
80002430:	1b44ab83          	lw	s7,436(s1)
80002434:	f8042703          	lw	a4,-128(s0)
80002438:	f8442783          	lw	a5,-124(s0)
8000243c:	000b0613          	mv	a2,s6
80002440:	000b8693          	mv	a3,s7
80002444:	f8a42423          	sw	a0,-120(s0)
80002448:	f8b42623          	sw	a1,-116(s0)
8000244c:	000a0513          	mv	a0,s4
80002450:	000a8593          	mv	a1,s5
80002454:	11d090ef          	jal	ra,8000bd70 <fma>
80002458:	0d092a03          	lw	s4,208(s2)
8000245c:	0d492a83          	lw	s5,212(s2)
80002460:	f7842703          	lw	a4,-136(s0)
80002464:	f7c42783          	lw	a5,-132(s0)
80002468:	fb842603          	lw	a2,-72(s0)
8000246c:	f8a42023          	sw	a0,-128(s0)
80002470:	f8b42223          	sw	a1,-124(s0)
80002474:	fbc42683          	lw	a3,-68(s0)
80002478:	000a0513          	mv	a0,s4
8000247c:	000a8593          	mv	a1,s5
80002480:	0f1090ef          	jal	ra,8000bd70 <fma>
80002484:	f9042703          	lw	a4,-112(s0)
80002488:	f9442783          	lw	a5,-108(s0)
8000248c:	000d0613          	mv	a2,s10
80002490:	000d8693          	mv	a3,s11
80002494:	f6a42c23          	sw	a0,-136(s0)
80002498:	f6b42e23          	sw	a1,-132(s0)
8000249c:	000a0513          	mv	a0,s4
800024a0:	000a8593          	mv	a1,s5
800024a4:	0cd090ef          	jal	ra,8000bd70 <fma>
800024a8:	fa042703          	lw	a4,-96(s0)
800024ac:	fa442783          	lw	a5,-92(s0)
800024b0:	fb042603          	lw	a2,-80(s0)
800024b4:	fb442683          	lw	a3,-76(s0)
800024b8:	f8a42823          	sw	a0,-112(s0)
800024bc:	f8b42a23          	sw	a1,-108(s0)
800024c0:	000a0513          	mv	a0,s4
800024c4:	000a8593          	mv	a1,s5
800024c8:	0a9090ef          	jal	ra,8000bd70 <fma>
800024cc:	fa842703          	lw	a4,-88(s0)
800024d0:	fac42783          	lw	a5,-84(s0)
800024d4:	000c0613          	mv	a2,s8
800024d8:	000c8693          	mv	a3,s9
800024dc:	faa42023          	sw	a0,-96(s0)
800024e0:	fab42223          	sw	a1,-92(s0)
800024e4:	000a0513          	mv	a0,s4
800024e8:	000a8593          	mv	a1,s5
800024ec:	085090ef          	jal	ra,8000bd70 <fma>
800024f0:	f7042703          	lw	a4,-144(s0)
800024f4:	f7442783          	lw	a5,-140(s0)
800024f8:	000b0613          	mv	a2,s6
800024fc:	000b8693          	mv	a3,s7
80002500:	faa42423          	sw	a0,-88(s0)
80002504:	fab42623          	sw	a1,-84(s0)
80002508:	000a0513          	mv	a0,s4
8000250c:	000a8593          	mv	a1,s5
80002510:	061090ef          	jal	ra,8000bd70 <fma>
80002514:	19092a03          	lw	s4,400(s2)
80002518:	19492a83          	lw	s5,404(s2)
8000251c:	f6842703          	lw	a4,-152(s0)
80002520:	f6c42783          	lw	a5,-148(s0)
80002524:	fb842603          	lw	a2,-72(s0)
80002528:	fbc42683          	lw	a3,-68(s0)
8000252c:	f6a42823          	sw	a0,-144(s0)
80002530:	f6b42a23          	sw	a1,-140(s0)
80002534:	000a0513          	mv	a0,s4
80002538:	000a8593          	mv	a1,s5
8000253c:	035090ef          	jal	ra,8000bd70 <fma>
80002540:	f6042703          	lw	a4,-160(s0)
80002544:	f6442783          	lw	a5,-156(s0)
80002548:	000d0613          	mv	a2,s10
8000254c:	000d8693          	mv	a3,s11
80002550:	f6a42423          	sw	a0,-152(s0)
80002554:	f6b42623          	sw	a1,-148(s0)
80002558:	000a0513          	mv	a0,s4
8000255c:	000a8593          	mv	a1,s5
80002560:	011090ef          	jal	ra,8000bd70 <fma>
80002564:	f5842703          	lw	a4,-168(s0)
80002568:	f5c42783          	lw	a5,-164(s0)
8000256c:	fb042603          	lw	a2,-80(s0)
80002570:	fb442683          	lw	a3,-76(s0)
80002574:	f6a42023          	sw	a0,-160(s0)
80002578:	f6b42223          	sw	a1,-156(s0)
8000257c:	000a0513          	mv	a0,s4
80002580:	000a8593          	mv	a1,s5
80002584:	7ec090ef          	jal	ra,8000bd70 <fma>
80002588:	f5042703          	lw	a4,-176(s0)
8000258c:	f5442783          	lw	a5,-172(s0)
80002590:	000c0613          	mv	a2,s8
80002594:	000c8693          	mv	a3,s9
80002598:	f4a42c23          	sw	a0,-168(s0)
8000259c:	f4b42e23          	sw	a1,-164(s0)
800025a0:	000a0513          	mv	a0,s4
800025a4:	000a8593          	mv	a1,s5
800025a8:	7c8090ef          	jal	ra,8000bd70 <fma>
800025ac:	f4842703          	lw	a4,-184(s0)
800025b0:	f4c42783          	lw	a5,-180(s0)
800025b4:	000b0613          	mv	a2,s6
800025b8:	000b8693          	mv	a3,s7
800025bc:	f4a42823          	sw	a0,-176(s0)
800025c0:	f4b42a23          	sw	a1,-172(s0)
800025c4:	000a0513          	mv	a0,s4
800025c8:	000a8593          	mv	a1,s5
800025cc:	7a4090ef          	jal	ra,8000bd70 <fma>
800025d0:	25092a03          	lw	s4,592(s2)
800025d4:	25492a83          	lw	s5,596(s2)
800025d8:	f4042703          	lw	a4,-192(s0)
800025dc:	f4442783          	lw	a5,-188(s0)
800025e0:	fb842603          	lw	a2,-72(s0)
800025e4:	fbc42683          	lw	a3,-68(s0)
800025e8:	f4a42423          	sw	a0,-184(s0)
800025ec:	f4b42623          	sw	a1,-180(s0)
800025f0:	000a0513          	mv	a0,s4
800025f4:	000a8593          	mv	a1,s5
800025f8:	778090ef          	jal	ra,8000bd70 <fma>
800025fc:	f3842703          	lw	a4,-200(s0)
80002600:	f3c42783          	lw	a5,-196(s0)
80002604:	000d0613          	mv	a2,s10
80002608:	000d8693          	mv	a3,s11
8000260c:	f4a42023          	sw	a0,-192(s0)
80002610:	f4b42223          	sw	a1,-188(s0)
80002614:	000a0513          	mv	a0,s4
80002618:	000a8593          	mv	a1,s5
8000261c:	754090ef          	jal	ra,8000bd70 <fma>
80002620:	f3042703          	lw	a4,-208(s0)
80002624:	f3442783          	lw	a5,-204(s0)
80002628:	fb042603          	lw	a2,-80(s0)
8000262c:	fb442683          	lw	a3,-76(s0)
80002630:	f2a42c23          	sw	a0,-200(s0)
80002634:	f2b42e23          	sw	a1,-196(s0)
80002638:	000a0513          	mv	a0,s4
8000263c:	000a8593          	mv	a1,s5
80002640:	730090ef          	jal	ra,8000bd70 <fma>
80002644:	f9842703          	lw	a4,-104(s0)
80002648:	f9c42783          	lw	a5,-100(s0)
8000264c:	000c0613          	mv	a2,s8
80002650:	000c8693          	mv	a3,s9
80002654:	f2a42823          	sw	a0,-208(s0)
80002658:	f2b42a23          	sw	a1,-204(s0)
8000265c:	000a0513          	mv	a0,s4
80002660:	000a8593          	mv	a1,s5
80002664:	70c090ef          	jal	ra,8000bd70 <fma>
80002668:	f1042303          	lw	t1,-240(s0)
8000266c:	f1442383          	lw	t2,-236(s0)
80002670:	000b0613          	mv	a2,s6
80002674:	00030713          	mv	a4,t1
80002678:	00038793          	mv	a5,t2
8000267c:	000b8693          	mv	a3,s7
80002680:	f8a42c23          	sw	a0,-104(s0)
80002684:	f8b42e23          	sw	a1,-100(s0)
80002688:	000a0513          	mv	a0,s4
8000268c:	000a8593          	mv	a1,s5
80002690:	6e0090ef          	jal	ra,8000bd70 <fma>
80002694:	f0a42823          	sw	a0,-240(s0)
80002698:	01892a03          	lw	s4,24(s2)
8000269c:	01c92a83          	lw	s5,28(s2)
800026a0:	f0b42a23          	sw	a1,-236(s0)
800026a4:	2584a603          	lw	a2,600(s1)
800026a8:	f1842803          	lw	a6,-232(s0)
800026ac:	f1c42883          	lw	a7,-228(s0)
800026b0:	25c4a683          	lw	a3,604(s1)
800026b4:	00080713          	mv	a4,a6
800026b8:	00088793          	mv	a5,a7
800026bc:	000a0513          	mv	a0,s4
800026c0:	000a8593          	mv	a1,s5
800026c4:	fac42c23          	sw	a2,-72(s0)
800026c8:	fad42e23          	sw	a3,-68(s0)
800026cc:	6a4090ef          	jal	ra,8000bd70 <fma>
800026d0:	f2042e03          	lw	t3,-224(s0)
800026d4:	f2442e83          	lw	t4,-220(s0)
800026d8:	2604ad03          	lw	s10,608(s1)
800026dc:	2644ad83          	lw	s11,612(s1)
800026e0:	000e0713          	mv	a4,t3
800026e4:	000e8793          	mv	a5,t4
800026e8:	000d0613          	mv	a2,s10
800026ec:	000d8693          	mv	a3,s11
800026f0:	f0a42c23          	sw	a0,-232(s0)
800026f4:	f0b42e23          	sw	a1,-228(s0)
800026f8:	000a0513          	mv	a0,s4
800026fc:	000a8593          	mv	a1,s5
80002700:	670090ef          	jal	ra,8000bd70 <fma>
80002704:	f2842f03          	lw	t5,-216(s0)
80002708:	f2c42f83          	lw	t6,-212(s0)
8000270c:	2684a803          	lw	a6,616(s1)
80002710:	26c4a883          	lw	a7,620(s1)
80002714:	000f0713          	mv	a4,t5
80002718:	000f8793          	mv	a5,t6
8000271c:	00080613          	mv	a2,a6
80002720:	00088693          	mv	a3,a7
80002724:	f2a42023          	sw	a0,-224(s0)
80002728:	f2b42223          	sw	a1,-220(s0)
8000272c:	000a0513          	mv	a0,s4
80002730:	000a8593          	mv	a1,s5
80002734:	fb042823          	sw	a6,-80(s0)
80002738:	fb142a23          	sw	a7,-76(s0)
8000273c:	634090ef          	jal	ra,8000bd70 <fma>
80002740:	2704ac03          	lw	s8,624(s1)
80002744:	2744ac83          	lw	s9,628(s1)
80002748:	f8842703          	lw	a4,-120(s0)
8000274c:	f8c42783          	lw	a5,-116(s0)
80002750:	000c0613          	mv	a2,s8
80002754:	000c8693          	mv	a3,s9
80002758:	f2a42423          	sw	a0,-216(s0)
8000275c:	f2b42623          	sw	a1,-212(s0)
80002760:	000a0513          	mv	a0,s4
80002764:	000a8593          	mv	a1,s5
80002768:	608090ef          	jal	ra,8000bd70 <fma>
8000276c:	2784ab03          	lw	s6,632(s1)
80002770:	27c4ab83          	lw	s7,636(s1)
80002774:	f8042703          	lw	a4,-128(s0)
80002778:	f8442783          	lw	a5,-124(s0)
8000277c:	000b0613          	mv	a2,s6
80002780:	000b8693          	mv	a3,s7
80002784:	f8a42423          	sw	a0,-120(s0)
80002788:	f8b42623          	sw	a1,-116(s0)
8000278c:	000a0513          	mv	a0,s4
80002790:	000a8593          	mv	a1,s5
80002794:	5dc090ef          	jal	ra,8000bd70 <fma>
80002798:	0d892a03          	lw	s4,216(s2)
8000279c:	0dc92a83          	lw	s5,220(s2)
800027a0:	f7842703          	lw	a4,-136(s0)
800027a4:	f7c42783          	lw	a5,-132(s0)
800027a8:	fb842603          	lw	a2,-72(s0)
800027ac:	f8a42023          	sw	a0,-128(s0)
800027b0:	f8b42223          	sw	a1,-124(s0)
800027b4:	fbc42683          	lw	a3,-68(s0)
800027b8:	000a0513          	mv	a0,s4
800027bc:	000a8593          	mv	a1,s5
800027c0:	5b0090ef          	jal	ra,8000bd70 <fma>
800027c4:	f9042703          	lw	a4,-112(s0)
800027c8:	f9442783          	lw	a5,-108(s0)
800027cc:	000d0613          	mv	a2,s10
800027d0:	000d8693          	mv	a3,s11
800027d4:	f6a42c23          	sw	a0,-136(s0)
800027d8:	f6b42e23          	sw	a1,-132(s0)
800027dc:	000a0513          	mv	a0,s4
800027e0:	000a8593          	mv	a1,s5
800027e4:	58c090ef          	jal	ra,8000bd70 <fma>
800027e8:	fa042703          	lw	a4,-96(s0)
800027ec:	fa442783          	lw	a5,-92(s0)
800027f0:	fb042603          	lw	a2,-80(s0)
800027f4:	fb442683          	lw	a3,-76(s0)
800027f8:	f8a42823          	sw	a0,-112(s0)
800027fc:	f8b42a23          	sw	a1,-108(s0)
80002800:	000a0513          	mv	a0,s4
80002804:	000a8593          	mv	a1,s5
80002808:	568090ef          	jal	ra,8000bd70 <fma>
8000280c:	fa842703          	lw	a4,-88(s0)
80002810:	fac42783          	lw	a5,-84(s0)
80002814:	000c0613          	mv	a2,s8
80002818:	000c8693          	mv	a3,s9
8000281c:	faa42023          	sw	a0,-96(s0)
80002820:	fab42223          	sw	a1,-92(s0)
80002824:	000a0513          	mv	a0,s4
80002828:	000a8593          	mv	a1,s5
8000282c:	544090ef          	jal	ra,8000bd70 <fma>
80002830:	f7042703          	lw	a4,-144(s0)
80002834:	f7442783          	lw	a5,-140(s0)
80002838:	000b0613          	mv	a2,s6
8000283c:	000b8693          	mv	a3,s7
80002840:	faa42423          	sw	a0,-88(s0)
80002844:	fab42623          	sw	a1,-84(s0)
80002848:	000a0513          	mv	a0,s4
8000284c:	000a8593          	mv	a1,s5
80002850:	520090ef          	jal	ra,8000bd70 <fma>
80002854:	19892a03          	lw	s4,408(s2)
80002858:	19c92a83          	lw	s5,412(s2)
8000285c:	f6842703          	lw	a4,-152(s0)
80002860:	f6c42783          	lw	a5,-148(s0)
80002864:	fb842603          	lw	a2,-72(s0)
80002868:	fbc42683          	lw	a3,-68(s0)
8000286c:	f6a42823          	sw	a0,-144(s0)
80002870:	f6b42a23          	sw	a1,-140(s0)
80002874:	000a0513          	mv	a0,s4
80002878:	000a8593          	mv	a1,s5
8000287c:	4f4090ef          	jal	ra,8000bd70 <fma>
80002880:	f6042703          	lw	a4,-160(s0)
80002884:	f6442783          	lw	a5,-156(s0)
80002888:	000d0613          	mv	a2,s10
8000288c:	000d8693          	mv	a3,s11
80002890:	f6a42423          	sw	a0,-152(s0)
80002894:	f6b42623          	sw	a1,-148(s0)
80002898:	000a0513          	mv	a0,s4
8000289c:	000a8593          	mv	a1,s5
800028a0:	4d0090ef          	jal	ra,8000bd70 <fma>
800028a4:	f5842703          	lw	a4,-168(s0)
800028a8:	f5c42783          	lw	a5,-164(s0)
800028ac:	fb042603          	lw	a2,-80(s0)
800028b0:	fb442683          	lw	a3,-76(s0)
800028b4:	f6a42023          	sw	a0,-160(s0)
800028b8:	f6b42223          	sw	a1,-156(s0)
800028bc:	000a0513          	mv	a0,s4
800028c0:	000a8593          	mv	a1,s5
800028c4:	4ac090ef          	jal	ra,8000bd70 <fma>
800028c8:	f5042703          	lw	a4,-176(s0)
800028cc:	f5442783          	lw	a5,-172(s0)
800028d0:	000c0613          	mv	a2,s8
800028d4:	000c8693          	mv	a3,s9
800028d8:	f4a42c23          	sw	a0,-168(s0)
800028dc:	f4b42e23          	sw	a1,-164(s0)
800028e0:	000a0513          	mv	a0,s4
800028e4:	000a8593          	mv	a1,s5
800028e8:	488090ef          	jal	ra,8000bd70 <fma>
800028ec:	f4842703          	lw	a4,-184(s0)
800028f0:	f4c42783          	lw	a5,-180(s0)
800028f4:	000b0613          	mv	a2,s6
800028f8:	000b8693          	mv	a3,s7
800028fc:	f4a42823          	sw	a0,-176(s0)
80002900:	f4b42a23          	sw	a1,-172(s0)
80002904:	000a0513          	mv	a0,s4
80002908:	000a8593          	mv	a1,s5
8000290c:	464090ef          	jal	ra,8000bd70 <fma>
80002910:	25892a03          	lw	s4,600(s2)
80002914:	25c92a83          	lw	s5,604(s2)
80002918:	f4042703          	lw	a4,-192(s0)
8000291c:	f4442783          	lw	a5,-188(s0)
80002920:	fb842603          	lw	a2,-72(s0)
80002924:	fbc42683          	lw	a3,-68(s0)
80002928:	f4a42423          	sw	a0,-184(s0)
8000292c:	f4b42623          	sw	a1,-180(s0)
80002930:	000a0513          	mv	a0,s4
80002934:	000a8593          	mv	a1,s5
80002938:	438090ef          	jal	ra,8000bd70 <fma>
8000293c:	f3842703          	lw	a4,-200(s0)
80002940:	f3c42783          	lw	a5,-196(s0)
80002944:	000d0613          	mv	a2,s10
80002948:	000d8693          	mv	a3,s11
8000294c:	f4a42023          	sw	a0,-192(s0)
80002950:	f4b42223          	sw	a1,-188(s0)
80002954:	000a0513          	mv	a0,s4
80002958:	000a8593          	mv	a1,s5
8000295c:	414090ef          	jal	ra,8000bd70 <fma>
80002960:	f3042703          	lw	a4,-208(s0)
80002964:	f3442783          	lw	a5,-204(s0)
80002968:	fb042603          	lw	a2,-80(s0)
8000296c:	fb442683          	lw	a3,-76(s0)
80002970:	f2a42c23          	sw	a0,-200(s0)
80002974:	f2b42e23          	sw	a1,-196(s0)
80002978:	000a0513          	mv	a0,s4
8000297c:	000a8593          	mv	a1,s5
80002980:	3f0090ef          	jal	ra,8000bd70 <fma>
80002984:	f9842703          	lw	a4,-104(s0)
80002988:	f9c42783          	lw	a5,-100(s0)
8000298c:	000c0613          	mv	a2,s8
80002990:	000c8693          	mv	a3,s9
80002994:	f2a42823          	sw	a0,-208(s0)
80002998:	f2b42a23          	sw	a1,-204(s0)
8000299c:	000a0513          	mv	a0,s4
800029a0:	000a8593          	mv	a1,s5
800029a4:	3cc090ef          	jal	ra,8000bd70 <fma>
800029a8:	f1042303          	lw	t1,-240(s0)
800029ac:	f1442383          	lw	t2,-236(s0)
800029b0:	000b0613          	mv	a2,s6
800029b4:	00030713          	mv	a4,t1
800029b8:	00038793          	mv	a5,t2
800029bc:	000b8693          	mv	a3,s7
800029c0:	f8a42c23          	sw	a0,-104(s0)
800029c4:	f8b42e23          	sw	a1,-100(s0)
800029c8:	000a0513          	mv	a0,s4
800029cc:	000a8593          	mv	a1,s5
800029d0:	3a0090ef          	jal	ra,8000bd70 <fma>
800029d4:	eca42023          	sw	a0,-320(s0)
800029d8:	02092a03          	lw	s4,32(s2)
800029dc:	02492a83          	lw	s5,36(s2)
800029e0:	ecb42223          	sw	a1,-316(s0)
800029e4:	3204a603          	lw	a2,800(s1)
800029e8:	f1842803          	lw	a6,-232(s0)
800029ec:	f1c42883          	lw	a7,-228(s0)
800029f0:	3244a683          	lw	a3,804(s1)
800029f4:	00080713          	mv	a4,a6
800029f8:	00088793          	mv	a5,a7
800029fc:	000a0513          	mv	a0,s4
80002a00:	000a8593          	mv	a1,s5
80002a04:	fac42c23          	sw	a2,-72(s0)
80002a08:	fad42e23          	sw	a3,-68(s0)
80002a0c:	364090ef          	jal	ra,8000bd70 <fma>
80002a10:	f2042e03          	lw	t3,-224(s0)
80002a14:	f2442e83          	lw	t4,-220(s0)
80002a18:	3284ad03          	lw	s10,808(s1)
80002a1c:	32c4ad83          	lw	s11,812(s1)
80002a20:	000e0713          	mv	a4,t3
80002a24:	000e8793          	mv	a5,t4
80002a28:	000d0613          	mv	a2,s10
80002a2c:	000d8693          	mv	a3,s11
80002a30:	eca42423          	sw	a0,-312(s0)
80002a34:	ecb42623          	sw	a1,-308(s0)
80002a38:	000a0513          	mv	a0,s4
80002a3c:	000a8593          	mv	a1,s5
80002a40:	330090ef          	jal	ra,8000bd70 <fma>
80002a44:	f2842f03          	lw	t5,-216(s0)
80002a48:	f2c42f83          	lw	t6,-212(s0)
80002a4c:	3304a803          	lw	a6,816(s1)
80002a50:	3344a883          	lw	a7,820(s1)
80002a54:	000f0713          	mv	a4,t5
80002a58:	000f8793          	mv	a5,t6
80002a5c:	00080613          	mv	a2,a6
80002a60:	00088693          	mv	a3,a7
80002a64:	eaa42823          	sw	a0,-336(s0)
80002a68:	eab42a23          	sw	a1,-332(s0)
80002a6c:	000a0513          	mv	a0,s4
80002a70:	000a8593          	mv	a1,s5
80002a74:	fb042823          	sw	a6,-80(s0)
80002a78:	fb142a23          	sw	a7,-76(s0)
80002a7c:	2f4090ef          	jal	ra,8000bd70 <fma>
80002a80:	3384ac03          	lw	s8,824(s1)
80002a84:	33c4ac83          	lw	s9,828(s1)
80002a88:	f8842703          	lw	a4,-120(s0)
80002a8c:	f8c42783          	lw	a5,-116(s0)
80002a90:	000c0613          	mv	a2,s8
80002a94:	000c8693          	mv	a3,s9
80002a98:	eaa42c23          	sw	a0,-328(s0)
80002a9c:	eab42e23          	sw	a1,-324(s0)
80002aa0:	000a0513          	mv	a0,s4
80002aa4:	000a8593          	mv	a1,s5
80002aa8:	2c8090ef          	jal	ra,8000bd70 <fma>
80002aac:	3404ab03          	lw	s6,832(s1)
80002ab0:	3444ab83          	lw	s7,836(s1)
80002ab4:	f8042703          	lw	a4,-128(s0)
80002ab8:	f8442783          	lw	a5,-124(s0)
80002abc:	000b0613          	mv	a2,s6
80002ac0:	000b8693          	mv	a3,s7
80002ac4:	f2a42423          	sw	a0,-216(s0)
80002ac8:	f2b42623          	sw	a1,-212(s0)
80002acc:	000a0513          	mv	a0,s4
80002ad0:	000a8593          	mv	a1,s5
80002ad4:	29c090ef          	jal	ra,8000bd70 <fma>
80002ad8:	0e092a03          	lw	s4,224(s2)
80002adc:	0e492a83          	lw	s5,228(s2)
80002ae0:	f7842703          	lw	a4,-136(s0)
80002ae4:	f7c42783          	lw	a5,-132(s0)
80002ae8:	fb842603          	lw	a2,-72(s0)
80002aec:	f2a42023          	sw	a0,-224(s0)
80002af0:	f2b42223          	sw	a1,-220(s0)
80002af4:	fbc42683          	lw	a3,-68(s0)
80002af8:	000a0513          	mv	a0,s4
80002afc:	000a8593          	mv	a1,s5
80002b00:	270090ef          	jal	ra,8000bd70 <fma>
80002b04:	f9042703          	lw	a4,-112(s0)
80002b08:	f9442783          	lw	a5,-108(s0)
80002b0c:	000d0613          	mv	a2,s10
80002b10:	000d8693          	mv	a3,s11
80002b14:	f0a42c23          	sw	a0,-232(s0)
80002b18:	f0b42e23          	sw	a1,-228(s0)
80002b1c:	000a0513          	mv	a0,s4
80002b20:	000a8593          	mv	a1,s5
80002b24:	24c090ef          	jal	ra,8000bd70 <fma>
80002b28:	fa042703          	lw	a4,-96(s0)
80002b2c:	fa442783          	lw	a5,-92(s0)
80002b30:	fb042603          	lw	a2,-80(s0)
80002b34:	fb442683          	lw	a3,-76(s0)
80002b38:	f8a42823          	sw	a0,-112(s0)
80002b3c:	f8b42a23          	sw	a1,-108(s0)
80002b40:	000a0513          	mv	a0,s4
80002b44:	000a8593          	mv	a1,s5
80002b48:	228090ef          	jal	ra,8000bd70 <fma>
80002b4c:	fa842703          	lw	a4,-88(s0)
80002b50:	fac42783          	lw	a5,-84(s0)
80002b54:	000c0613          	mv	a2,s8
80002b58:	000c8693          	mv	a3,s9
80002b5c:	faa42023          	sw	a0,-96(s0)
80002b60:	fab42223          	sw	a1,-92(s0)
80002b64:	000a0513          	mv	a0,s4
80002b68:	000a8593          	mv	a1,s5
80002b6c:	204090ef          	jal	ra,8000bd70 <fma>
80002b70:	f7042703          	lw	a4,-144(s0)
80002b74:	f7442783          	lw	a5,-140(s0)
80002b78:	000b0613          	mv	a2,s6
80002b7c:	000b8693          	mv	a3,s7
80002b80:	faa42423          	sw	a0,-88(s0)
80002b84:	fab42623          	sw	a1,-84(s0)
80002b88:	000a0513          	mv	a0,s4
80002b8c:	000a8593          	mv	a1,s5
80002b90:	1e0090ef          	jal	ra,8000bd70 <fma>
80002b94:	1a092a03          	lw	s4,416(s2)
80002b98:	1a492a83          	lw	s5,420(s2)
80002b9c:	f6842703          	lw	a4,-152(s0)
80002ba0:	f6c42783          	lw	a5,-148(s0)
80002ba4:	fb842603          	lw	a2,-72(s0)
80002ba8:	fbc42683          	lw	a3,-68(s0)
80002bac:	f0a42823          	sw	a0,-240(s0)
80002bb0:	f0b42a23          	sw	a1,-236(s0)
80002bb4:	000a0513          	mv	a0,s4
80002bb8:	000a8593          	mv	a1,s5
80002bbc:	1b4090ef          	jal	ra,8000bd70 <fma>
80002bc0:	f6042703          	lw	a4,-160(s0)
80002bc4:	f6442783          	lw	a5,-156(s0)
80002bc8:	000d0613          	mv	a2,s10
80002bcc:	000d8693          	mv	a3,s11
80002bd0:	f0a42423          	sw	a0,-248(s0)
80002bd4:	f0b42623          	sw	a1,-244(s0)
80002bd8:	000a0513          	mv	a0,s4
80002bdc:	000a8593          	mv	a1,s5
80002be0:	190090ef          	jal	ra,8000bd70 <fma>
80002be4:	f5842703          	lw	a4,-168(s0)
80002be8:	f5c42783          	lw	a5,-164(s0)
80002bec:	fb042603          	lw	a2,-80(s0)
80002bf0:	fb442683          	lw	a3,-76(s0)
80002bf4:	f0a42023          	sw	a0,-256(s0)
80002bf8:	f0b42223          	sw	a1,-252(s0)
80002bfc:	000a0513          	mv	a0,s4
80002c00:	000a8593          	mv	a1,s5
80002c04:	16c090ef          	jal	ra,8000bd70 <fma>
80002c08:	f5042703          	lw	a4,-176(s0)
80002c0c:	f5442783          	lw	a5,-172(s0)
80002c10:	000c0613          	mv	a2,s8
80002c14:	000c8693          	mv	a3,s9
80002c18:	eea42c23          	sw	a0,-264(s0)
80002c1c:	eeb42e23          	sw	a1,-260(s0)
80002c20:	000a0513          	mv	a0,s4
80002c24:	000a8593          	mv	a1,s5
80002c28:	148090ef          	jal	ra,8000bd70 <fma>
80002c2c:	f4842703          	lw	a4,-184(s0)
80002c30:	f4c42783          	lw	a5,-180(s0)
80002c34:	000b0613          	mv	a2,s6
80002c38:	000b8693          	mv	a3,s7
80002c3c:	eea42823          	sw	a0,-272(s0)
80002c40:	eeb42a23          	sw	a1,-268(s0)
80002c44:	000a0513          	mv	a0,s4
80002c48:	000a8593          	mv	a1,s5
80002c4c:	124090ef          	jal	ra,8000bd70 <fma>
80002c50:	26092a03          	lw	s4,608(s2)
80002c54:	26492a83          	lw	s5,612(s2)
80002c58:	f4042703          	lw	a4,-192(s0)
80002c5c:	f4442783          	lw	a5,-188(s0)
80002c60:	fb842603          	lw	a2,-72(s0)
80002c64:	fbc42683          	lw	a3,-68(s0)
80002c68:	eea42423          	sw	a0,-280(s0)
80002c6c:	eeb42623          	sw	a1,-276(s0)
80002c70:	000a0513          	mv	a0,s4
80002c74:	000a8593          	mv	a1,s5
80002c78:	0f8090ef          	jal	ra,8000bd70 <fma>
80002c7c:	f3842703          	lw	a4,-200(s0)
80002c80:	f3c42783          	lw	a5,-196(s0)
80002c84:	000d0613          	mv	a2,s10
80002c88:	000d8693          	mv	a3,s11
80002c8c:	eea42023          	sw	a0,-288(s0)
80002c90:	eeb42223          	sw	a1,-284(s0)
80002c94:	000a0513          	mv	a0,s4
80002c98:	000a8593          	mv	a1,s5
80002c9c:	0d4090ef          	jal	ra,8000bd70 <fma>
80002ca0:	f3042703          	lw	a4,-208(s0)
80002ca4:	f3442783          	lw	a5,-204(s0)
80002ca8:	fb042603          	lw	a2,-80(s0)
80002cac:	fb442683          	lw	a3,-76(s0)
80002cb0:	eca42c23          	sw	a0,-296(s0)
80002cb4:	ecb42e23          	sw	a1,-292(s0)
80002cb8:	000a0513          	mv	a0,s4
80002cbc:	000a8593          	mv	a1,s5
80002cc0:	0b0090ef          	jal	ra,8000bd70 <fma>
80002cc4:	f9842703          	lw	a4,-104(s0)
80002cc8:	f9c42783          	lw	a5,-100(s0)
80002ccc:	000c0613          	mv	a2,s8
80002cd0:	000c8693          	mv	a3,s9
80002cd4:	eca42823          	sw	a0,-304(s0)
80002cd8:	ecb42a23          	sw	a1,-300(s0)
80002cdc:	000a0513          	mv	a0,s4
80002ce0:	000a8593          	mv	a1,s5
80002ce4:	08c090ef          	jal	ra,8000bd70 <fma>
80002ce8:	ec042303          	lw	t1,-320(s0)
80002cec:	ec442383          	lw	t2,-316(s0)
80002cf0:	000b0613          	mv	a2,s6
80002cf4:	00030713          	mv	a4,t1
80002cf8:	00038793          	mv	a5,t2
80002cfc:	000b8693          	mv	a3,s7
80002d00:	f8a42c23          	sw	a0,-104(s0)
80002d04:	f8b42e23          	sw	a1,-100(s0)
80002d08:	000a0513          	mv	a0,s4
80002d0c:	000a8593          	mv	a1,s5
80002d10:	060090ef          	jal	ra,8000bd70 <fma>
80002d14:	eca42023          	sw	a0,-320(s0)
80002d18:	02892a03          	lw	s4,40(s2)
80002d1c:	02c92a83          	lw	s5,44(s2)
80002d20:	ecb42223          	sw	a1,-316(s0)
80002d24:	3e84a603          	lw	a2,1000(s1)
80002d28:	ec842803          	lw	a6,-312(s0)
80002d2c:	ecc42883          	lw	a7,-308(s0)
80002d30:	3ec4a683          	lw	a3,1004(s1)
80002d34:	00080713          	mv	a4,a6
80002d38:	00088793          	mv	a5,a7
80002d3c:	000a0513          	mv	a0,s4
80002d40:	000a8593          	mv	a1,s5
80002d44:	fac42c23          	sw	a2,-72(s0)
80002d48:	fad42e23          	sw	a3,-68(s0)
80002d4c:	024090ef          	jal	ra,8000bd70 <fma>
80002d50:	eb042e03          	lw	t3,-336(s0)
80002d54:	eb442e83          	lw	t4,-332(s0)
80002d58:	3f04ad03          	lw	s10,1008(s1)
80002d5c:	3f44ad83          	lw	s11,1012(s1)
80002d60:	000e0713          	mv	a4,t3
80002d64:	000e8793          	mv	a5,t4
80002d68:	eca42423          	sw	a0,-312(s0)
80002d6c:	ecb42623          	sw	a1,-308(s0)
80002d70:	000a0513          	mv	a0,s4
80002d74:	000a8593          	mv	a1,s5
80002d78:	000d0613          	mv	a2,s10
80002d7c:	000d8693          	mv	a3,s11
80002d80:	7f1080ef          	jal	ra,8000bd70 <fma>
80002d84:	3f84a803          	lw	a6,1016(s1)
80002d88:	3fc4a883          	lw	a7,1020(s1)
80002d8c:	eb842f03          	lw	t5,-328(s0)
80002d90:	ebc42f83          	lw	t6,-324(s0)
80002d94:	00080613          	mv	a2,a6
80002d98:	00088693          	mv	a3,a7
80002d9c:	000f0713          	mv	a4,t5
80002da0:	000f8793          	mv	a5,t6
80002da4:	f8a42423          	sw	a0,-120(s0)
80002da8:	f8b42623          	sw	a1,-116(s0)
80002dac:	000a0513          	mv	a0,s4
80002db0:	000a8593          	mv	a1,s5
80002db4:	fb042823          	sw	a6,-80(s0)
80002db8:	fb142a23          	sw	a7,-76(s0)
80002dbc:	7b5080ef          	jal	ra,8000bd70 <fma>
80002dc0:	4004ac03          	lw	s8,1024(s1)
80002dc4:	4044ac83          	lw	s9,1028(s1)
80002dc8:	f2842703          	lw	a4,-216(s0)
80002dcc:	f2c42783          	lw	a5,-212(s0)
80002dd0:	f8a42023          	sw	a0,-128(s0)
80002dd4:	f8b42223          	sw	a1,-124(s0)
80002dd8:	000a0513          	mv	a0,s4
80002ddc:	000a8593          	mv	a1,s5
80002de0:	000c0613          	mv	a2,s8
80002de4:	000c8693          	mv	a3,s9
80002de8:	789080ef          	jal	ra,8000bd70 <fma>
80002dec:	4084ab03          	lw	s6,1032(s1)
80002df0:	40c4ab83          	lw	s7,1036(s1)
80002df4:	f2042703          	lw	a4,-224(s0)
80002df8:	f2442783          	lw	a5,-220(s0)
80002dfc:	f6a42c23          	sw	a0,-136(s0)
80002e00:	f6b42e23          	sw	a1,-132(s0)
80002e04:	000a0513          	mv	a0,s4
80002e08:	000a8593          	mv	a1,s5
80002e0c:	000b0613          	mv	a2,s6
80002e10:	000b8693          	mv	a3,s7
80002e14:	75d080ef          	jal	ra,8000bd70 <fma>
80002e18:	0e892a03          	lw	s4,232(s2)
80002e1c:	0ec92a83          	lw	s5,236(s2)
80002e20:	f1842703          	lw	a4,-232(s0)
80002e24:	f1c42783          	lw	a5,-228(s0)
80002e28:	fb842603          	lw	a2,-72(s0)
80002e2c:	f6a42823          	sw	a0,-144(s0)
80002e30:	f6b42a23          	sw	a1,-140(s0)
80002e34:	fbc42683          	lw	a3,-68(s0)
80002e38:	000a0513          	mv	a0,s4
80002e3c:	000a8593          	mv	a1,s5
80002e40:	731080ef          	jal	ra,8000bd70 <fma>
80002e44:	f9042703          	lw	a4,-112(s0)
80002e48:	f9442783          	lw	a5,-108(s0)
80002e4c:	f6a42423          	sw	a0,-152(s0)
80002e50:	f6b42623          	sw	a1,-148(s0)
80002e54:	000d0613          	mv	a2,s10
80002e58:	000d8693          	mv	a3,s11
80002e5c:	000a0513          	mv	a0,s4
80002e60:	000a8593          	mv	a1,s5
80002e64:	70d080ef          	jal	ra,8000bd70 <fma>
80002e68:	fa042703          	lw	a4,-96(s0)
80002e6c:	fa442783          	lw	a5,-92(s0)
80002e70:	fb042603          	lw	a2,-80(s0)
80002e74:	fb442683          	lw	a3,-76(s0)
80002e78:	f8a42823          	sw	a0,-112(s0)
80002e7c:	f8b42a23          	sw	a1,-108(s0)
80002e80:	000a0513          	mv	a0,s4
80002e84:	000a8593          	mv	a1,s5
80002e88:	6e9080ef          	jal	ra,8000bd70 <fma>
80002e8c:	fa842703          	lw	a4,-88(s0)
80002e90:	fac42783          	lw	a5,-84(s0)
80002e94:	faa42023          	sw	a0,-96(s0)
80002e98:	fab42223          	sw	a1,-92(s0)
80002e9c:	000c0613          	mv	a2,s8
80002ea0:	000c8693          	mv	a3,s9
80002ea4:	000a0513          	mv	a0,s4
80002ea8:	000a8593          	mv	a1,s5
80002eac:	6c5080ef          	jal	ra,8000bd70 <fma>
80002eb0:	f1042703          	lw	a4,-240(s0)
80002eb4:	f1442783          	lw	a5,-236(s0)
80002eb8:	faa42423          	sw	a0,-88(s0)
80002ebc:	fab42623          	sw	a1,-84(s0)
80002ec0:	000b0613          	mv	a2,s6
80002ec4:	000b8693          	mv	a3,s7
80002ec8:	000a0513          	mv	a0,s4
80002ecc:	000a8593          	mv	a1,s5
80002ed0:	6a1080ef          	jal	ra,8000bd70 <fma>
80002ed4:	1a892a03          	lw	s4,424(s2)
80002ed8:	1ac92a83          	lw	s5,428(s2)
80002edc:	f0842703          	lw	a4,-248(s0)
80002ee0:	f0c42783          	lw	a5,-244(s0)
80002ee4:	fb842603          	lw	a2,-72(s0)
80002ee8:	fbc42683          	lw	a3,-68(s0)
80002eec:	f6a42023          	sw	a0,-160(s0)
80002ef0:	f6b42223          	sw	a1,-156(s0)
80002ef4:	000a0513          	mv	a0,s4
80002ef8:	000a8593          	mv	a1,s5
80002efc:	675080ef          	jal	ra,8000bd70 <fma>
80002f00:	f0042703          	lw	a4,-256(s0)
80002f04:	f0442783          	lw	a5,-252(s0)
80002f08:	f4a42c23          	sw	a0,-168(s0)
80002f0c:	f4b42e23          	sw	a1,-164(s0)
80002f10:	000d0613          	mv	a2,s10
80002f14:	000d8693          	mv	a3,s11
80002f18:	000a0513          	mv	a0,s4
80002f1c:	000a8593          	mv	a1,s5
80002f20:	651080ef          	jal	ra,8000bd70 <fma>
80002f24:	ef842703          	lw	a4,-264(s0)
80002f28:	efc42783          	lw	a5,-260(s0)
80002f2c:	fb042603          	lw	a2,-80(s0)
80002f30:	fb442683          	lw	a3,-76(s0)
80002f34:	f4a42823          	sw	a0,-176(s0)
80002f38:	f4b42a23          	sw	a1,-172(s0)
80002f3c:	000a0513          	mv	a0,s4
80002f40:	000a8593          	mv	a1,s5
80002f44:	62d080ef          	jal	ra,8000bd70 <fma>
80002f48:	ef042703          	lw	a4,-272(s0)
80002f4c:	ef442783          	lw	a5,-268(s0)
80002f50:	f4a42423          	sw	a0,-184(s0)
80002f54:	f4b42623          	sw	a1,-180(s0)
80002f58:	000c0613          	mv	a2,s8
80002f5c:	000c8693          	mv	a3,s9
80002f60:	000a0513          	mv	a0,s4
80002f64:	000a8593          	mv	a1,s5
80002f68:	609080ef          	jal	ra,8000bd70 <fma>
80002f6c:	ee842703          	lw	a4,-280(s0)
80002f70:	eec42783          	lw	a5,-276(s0)
80002f74:	f4a42023          	sw	a0,-192(s0)
80002f78:	f4b42223          	sw	a1,-188(s0)
80002f7c:	000b0613          	mv	a2,s6
80002f80:	000b8693          	mv	a3,s7
80002f84:	000a0513          	mv	a0,s4
80002f88:	000a8593          	mv	a1,s5
80002f8c:	5e5080ef          	jal	ra,8000bd70 <fma>
80002f90:	26892a03          	lw	s4,616(s2)
80002f94:	26c92a83          	lw	s5,620(s2)
80002f98:	ee042703          	lw	a4,-288(s0)
80002f9c:	ee442783          	lw	a5,-284(s0)
80002fa0:	fb842603          	lw	a2,-72(s0)
80002fa4:	fbc42683          	lw	a3,-68(s0)
80002fa8:	f2a42c23          	sw	a0,-200(s0)
80002fac:	f2b42e23          	sw	a1,-196(s0)
80002fb0:	000a0513          	mv	a0,s4
80002fb4:	000a8593          	mv	a1,s5
80002fb8:	5b9080ef          	jal	ra,8000bd70 <fma>
80002fbc:	ed842703          	lw	a4,-296(s0)
80002fc0:	edc42783          	lw	a5,-292(s0)
80002fc4:	f2a42823          	sw	a0,-208(s0)
80002fc8:	f2b42a23          	sw	a1,-204(s0)
80002fcc:	000d0613          	mv	a2,s10
80002fd0:	000d8693          	mv	a3,s11
80002fd4:	000a0513          	mv	a0,s4
80002fd8:	000a8593          	mv	a1,s5
80002fdc:	595080ef          	jal	ra,8000bd70 <fma>
80002fe0:	ed042703          	lw	a4,-304(s0)
80002fe4:	ed442783          	lw	a5,-300(s0)
80002fe8:	fb042603          	lw	a2,-80(s0)
80002fec:	fb442683          	lw	a3,-76(s0)
80002ff0:	f2a42423          	sw	a0,-216(s0)
80002ff4:	f2b42623          	sw	a1,-212(s0)
80002ff8:	000a0513          	mv	a0,s4
80002ffc:	000a8593          	mv	a1,s5
80003000:	571080ef          	jal	ra,8000bd70 <fma>
80003004:	f9842703          	lw	a4,-104(s0)
80003008:	f9c42783          	lw	a5,-100(s0)
8000300c:	f2a42023          	sw	a0,-224(s0)
80003010:	f2b42223          	sw	a1,-220(s0)
80003014:	000c0613          	mv	a2,s8
80003018:	000c8693          	mv	a3,s9
8000301c:	000a0513          	mv	a0,s4
80003020:	000a8593          	mv	a1,s5
80003024:	54d080ef          	jal	ra,8000bd70 <fma>
80003028:	ec042303          	lw	t1,-320(s0)
8000302c:	ec442383          	lw	t2,-316(s0)
80003030:	f8a42c23          	sw	a0,-104(s0)
80003034:	f8b42e23          	sw	a1,-100(s0)
80003038:	00030713          	mv	a4,t1
8000303c:	00038793          	mv	a5,t2
80003040:	000b0613          	mv	a2,s6
80003044:	000b8693          	mv	a3,s7
80003048:	000a0513          	mv	a0,s4
8000304c:	000a8593          	mv	a1,s5
80003050:	521080ef          	jal	ra,8000bd70 <fma>
80003054:	4b048493          	addi	s1,s1,1200
80003058:	00050313          	mv	t1,a0
8000305c:	00058393          	mv	t2,a1
80003060:	03090913          	addi	s2,s2,48
80003064:	ec842803          	lw	a6,-312(s0)
80003068:	ecc42883          	lw	a7,-308(s0)
8000306c:	01348463          	beq	s1,s3,80003074 <mm_cb+0x1cc8>
80003070:	c6dfe06f          	j	80001cdc <mm_cb+0x930>
80003074:	ea042283          	lw	t0,-352(s0)
80003078:	f8842783          	lw	a5,-120(s0)
8000307c:	0102a023          	sw	a6,0(t0)
80003080:	00f2a423          	sw	a5,8(t0)
80003084:	f8c42803          	lw	a6,-116(s0)
80003088:	f8042783          	lw	a5,-128(s0)
8000308c:	0112a223          	sw	a7,4(t0)
80003090:	0102a623          	sw	a6,12(t0)
80003094:	00f2a823          	sw	a5,16(t0)
80003098:	f8442803          	lw	a6,-124(s0)
8000309c:	f7842783          	lw	a5,-136(s0)
800030a0:	02828293          	addi	t0,t0,40
800030a4:	ff02a623          	sw	a6,-20(t0)
800030a8:	fef2a823          	sw	a5,-16(t0)
800030ac:	f7c42803          	lw	a6,-132(s0)
800030b0:	f7042783          	lw	a5,-144(s0)
800030b4:	ff02aa23          	sw	a6,-12(t0)
800030b8:	fef2ac23          	sw	a5,-8(t0)
800030bc:	f7442803          	lw	a6,-140(s0)
800030c0:	f6842783          	lw	a5,-152(s0)
800030c4:	ff02ae23          	sw	a6,-4(t0)
800030c8:	0af2a023          	sw	a5,160(t0)
800030cc:	f6c42803          	lw	a6,-148(s0)
800030d0:	f9042783          	lw	a5,-112(s0)
800030d4:	0b02a223          	sw	a6,164(t0)
800030d8:	0af2a423          	sw	a5,168(t0)
800030dc:	f9442803          	lw	a6,-108(s0)
800030e0:	fa042783          	lw	a5,-96(s0)
800030e4:	0b02a623          	sw	a6,172(t0)
800030e8:	0af2a823          	sw	a5,176(t0)
800030ec:	fa442803          	lw	a6,-92(s0)
800030f0:	fa842783          	lw	a5,-88(s0)
800030f4:	0b02aa23          	sw	a6,180(t0)
800030f8:	fac42803          	lw	a6,-84(s0)
800030fc:	0af2ac23          	sw	a5,184(t0)
80003100:	f6042783          	lw	a5,-160(s0)
80003104:	0b02ae23          	sw	a6,188(t0)
80003108:	f6442803          	lw	a6,-156(s0)
8000310c:	0cf2a023          	sw	a5,192(t0)
80003110:	f5842783          	lw	a5,-168(s0)
80003114:	0d02a223          	sw	a6,196(t0)
80003118:	f5c42803          	lw	a6,-164(s0)
8000311c:	16f2a423          	sw	a5,360(t0)
80003120:	f5042783          	lw	a5,-176(s0)
80003124:	1702a623          	sw	a6,364(t0)
80003128:	f5442803          	lw	a6,-172(s0)
8000312c:	16f2a823          	sw	a5,368(t0)
80003130:	f4842783          	lw	a5,-184(s0)
80003134:	1702aa23          	sw	a6,372(t0)
80003138:	f4c42803          	lw	a6,-180(s0)
8000313c:	16f2ac23          	sw	a5,376(t0)
80003140:	f4042783          	lw	a5,-192(s0)
80003144:	1702ae23          	sw	a6,380(t0)
80003148:	f4442803          	lw	a6,-188(s0)
8000314c:	18f2a023          	sw	a5,384(t0)
80003150:	f3842783          	lw	a5,-200(s0)
80003154:	1902a223          	sw	a6,388(t0)
80003158:	f3c42803          	lw	a6,-196(s0)
8000315c:	18f2a423          	sw	a5,392(t0)
80003160:	f3042783          	lw	a5,-208(s0)
80003164:	1902a623          	sw	a6,396(t0)
80003168:	f3442803          	lw	a6,-204(s0)
8000316c:	22f2a823          	sw	a5,560(t0)
80003170:	f2842783          	lw	a5,-216(s0)
80003174:	2302aa23          	sw	a6,564(t0)
80003178:	f2c42803          	lw	a6,-212(s0)
8000317c:	22f2ac23          	sw	a5,568(t0)
80003180:	f2042783          	lw	a5,-224(s0)
80003184:	2302ae23          	sw	a6,572(t0)
80003188:	f2442803          	lw	a6,-220(s0)
8000318c:	24f2a023          	sw	a5,576(t0)
80003190:	f9842783          	lw	a5,-104(s0)
80003194:	2502a223          	sw	a6,580(t0)
80003198:	f9c42803          	lw	a6,-100(s0)
8000319c:	24f2a423          	sw	a5,584(t0)
800031a0:	ea842783          	lw	a5,-344(s0)
800031a4:	e8842703          	lw	a4,-376(s0)
800031a8:	2502a623          	sw	a6,588(t0)
800031ac:	02878793          	addi	a5,a5,40
800031b0:	24a2a823          	sw	a0,592(t0)
800031b4:	24b2aa23          	sw	a1,596(t0)
800031b8:	eaf42423          	sw	a5,-344(s0)
800031bc:	00f70463          	beq	a4,a5,800031c4 <mm_cb+0x1e18>
800031c0:	9d1fe06f          	j	80001b90 <mm_cb+0x7e4>
800031c4:	e8042303          	lw	t1,-384(s0)
800031c8:	e9842903          	lw	s2,-360(s0)
800031cc:	01900793          	li	a5,25
800031d0:	00f12023          	sw	a5,0(sp)
800031d4:	32030493          	addi	s1,t1,800
800031d8:	00070793          	mv	a5,a4
800031dc:	00030893          	mv	a7,t1
800031e0:	00090693          	mv	a3,s2
800031e4:	01900813          	li	a6,25
800031e8:	01800713          	li	a4,24
800031ec:	01800613          	li	a2,24
800031f0:	00000593          	li	a1,0
800031f4:	00400513          	li	a0,4
800031f8:	e8942023          	sw	s1,-384(s0)
800031fc:	e4dfd0ef          	jal	ra,80001048 <mm_naive>
80003200:	30090793          	addi	a5,s2,768
80003204:	e8f42c23          	sw	a5,-360(s0)
80003208:	e6042783          	lw	a5,-416(s0)
8000320c:	00978463          	beq	a5,s1,80003214 <mm_cb+0x1e68>
80003210:	96dfe06f          	j	80001b7c <mm_cb+0x7d0>
80003214:	e5c42303          	lw	t1,-420(s0)
80003218:	01900793          	li	a5,25
8000321c:	e5842683          	lw	a3,-424(s0)
80003220:	00f12023          	sw	a5,0(sp)
80003224:	e5042883          	lw	a7,-432(s0)
80003228:	e6842783          	lw	a5,-408(s0)
8000322c:	00001637          	lui	a2,0x1
80003230:	20060613          	addi	a2,a2,512 # 1200 <_tbss_end+0x117c>
80003234:	01830313          	addi	t1,t1,24
80003238:	00c686b3          	add	a3,a3,a2
8000323c:	01900813          	li	a6,25
80003240:	01800713          	li	a4,24
80003244:	01800613          	li	a2,24
80003248:	01900593          	li	a1,25
8000324c:	00000513          	li	a0,0
80003250:	00030493          	mv	s1,t1
80003254:	e4642e23          	sw	t1,-420(s0)
80003258:	df1fd0ef          	jal	ra,80001048 <mm_naive>
8000325c:	e2842783          	lw	a5,-472(s0)
80003260:	00f4f463          	bleu	a5,s1,80003268 <mm_cb+0x1ebc>
80003264:	8b1fe06f          	j	80001b14 <mm_cb+0x768>
80003268:	e3842783          	lw	a5,-456(s0)
8000326c:	e2842703          	lw	a4,-472(s0)
80003270:	0c878793          	addi	a5,a5,200
80003274:	e4f42423          	sw	a5,-440(s0)
80003278:	e0442783          	lw	a5,-508(s0)
8000327c:	00f77463          	bleu	a5,a4,80003284 <mm_cb+0x1ed8>
80003280:	0e40206f          	j	80005364 <mm_cb+0x3fb8>
80003284:	e4842703          	lw	a4,-440(s0)
80003288:	e3442783          	lw	a5,-460(s0)
8000328c:	e2e42c23          	sw	a4,-456(s0)
80003290:	e1042703          	lw	a4,-496(s0)
80003294:	01978793          	addi	a5,a5,25
80003298:	e2f42a23          	sw	a5,-460(s0)
8000329c:	00e7f463          	bleu	a4,a5,800032a4 <mm_cb+0x1ef8>
800032a0:	819fe06f          	j	80001ab8 <mm_cb+0x70c>
800032a4:	dc442703          	lw	a4,-572(s0)
800032a8:	d9042783          	lw	a5,-624(s0)
800032ac:	00e787b3          	add	a5,a5,a4
800032b0:	d8f42623          	sw	a5,-628(s0)
800032b4:	e1042703          	lw	a4,-496(s0)
800032b8:	dec42783          	lw	a5,-532(s0)
800032bc:	00f77463          	bleu	a5,a4,800032c4 <mm_cb+0x1f18>
800032c0:	4d10306f          	j	80006f90 <mm_cb+0x5be4>
800032c4:	d8c42703          	lw	a4,-628(s0)
800032c8:	dd042783          	lw	a5,-560(s0)
800032cc:	dce42223          	sw	a4,-572(s0)
800032d0:	db042703          	lw	a4,-592(s0)
800032d4:	01878793          	addi	a5,a5,24
800032d8:	dcf42823          	sw	a5,-560(s0)
800032dc:	e2e42e23          	sw	a4,-452(s0)
800032e0:	e0042703          	lw	a4,-512(s0)
800032e4:	00e7f463          	bleu	a4,a5,800032ec <mm_cb+0x1f40>
800032e8:	f84fe06f          	j	80001a6c <mm_cb+0x6c0>
800032ec:	dbc42783          	lw	a5,-580(s0)
800032f0:	e0042703          	lw	a4,-512(s0)
800032f4:	00f76463          	bltu	a4,a5,800032fc <mm_cb+0x1f50>
800032f8:	6b50106f          	j	800051ac <mm_cb+0x3e00>
800032fc:	dec42783          	lw	a5,-532(s0)
80003300:	00079463          	bnez	a5,80003308 <mm_cb+0x1f5c>
80003304:	6a90106f          	j	800051ac <mm_cb+0x3e00>
80003308:	dbc42783          	lw	a5,-580(s0)
8000330c:	01800613          	li	a2,24
80003310:	00042303          	lw	t1,0(s0)
80003314:	02c7f633          	remu	a2,a5,a2
80003318:	00042783          	lw	a5,0(s0)
8000331c:	e2c42583          	lw	a1,-468(s0)
80003320:	e2442883          	lw	a7,-476(s0)
80003324:	00179693          	slli	a3,a5,0x1
80003328:	006686b3          	add	a3,a3,t1
8000332c:	00369693          	slli	a3,a3,0x3
80003330:	00259713          	slli	a4,a1,0x2
80003334:	00379813          	slli	a6,a5,0x3
80003338:	00b70733          	add	a4,a4,a1
8000333c:	00159793          	slli	a5,a1,0x1
80003340:	dad42e23          	sw	a3,-580(s0)
80003344:	00359693          	slli	a3,a1,0x3
80003348:	00b787b3          	add	a5,a5,a1
8000334c:	00371713          	slli	a4,a4,0x3
80003350:	f0d42423          	sw	a3,-248(s0)
80003354:	00459693          	slli	a3,a1,0x4
80003358:	ecd42023          	sw	a3,-320(s0)
8000335c:	eae42423          	sw	a4,-344(s0)
80003360:	00379693          	slli	a3,a5,0x3
80003364:	00479713          	slli	a4,a5,0x4
80003368:	00679793          	slli	a5,a5,0x6
8000336c:	ece42423          	sw	a4,-312(s0)
80003370:	db842703          	lw	a4,-584(s0)
80003374:	daf42c23          	sw	a5,-584(s0)
80003378:	00589793          	slli	a5,a7,0x5
8000337c:	e0f42c23          	sw	a5,-488(s0)
80003380:	00042783          	lw	a5,0(s0)
80003384:	e2e42823          	sw	a4,-464(s0)
80003388:	ead42823          	sw	a3,-336(s0)
8000338c:	00579793          	slli	a5,a5,0x5
80003390:	e0f42e23          	sw	a5,-484(s0)
80003394:	e0042783          	lw	a5,-512(s0)
80003398:	00559693          	slli	a3,a1,0x5
8000339c:	ead42c23          	sw	a3,-328(s0)
800033a0:	02f80733          	mul	a4,a6,a5
800033a4:	ffc67693          	andi	a3,a2,-4
800033a8:	40d60633          	sub	a2,a2,a3
800033ac:	dcc42a23          	sw	a2,-556(s0)
800033b0:	dd842603          	lw	a2,-552(s0)
800033b4:	00389513          	slli	a0,a7,0x3
800033b8:	00431313          	slli	t1,t1,0x4
800033bc:	dea42823          	sw	a0,-528(s0)
800033c0:	df042223          	sw	a6,-540(s0)
800033c4:	de642023          	sw	t1,-544(s0)
800033c8:	00e60733          	add	a4,a2,a4
800033cc:	e2e42a23          	sw	a4,-460(s0)
800033d0:	02d50733          	mul	a4,a0,a3
800033d4:	e4042023          	sw	zero,-448(s0)
800033d8:	e4d42423          	sw	a3,-440(s0)
800033dc:	02f507b3          	mul	a5,a0,a5
800033e0:	dce42823          	sw	a4,-560(s0)
800033e4:	d9442703          	lw	a4,-620(s0)
800033e8:	00f707b3          	add	a5,a4,a5
800033ec:	dcf42223          	sw	a5,-572(s0)
800033f0:	02d807b3          	mul	a5,a6,a3
800033f4:	dcf42623          	sw	a5,-564(s0)
800033f8:	e0442783          	lw	a5,-508(s0)
800033fc:	00079463          	bnez	a5,80003404 <mm_cb+0x2058>
80003400:	57d0106f          	j	8000517c <mm_cb+0x3dd0>
80003404:	e4042703          	lw	a4,-448(s0)
80003408:	dec42783          	lw	a5,-532(s0)
8000340c:	40e787b3          	sub	a5,a5,a4
80003410:	e4f42223          	sw	a5,-444(s0)
80003414:	01900713          	li	a4,25
80003418:	00f77663          	bleu	a5,a4,80003424 <mm_cb+0x2078>
8000341c:	01900793          	li	a5,25
80003420:	e4f42223          	sw	a5,-444(s0)
80003424:	e4442703          	lw	a4,-444(s0)
80003428:	00500693          	li	a3,5
8000342c:	e3442603          	lw	a2,-460(s0)
80003430:	02d757b3          	divu	a5,a4,a3
80003434:	dcc42583          	lw	a1,-564(s0)
80003438:	e2042e23          	sw	zero,-452(s0)
8000343c:	00c585b3          	add	a1,a1,a2
80003440:	dcb42423          	sw	a1,-568(s0)
80003444:	dc442583          	lw	a1,-572(s0)
80003448:	e2b42023          	sw	a1,-480(s0)
8000344c:	e3042583          	lw	a1,-464(s0)
80003450:	e4b42623          	sw	a1,-436(s0)
80003454:	02d77733          	remu	a4,a4,a3
80003458:	e2e42c23          	sw	a4,-456(s0)
8000345c:	00279713          	slli	a4,a5,0x2
80003460:	00f707b3          	add	a5,a4,a5
80003464:	00379713          	slli	a4,a5,0x3
80003468:	e6f42423          	sw	a5,-408(s0)
8000346c:	40f007b3          	neg	a5,a5
80003470:	00379793          	slli	a5,a5,0x3
80003474:	def42a23          	sw	a5,-524(s0)
80003478:	de442783          	lw	a5,-540(s0)
8000347c:	00e606b3          	add	a3,a2,a4
80003480:	dce42e23          	sw	a4,-548(s0)
80003484:	40e787b3          	sub	a5,a5,a4
80003488:	def42c23          	sw	a5,-520(s0)
8000348c:	de042783          	lw	a5,-544(s0)
80003490:	dcd42023          	sw	a3,-576(s0)
80003494:	40e787b3          	sub	a5,a5,a4
80003498:	def42e23          	sw	a5,-516(s0)
8000349c:	dbc42783          	lw	a5,-580(s0)
800034a0:	40e787b3          	sub	a5,a5,a4
800034a4:	e0f42423          	sw	a5,-504(s0)
800034a8:	e3c42703          	lw	a4,-452(s0)
800034ac:	e0442783          	lw	a5,-508(s0)
800034b0:	40e787b3          	sub	a5,a5,a4
800034b4:	e4f42a23          	sw	a5,-428(s0)
800034b8:	01800713          	li	a4,24
800034bc:	00f77663          	bleu	a5,a4,800034c8 <mm_cb+0x211c>
800034c0:	01800793          	li	a5,24
800034c4:	e4f42a23          	sw	a5,-428(s0)
800034c8:	e4842783          	lw	a5,-440(s0)
800034cc:	00079463          	bnez	a5,800034d4 <mm_cb+0x2128>
800034d0:	4490106f          	j	80005118 <mm_cb+0x3d6c>
800034d4:	df042783          	lw	a5,-528(s0)
800034d8:	e2042683          	lw	a3,-480(s0)
800034dc:	e5442603          	lw	a2,-428(s0)
800034e0:	e4c42503          	lw	a0,-436(s0)
800034e4:	00d78733          	add	a4,a5,a3
800034e8:	e6e42c23          	sw	a4,-392(s0)
800034ec:	00e78733          	add	a4,a5,a4
800034f0:	00e787b3          	add	a5,a5,a4
800034f4:	e8f42823          	sw	a5,-368(s0)
800034f8:	dc042783          	lw	a5,-576(s0)
800034fc:	e6e42e23          	sw	a4,-388(s0)
80003500:	00361593          	slli	a1,a2,0x3
80003504:	e4f42c23          	sw	a5,-424(s0)
80003508:	00600793          	li	a5,6
8000350c:	02f657b3          	divu	a5,a2,a5
80003510:	e0b42623          	sw	a1,-500(s0)
80003514:	ddc42583          	lw	a1,-548(s0)
80003518:	e6d42823          	sw	a3,-400(s0)
8000351c:	e4042823          	sw	zero,-432(s0)
80003520:	00a585b3          	add	a1,a1,a0
80003524:	e2b42423          	sw	a1,-472(s0)
80003528:	00179713          	slli	a4,a5,0x1
8000352c:	00f70733          	add	a4,a4,a5
80003530:	00471713          	slli	a4,a4,0x4
80003534:	e4e42e23          	sw	a4,-420(s0)
80003538:	ec842703          	lw	a4,-312(s0)
8000353c:	02e787b3          	mul	a5,a5,a4
80003540:	e6f42023          	sw	a5,-416(s0)
80003544:	e6842783          	lw	a5,-408(s0)
80003548:	00079463          	bnez	a5,80003550 <mm_cb+0x21a4>
8000354c:	3450106f          	j	80005090 <mm_cb+0x3ce4>
80003550:	e7042783          	lw	a5,-400(s0)
80003554:	e5c42703          	lw	a4,-420(s0)
80003558:	e6042a23          	sw	zero,-396(s0)
8000355c:	00f70733          	add	a4,a4,a5
80003560:	ece42c23          	sw	a4,-296(s0)
80003564:	e0c42703          	lw	a4,-500(s0)
80003568:	00f707b3          	add	a5,a4,a5
8000356c:	ecf42823          	sw	a5,-304(s0)
80003570:	df442703          	lw	a4,-524(s0)
80003574:	e5842783          	lw	a5,-424(s0)
80003578:	00f70733          	add	a4,a4,a5
8000357c:	e8e42023          	sw	a4,-384(s0)
80003580:	df842703          	lw	a4,-520(s0)
80003584:	00f70733          	add	a4,a4,a5
80003588:	e8e42423          	sw	a4,-376(s0)
8000358c:	dfc42703          	lw	a4,-516(s0)
80003590:	00f70733          	add	a4,a4,a5
80003594:	e8e42a23          	sw	a4,-364(s0)
80003598:	e0842703          	lw	a4,-504(s0)
8000359c:	00f707b3          	add	a5,a4,a5
800035a0:	e8f42c23          	sw	a5,-360(s0)
800035a4:	e4c42783          	lw	a5,-436(s0)
800035a8:	eaf42023          	sw	a5,-352(s0)
800035ac:	e8042783          	lw	a5,-384(s0)
800035b0:	ea042d03          	lw	s10,-352(s0)
800035b4:	00c7a703          	lw	a4,12(a5)
800035b8:	0087a683          	lw	a3,8(a5)
800035bc:	0007a803          	lw	a6,0(a5)
800035c0:	fae42223          	sw	a4,-92(s0)
800035c4:	0147a703          	lw	a4,20(a5)
800035c8:	fad42023          	sw	a3,-96(s0)
800035cc:	0107a683          	lw	a3,16(a5)
800035d0:	f8e42e23          	sw	a4,-100(s0)
800035d4:	01c7a703          	lw	a4,28(a5)
800035d8:	0047a883          	lw	a7,4(a5)
800035dc:	f8d42c23          	sw	a3,-104(s0)
800035e0:	f8e42a23          	sw	a4,-108(s0)
800035e4:	0187a683          	lw	a3,24(a5)
800035e8:	0207a703          	lw	a4,32(a5)
800035ec:	0247a783          	lw	a5,36(a5)
800035f0:	f8d42823          	sw	a3,-112(s0)
800035f4:	f8e42423          	sw	a4,-120(s0)
800035f8:	f8f42623          	sw	a5,-116(s0)
800035fc:	e8842783          	lw	a5,-376(s0)
80003600:	0007a683          	lw	a3,0(a5)
80003604:	0047a703          	lw	a4,4(a5)
80003608:	f8d42023          	sw	a3,-128(s0)
8000360c:	0087a683          	lw	a3,8(a5)
80003610:	f8e42223          	sw	a4,-124(s0)
80003614:	00c7a703          	lw	a4,12(a5)
80003618:	f6d42c23          	sw	a3,-136(s0)
8000361c:	0107a683          	lw	a3,16(a5)
80003620:	f6e42e23          	sw	a4,-132(s0)
80003624:	0147a703          	lw	a4,20(a5)
80003628:	f6d42823          	sw	a3,-144(s0)
8000362c:	f6e42a23          	sw	a4,-140(s0)
80003630:	01c7a703          	lw	a4,28(a5)
80003634:	0187a683          	lw	a3,24(a5)
80003638:	f6e42623          	sw	a4,-148(s0)
8000363c:	0207a703          	lw	a4,32(a5)
80003640:	0247a783          	lw	a5,36(a5)
80003644:	f6d42423          	sw	a3,-152(s0)
80003648:	f6e42023          	sw	a4,-160(s0)
8000364c:	f6f42223          	sw	a5,-156(s0)
80003650:	e9442783          	lw	a5,-364(s0)
80003654:	0047a703          	lw	a4,4(a5)
80003658:	0007a683          	lw	a3,0(a5)
8000365c:	f4e42e23          	sw	a4,-164(s0)
80003660:	00c7a703          	lw	a4,12(a5)
80003664:	f4d42c23          	sw	a3,-168(s0)
80003668:	0087a683          	lw	a3,8(a5)
8000366c:	f4e42a23          	sw	a4,-172(s0)
80003670:	0147a703          	lw	a4,20(a5)
80003674:	f4d42823          	sw	a3,-176(s0)
80003678:	0107a683          	lw	a3,16(a5)
8000367c:	f4e42623          	sw	a4,-180(s0)
80003680:	01c7a703          	lw	a4,28(a5)
80003684:	f4d42423          	sw	a3,-184(s0)
80003688:	0187a683          	lw	a3,24(a5)
8000368c:	f4e42223          	sw	a4,-188(s0)
80003690:	0207a703          	lw	a4,32(a5)
80003694:	0247a783          	lw	a5,36(a5)
80003698:	f4d42023          	sw	a3,-192(s0)
8000369c:	f2e42c23          	sw	a4,-200(s0)
800036a0:	f2f42e23          	sw	a5,-196(s0)
800036a4:	e9842783          	lw	a5,-360(s0)
800036a8:	0047a703          	lw	a4,4(a5)
800036ac:	0007a683          	lw	a3,0(a5)
800036b0:	f2d42823          	sw	a3,-208(s0)
800036b4:	f2e42a23          	sw	a4,-204(s0)
800036b8:	00c7a703          	lw	a4,12(a5)
800036bc:	0087a683          	lw	a3,8(a5)
800036c0:	0207ae03          	lw	t3,32(a5)
800036c4:	f2e42623          	sw	a4,-212(s0)
800036c8:	0147a703          	lw	a4,20(a5)
800036cc:	f2d42423          	sw	a3,-216(s0)
800036d0:	0107a683          	lw	a3,16(a5)
800036d4:	f2e42223          	sw	a4,-220(s0)
800036d8:	01c7a703          	lw	a4,28(a5)
800036dc:	f2d42023          	sw	a3,-224(s0)
800036e0:	0187a683          	lw	a3,24(a5)
800036e4:	f0e42e23          	sw	a4,-228(s0)
800036e8:	0247ae83          	lw	t4,36(a5)
800036ec:	ed842703          	lw	a4,-296(s0)
800036f0:	e7042783          	lw	a5,-400(s0)
800036f4:	f0d42c23          	sw	a3,-232(s0)
800036f8:	00e7e463          	bltu	a5,a4,80003700 <mm_cb+0x2354>
800036fc:	4500106f          	j	80004b4c <mm_cb+0x37a0>
80003700:	e9042703          	lw	a4,-368(s0)
80003704:	00078d93          	mv	s11,a5
80003708:	fae42c23          	sw	a4,-72(s0)
8000370c:	e7c42703          	lw	a4,-388(s0)
80003710:	fae42823          	sw	a4,-80(s0)
80003714:	e7842703          	lw	a4,-392(s0)
80003718:	fae42423          	sw	a4,-88(s0)
8000371c:	000da903          	lw	s2,0(s11)
80003720:	004da983          	lw	s3,4(s11)
80003724:	000d2703          	lw	a4,0(s10)
80003728:	004d2783          	lw	a5,4(s10)
8000372c:	00090513          	mv	a0,s2
80003730:	00070613          	mv	a2,a4
80003734:	00078693          	mv	a3,a5
80003738:	00080713          	mv	a4,a6
8000373c:	00088793          	mv	a5,a7
80003740:	00098593          	mv	a1,s3
80003744:	efc42823          	sw	t3,-272(s0)
80003748:	efd42a23          	sw	t4,-268(s0)
8000374c:	f0c42823          	sw	a2,-240(s0)
80003750:	f0d42a23          	sw	a3,-236(s0)
80003754:	61c080ef          	jal	ra,8000bd70 <fma>
80003758:	008d2783          	lw	a5,8(s10)
8000375c:	00cd2803          	lw	a6,12(s10)
80003760:	fa042703          	lw	a4,-96(s0)
80003764:	eea42c23          	sw	a0,-264(s0)
80003768:	00080893          	mv	a7,a6
8000376c:	00078813          	mv	a6,a5
80003770:	fa442783          	lw	a5,-92(s0)
80003774:	00088693          	mv	a3,a7
80003778:	00080613          	mv	a2,a6
8000377c:	eeb42e23          	sw	a1,-260(s0)
80003780:	00090513          	mv	a0,s2
80003784:	00098593          	mv	a1,s3
80003788:	fb142223          	sw	a7,-92(s0)
8000378c:	fb042023          	sw	a6,-96(s0)
80003790:	5e0080ef          	jal	ra,8000bd70 <fma>
80003794:	010d2c03          	lw	s8,16(s10)
80003798:	014d2c83          	lw	s9,20(s10)
8000379c:	f9842703          	lw	a4,-104(s0)
800037a0:	f9c42783          	lw	a5,-100(s0)
800037a4:	000c0613          	mv	a2,s8
800037a8:	000c8693          	mv	a3,s9
800037ac:	f0a42023          	sw	a0,-256(s0)
800037b0:	f0b42223          	sw	a1,-252(s0)
800037b4:	00090513          	mv	a0,s2
800037b8:	00098593          	mv	a1,s3
800037bc:	5b4080ef          	jal	ra,8000bd70 <fma>
800037c0:	018d2b03          	lw	s6,24(s10)
800037c4:	01cd2b83          	lw	s7,28(s10)
800037c8:	f9042703          	lw	a4,-112(s0)
800037cc:	f9442783          	lw	a5,-108(s0)
800037d0:	000b0613          	mv	a2,s6
800037d4:	000b8693          	mv	a3,s7
800037d8:	eea42423          	sw	a0,-280(s0)
800037dc:	eeb42623          	sw	a1,-276(s0)
800037e0:	00090513          	mv	a0,s2
800037e4:	00098593          	mv	a1,s3
800037e8:	588080ef          	jal	ra,8000bd70 <fma>
800037ec:	020d2a03          	lw	s4,32(s10)
800037f0:	024d2a83          	lw	s5,36(s10)
800037f4:	f8842703          	lw	a4,-120(s0)
800037f8:	f8c42783          	lw	a5,-116(s0)
800037fc:	000a0613          	mv	a2,s4
80003800:	000a8693          	mv	a3,s5
80003804:	f8a42823          	sw	a0,-112(s0)
80003808:	f8b42a23          	sw	a1,-108(s0)
8000380c:	00090513          	mv	a0,s2
80003810:	00098593          	mv	a1,s3
80003814:	55c080ef          	jal	ra,8000bd70 <fma>
80003818:	fa842483          	lw	s1,-88(s0)
8000381c:	f8042703          	lw	a4,-128(s0)
80003820:	f8442783          	lw	a5,-124(s0)
80003824:	0004a903          	lw	s2,0(s1)
80003828:	0044a983          	lw	s3,4(s1)
8000382c:	f8a42423          	sw	a0,-120(s0)
80003830:	f8b42623          	sw	a1,-116(s0)
80003834:	f1042603          	lw	a2,-240(s0)
80003838:	f1442683          	lw	a3,-236(s0)
8000383c:	00090513          	mv	a0,s2
80003840:	00098593          	mv	a1,s3
80003844:	52c080ef          	jal	ra,8000bd70 <fma>
80003848:	f7842703          	lw	a4,-136(s0)
8000384c:	f7c42783          	lw	a5,-132(s0)
80003850:	fa042603          	lw	a2,-96(s0)
80003854:	fa442683          	lw	a3,-92(s0)
80003858:	f8a42023          	sw	a0,-128(s0)
8000385c:	f8b42223          	sw	a1,-124(s0)
80003860:	00090513          	mv	a0,s2
80003864:	00098593          	mv	a1,s3
80003868:	508080ef          	jal	ra,8000bd70 <fma>
8000386c:	f7042703          	lw	a4,-144(s0)
80003870:	f7442783          	lw	a5,-140(s0)
80003874:	000c0613          	mv	a2,s8
80003878:	000c8693          	mv	a3,s9
8000387c:	f6a42c23          	sw	a0,-136(s0)
80003880:	f6b42e23          	sw	a1,-132(s0)
80003884:	00090513          	mv	a0,s2
80003888:	00098593          	mv	a1,s3
8000388c:	4e4080ef          	jal	ra,8000bd70 <fma>
80003890:	f6842703          	lw	a4,-152(s0)
80003894:	f6c42783          	lw	a5,-148(s0)
80003898:	000b0613          	mv	a2,s6
8000389c:	000b8693          	mv	a3,s7
800038a0:	f6a42823          	sw	a0,-144(s0)
800038a4:	f6b42a23          	sw	a1,-140(s0)
800038a8:	00090513          	mv	a0,s2
800038ac:	00098593          	mv	a1,s3
800038b0:	4c0080ef          	jal	ra,8000bd70 <fma>
800038b4:	f6042703          	lw	a4,-160(s0)
800038b8:	f6442783          	lw	a5,-156(s0)
800038bc:	000a0613          	mv	a2,s4
800038c0:	000a8693          	mv	a3,s5
800038c4:	f6a42423          	sw	a0,-152(s0)
800038c8:	f6b42623          	sw	a1,-148(s0)
800038cc:	00090513          	mv	a0,s2
800038d0:	00098593          	mv	a1,s3
800038d4:	49c080ef          	jal	ra,8000bd70 <fma>
800038d8:	fb042683          	lw	a3,-80(s0)
800038dc:	f5842703          	lw	a4,-168(s0)
800038e0:	f5c42783          	lw	a5,-164(s0)
800038e4:	0006a903          	lw	s2,0(a3)
800038e8:	0046a983          	lw	s3,4(a3)
800038ec:	f1042603          	lw	a2,-240(s0)
800038f0:	f1442683          	lw	a3,-236(s0)
800038f4:	f6a42023          	sw	a0,-160(s0)
800038f8:	f6b42223          	sw	a1,-156(s0)
800038fc:	00090513          	mv	a0,s2
80003900:	00098593          	mv	a1,s3
80003904:	46c080ef          	jal	ra,8000bd70 <fma>
80003908:	f5442783          	lw	a5,-172(s0)
8000390c:	f5042703          	lw	a4,-176(s0)
80003910:	fa042603          	lw	a2,-96(s0)
80003914:	fa442683          	lw	a3,-92(s0)
80003918:	f4a42c23          	sw	a0,-168(s0)
8000391c:	f4b42e23          	sw	a1,-164(s0)
80003920:	00090513          	mv	a0,s2
80003924:	00098593          	mv	a1,s3
80003928:	448080ef          	jal	ra,8000bd70 <fma>
8000392c:	f4a42823          	sw	a0,-176(s0)
80003930:	f4b42a23          	sw	a1,-172(s0)
80003934:	f4842703          	lw	a4,-184(s0)
80003938:	f4c42783          	lw	a5,-180(s0)
8000393c:	000c0613          	mv	a2,s8
80003940:	000c8693          	mv	a3,s9
80003944:	00090513          	mv	a0,s2
80003948:	00098593          	mv	a1,s3
8000394c:	424080ef          	jal	ra,8000bd70 <fma>
80003950:	f4042703          	lw	a4,-192(s0)
80003954:	f4442783          	lw	a5,-188(s0)
80003958:	000b0613          	mv	a2,s6
8000395c:	000b8693          	mv	a3,s7
80003960:	f4a42423          	sw	a0,-184(s0)
80003964:	f4b42623          	sw	a1,-180(s0)
80003968:	00090513          	mv	a0,s2
8000396c:	00098593          	mv	a1,s3
80003970:	400080ef          	jal	ra,8000bd70 <fma>
80003974:	f3842703          	lw	a4,-200(s0)
80003978:	f3c42783          	lw	a5,-196(s0)
8000397c:	000a0613          	mv	a2,s4
80003980:	000a8693          	mv	a3,s5
80003984:	f4a42023          	sw	a0,-192(s0)
80003988:	f4b42223          	sw	a1,-188(s0)
8000398c:	00090513          	mv	a0,s2
80003990:	00098593          	mv	a1,s3
80003994:	3dc080ef          	jal	ra,8000bd70 <fma>
80003998:	fb842783          	lw	a5,-72(s0)
8000399c:	f3042703          	lw	a4,-208(s0)
800039a0:	f1042603          	lw	a2,-240(s0)
800039a4:	0007a903          	lw	s2,0(a5)
800039a8:	0047a983          	lw	s3,4(a5)
800039ac:	f1442683          	lw	a3,-236(s0)
800039b0:	f3442783          	lw	a5,-204(s0)
800039b4:	f2a42c23          	sw	a0,-200(s0)
800039b8:	f2b42e23          	sw	a1,-196(s0)
800039bc:	00090513          	mv	a0,s2
800039c0:	00098593          	mv	a1,s3
800039c4:	3ac080ef          	jal	ra,8000bd70 <fma>
800039c8:	f2842703          	lw	a4,-216(s0)
800039cc:	f2c42783          	lw	a5,-212(s0)
800039d0:	fa042603          	lw	a2,-96(s0)
800039d4:	fa442683          	lw	a3,-92(s0)
800039d8:	f2a42823          	sw	a0,-208(s0)
800039dc:	f2b42a23          	sw	a1,-204(s0)
800039e0:	00090513          	mv	a0,s2
800039e4:	00098593          	mv	a1,s3
800039e8:	388080ef          	jal	ra,8000bd70 <fma>
800039ec:	f2042703          	lw	a4,-224(s0)
800039f0:	f2442783          	lw	a5,-220(s0)
800039f4:	000c0613          	mv	a2,s8
800039f8:	000c8693          	mv	a3,s9
800039fc:	f2a42423          	sw	a0,-216(s0)
80003a00:	f2b42623          	sw	a1,-212(s0)
80003a04:	00090513          	mv	a0,s2
80003a08:	00098593          	mv	a1,s3
80003a0c:	364080ef          	jal	ra,8000bd70 <fma>
80003a10:	f0842803          	lw	a6,-248(s0)
80003a14:	f1842703          	lw	a4,-232(s0)
80003a18:	f1c42783          	lw	a5,-228(s0)
80003a1c:	000b0613          	mv	a2,s6
80003a20:	000b8693          	mv	a3,s7
80003a24:	f2a42023          	sw	a0,-224(s0)
80003a28:	f2b42223          	sw	a1,-220(s0)
80003a2c:	00090513          	mv	a0,s2
80003a30:	00098593          	mv	a1,s3
80003a34:	01a804b3          	add	s1,a6,s10
80003a38:	338080ef          	jal	ra,8000bd70 <fma>
80003a3c:	ef042e03          	lw	t3,-272(s0)
80003a40:	f0a42c23          	sw	a0,-232(s0)
80003a44:	f0b42e23          	sw	a1,-228(s0)
80003a48:	ef442e83          	lw	t4,-268(s0)
80003a4c:	000e0713          	mv	a4,t3
80003a50:	000a0613          	mv	a2,s4
80003a54:	000e8793          	mv	a5,t4
80003a58:	000a8693          	mv	a3,s5
80003a5c:	00090513          	mv	a0,s2
80003a60:	00098593          	mv	a1,s3
80003a64:	30c080ef          	jal	ra,8000bd70 <fma>
80003a68:	ef842803          	lw	a6,-264(s0)
80003a6c:	00cda983          	lw	s3,12(s11)
80003a70:	008da903          	lw	s2,8(s11)
80003a74:	efc42883          	lw	a7,-260(s0)
80003a78:	0004a603          	lw	a2,0(s1)
80003a7c:	0044a683          	lw	a3,4(s1)
80003a80:	00080713          	mv	a4,a6
80003a84:	00088793          	mv	a5,a7
80003a88:	eea42823          	sw	a0,-272(s0)
80003a8c:	eeb42a23          	sw	a1,-268(s0)
80003a90:	00090513          	mv	a0,s2
80003a94:	00098593          	mv	a1,s3
80003a98:	fac42023          	sw	a2,-96(s0)
80003a9c:	fad42223          	sw	a3,-92(s0)
80003aa0:	2d0080ef          	jal	ra,8000bd70 <fma>
80003aa4:	00c4a883          	lw	a7,12(s1)
80003aa8:	f0042303          	lw	t1,-256(s0)
80003aac:	f0442383          	lw	t2,-252(s0)
80003ab0:	0084a803          	lw	a6,8(s1)
80003ab4:	00030713          	mv	a4,t1
80003ab8:	00038793          	mv	a5,t2
80003abc:	00088693          	mv	a3,a7
80003ac0:	00080613          	mv	a2,a6
80003ac4:	eea42c23          	sw	a0,-264(s0)
80003ac8:	eeb42e23          	sw	a1,-260(s0)
80003acc:	00090513          	mv	a0,s2
80003ad0:	00098593          	mv	a1,s3
80003ad4:	f9142e23          	sw	a7,-100(s0)
80003ad8:	f9042c23          	sw	a6,-104(s0)
80003adc:	294080ef          	jal	ra,8000bd70 <fma>
80003ae0:	ee842f03          	lw	t5,-280(s0)
80003ae4:	eec42f83          	lw	t6,-276(s0)
80003ae8:	0104ac03          	lw	s8,16(s1)
80003aec:	0144ac83          	lw	s9,20(s1)
80003af0:	000f0713          	mv	a4,t5
80003af4:	000f8793          	mv	a5,t6
80003af8:	000c0613          	mv	a2,s8
80003afc:	000c8693          	mv	a3,s9
80003b00:	f0a42023          	sw	a0,-256(s0)
80003b04:	f0b42223          	sw	a1,-252(s0)
80003b08:	00090513          	mv	a0,s2
80003b0c:	00098593          	mv	a1,s3
80003b10:	260080ef          	jal	ra,8000bd70 <fma>
80003b14:	0184ab03          	lw	s6,24(s1)
80003b18:	01c4ab83          	lw	s7,28(s1)
80003b1c:	f9042703          	lw	a4,-112(s0)
80003b20:	f9442783          	lw	a5,-108(s0)
80003b24:	000b0613          	mv	a2,s6
80003b28:	000b8693          	mv	a3,s7
80003b2c:	f0a42823          	sw	a0,-240(s0)
80003b30:	f0b42a23          	sw	a1,-236(s0)
80003b34:	00090513          	mv	a0,s2
80003b38:	00098593          	mv	a1,s3
80003b3c:	234080ef          	jal	ra,8000bd70 <fma>
80003b40:	0204aa03          	lw	s4,32(s1)
80003b44:	0244aa83          	lw	s5,36(s1)
80003b48:	f8842703          	lw	a4,-120(s0)
80003b4c:	f8c42783          	lw	a5,-116(s0)
80003b50:	000a0613          	mv	a2,s4
80003b54:	000a8693          	mv	a3,s5
80003b58:	f8a42823          	sw	a0,-112(s0)
80003b5c:	f8b42a23          	sw	a1,-108(s0)
80003b60:	00090513          	mv	a0,s2
80003b64:	00098593          	mv	a1,s3
80003b68:	208080ef          	jal	ra,8000bd70 <fma>
80003b6c:	fa842483          	lw	s1,-88(s0)
80003b70:	f8a42423          	sw	a0,-120(s0)
80003b74:	f8b42623          	sw	a1,-116(s0)
80003b78:	0084a903          	lw	s2,8(s1)
80003b7c:	00c4a983          	lw	s3,12(s1)
80003b80:	f8042703          	lw	a4,-128(s0)
80003b84:	f8442783          	lw	a5,-124(s0)
80003b88:	fa042603          	lw	a2,-96(s0)
80003b8c:	fa442683          	lw	a3,-92(s0)
80003b90:	00090513          	mv	a0,s2
80003b94:	00098593          	mv	a1,s3
80003b98:	1d8080ef          	jal	ra,8000bd70 <fma>
80003b9c:	f7842703          	lw	a4,-136(s0)
80003ba0:	f7c42783          	lw	a5,-132(s0)
80003ba4:	f9842603          	lw	a2,-104(s0)
80003ba8:	f9c42683          	lw	a3,-100(s0)
80003bac:	f8a42023          	sw	a0,-128(s0)
80003bb0:	f8b42223          	sw	a1,-124(s0)
80003bb4:	00090513          	mv	a0,s2
80003bb8:	00098593          	mv	a1,s3
80003bbc:	1b4080ef          	jal	ra,8000bd70 <fma>
80003bc0:	f7042703          	lw	a4,-144(s0)
80003bc4:	f7442783          	lw	a5,-140(s0)
80003bc8:	000c0613          	mv	a2,s8
80003bcc:	000c8693          	mv	a3,s9
80003bd0:	f6a42c23          	sw	a0,-136(s0)
80003bd4:	f6b42e23          	sw	a1,-132(s0)
80003bd8:	00090513          	mv	a0,s2
80003bdc:	00098593          	mv	a1,s3
80003be0:	190080ef          	jal	ra,8000bd70 <fma>
80003be4:	f6842703          	lw	a4,-152(s0)
80003be8:	f6c42783          	lw	a5,-148(s0)
80003bec:	000b0613          	mv	a2,s6
80003bf0:	000b8693          	mv	a3,s7
80003bf4:	f6a42823          	sw	a0,-144(s0)
80003bf8:	f6b42a23          	sw	a1,-140(s0)
80003bfc:	00090513          	mv	a0,s2
80003c00:	00098593          	mv	a1,s3
80003c04:	16c080ef          	jal	ra,8000bd70 <fma>
80003c08:	f6042703          	lw	a4,-160(s0)
80003c0c:	f6442783          	lw	a5,-156(s0)
80003c10:	000a0613          	mv	a2,s4
80003c14:	000a8693          	mv	a3,s5
80003c18:	f6a42423          	sw	a0,-152(s0)
80003c1c:	f6b42623          	sw	a1,-148(s0)
80003c20:	00090513          	mv	a0,s2
80003c24:	00098593          	mv	a1,s3
80003c28:	148080ef          	jal	ra,8000bd70 <fma>
80003c2c:	fb042683          	lw	a3,-80(s0)
80003c30:	f5842703          	lw	a4,-168(s0)
80003c34:	f5c42783          	lw	a5,-164(s0)
80003c38:	0086a903          	lw	s2,8(a3)
80003c3c:	00c6a983          	lw	s3,12(a3)
80003c40:	fa042603          	lw	a2,-96(s0)
80003c44:	fa442683          	lw	a3,-92(s0)
80003c48:	f6a42023          	sw	a0,-160(s0)
80003c4c:	f6b42223          	sw	a1,-156(s0)
80003c50:	00090513          	mv	a0,s2
80003c54:	00098593          	mv	a1,s3
80003c58:	118080ef          	jal	ra,8000bd70 <fma>
80003c5c:	f5042703          	lw	a4,-176(s0)
80003c60:	f4a42c23          	sw	a0,-168(s0)
80003c64:	f4b42e23          	sw	a1,-164(s0)
80003c68:	f5442783          	lw	a5,-172(s0)
80003c6c:	f9842603          	lw	a2,-104(s0)
80003c70:	f9c42683          	lw	a3,-100(s0)
80003c74:	00090513          	mv	a0,s2
80003c78:	00098593          	mv	a1,s3
80003c7c:	0f4080ef          	jal	ra,8000bd70 <fma>
80003c80:	f4842703          	lw	a4,-184(s0)
80003c84:	f4c42783          	lw	a5,-180(s0)
80003c88:	000c0613          	mv	a2,s8
80003c8c:	000c8693          	mv	a3,s9
80003c90:	f4a42823          	sw	a0,-176(s0)
80003c94:	f4b42a23          	sw	a1,-172(s0)
80003c98:	00090513          	mv	a0,s2
80003c9c:	00098593          	mv	a1,s3
80003ca0:	0d0080ef          	jal	ra,8000bd70 <fma>
80003ca4:	f4042703          	lw	a4,-192(s0)
80003ca8:	f4442783          	lw	a5,-188(s0)
80003cac:	000b0613          	mv	a2,s6
80003cb0:	000b8693          	mv	a3,s7
80003cb4:	f4a42423          	sw	a0,-184(s0)
80003cb8:	f4b42623          	sw	a1,-180(s0)
80003cbc:	00090513          	mv	a0,s2
80003cc0:	00098593          	mv	a1,s3
80003cc4:	0ac080ef          	jal	ra,8000bd70 <fma>
80003cc8:	f3842703          	lw	a4,-200(s0)
80003ccc:	f3c42783          	lw	a5,-196(s0)
80003cd0:	000a0613          	mv	a2,s4
80003cd4:	000a8693          	mv	a3,s5
80003cd8:	f4a42023          	sw	a0,-192(s0)
80003cdc:	f4b42223          	sw	a1,-188(s0)
80003ce0:	00090513          	mv	a0,s2
80003ce4:	00098593          	mv	a1,s3
80003ce8:	088080ef          	jal	ra,8000bd70 <fma>
80003cec:	fb842783          	lw	a5,-72(s0)
80003cf0:	f3042703          	lw	a4,-208(s0)
80003cf4:	fa042603          	lw	a2,-96(s0)
80003cf8:	0087a903          	lw	s2,8(a5)
80003cfc:	00c7a983          	lw	s3,12(a5)
80003d00:	fa442683          	lw	a3,-92(s0)
80003d04:	f3442783          	lw	a5,-204(s0)
80003d08:	f2a42c23          	sw	a0,-200(s0)
80003d0c:	f2b42e23          	sw	a1,-196(s0)
80003d10:	00090513          	mv	a0,s2
80003d14:	00098593          	mv	a1,s3
80003d18:	058080ef          	jal	ra,8000bd70 <fma>
80003d1c:	f2842703          	lw	a4,-216(s0)
80003d20:	f2c42783          	lw	a5,-212(s0)
80003d24:	f9842603          	lw	a2,-104(s0)
80003d28:	f9c42683          	lw	a3,-100(s0)
80003d2c:	f2a42823          	sw	a0,-208(s0)
80003d30:	f2b42a23          	sw	a1,-204(s0)
80003d34:	00090513          	mv	a0,s2
80003d38:	00098593          	mv	a1,s3
80003d3c:	034080ef          	jal	ra,8000bd70 <fma>
80003d40:	f2042703          	lw	a4,-224(s0)
80003d44:	f2442783          	lw	a5,-220(s0)
80003d48:	000c0613          	mv	a2,s8
80003d4c:	000c8693          	mv	a3,s9
80003d50:	f2a42423          	sw	a0,-216(s0)
80003d54:	f2b42623          	sw	a1,-212(s0)
80003d58:	00090513          	mv	a0,s2
80003d5c:	00098593          	mv	a1,s3
80003d60:	010080ef          	jal	ra,8000bd70 <fma>
80003d64:	f1842703          	lw	a4,-232(s0)
80003d68:	f2a42023          	sw	a0,-224(s0)
80003d6c:	f2b42223          	sw	a1,-220(s0)
80003d70:	f1c42783          	lw	a5,-228(s0)
80003d74:	ec042803          	lw	a6,-320(s0)
80003d78:	000b0613          	mv	a2,s6
80003d7c:	000b8693          	mv	a3,s7
80003d80:	00090513          	mv	a0,s2
80003d84:	00098593          	mv	a1,s3
80003d88:	01a804b3          	add	s1,a6,s10
80003d8c:	7e5070ef          	jal	ra,8000bd70 <fma>
80003d90:	ef042e03          	lw	t3,-272(s0)
80003d94:	ef442e83          	lw	t4,-268(s0)
80003d98:	000a0613          	mv	a2,s4
80003d9c:	000e0713          	mv	a4,t3
80003da0:	000e8793          	mv	a5,t4
80003da4:	000a8693          	mv	a3,s5
80003da8:	f0a42c23          	sw	a0,-232(s0)
80003dac:	f0b42e23          	sw	a1,-228(s0)
80003db0:	00090513          	mv	a0,s2
80003db4:	00098593          	mv	a1,s3
80003db8:	7b9070ef          	jal	ra,8000bd70 <fma>
80003dbc:	ef842803          	lw	a6,-264(s0)
80003dc0:	010da903          	lw	s2,16(s11)
80003dc4:	014da983          	lw	s3,20(s11)
80003dc8:	efc42883          	lw	a7,-260(s0)
80003dcc:	0004a603          	lw	a2,0(s1)
80003dd0:	0044a683          	lw	a3,4(s1)
80003dd4:	00080713          	mv	a4,a6
80003dd8:	00088793          	mv	a5,a7
80003ddc:	eea42823          	sw	a0,-272(s0)
80003de0:	eeb42a23          	sw	a1,-268(s0)
80003de4:	00090513          	mv	a0,s2
80003de8:	00098593          	mv	a1,s3
80003dec:	fac42023          	sw	a2,-96(s0)
80003df0:	fad42223          	sw	a3,-92(s0)
80003df4:	77d070ef          	jal	ra,8000bd70 <fma>
80003df8:	00c4a883          	lw	a7,12(s1)
80003dfc:	f0042303          	lw	t1,-256(s0)
80003e00:	f0442383          	lw	t2,-252(s0)
80003e04:	0084a803          	lw	a6,8(s1)
80003e08:	00030713          	mv	a4,t1
80003e0c:	00038793          	mv	a5,t2
80003e10:	00088693          	mv	a3,a7
80003e14:	00080613          	mv	a2,a6
80003e18:	eea42c23          	sw	a0,-264(s0)
80003e1c:	eeb42e23          	sw	a1,-260(s0)
80003e20:	00090513          	mv	a0,s2
80003e24:	00098593          	mv	a1,s3
80003e28:	f9142e23          	sw	a7,-100(s0)
80003e2c:	f9042c23          	sw	a6,-104(s0)
80003e30:	741070ef          	jal	ra,8000bd70 <fma>
80003e34:	f1042f03          	lw	t5,-240(s0)
80003e38:	f1442f83          	lw	t6,-236(s0)
80003e3c:	0104ac03          	lw	s8,16(s1)
80003e40:	0144ac83          	lw	s9,20(s1)
80003e44:	000f0713          	mv	a4,t5
80003e48:	000f8793          	mv	a5,t6
80003e4c:	000c0613          	mv	a2,s8
80003e50:	000c8693          	mv	a3,s9
80003e54:	f0a42023          	sw	a0,-256(s0)
80003e58:	f0b42223          	sw	a1,-252(s0)
80003e5c:	00090513          	mv	a0,s2
80003e60:	00098593          	mv	a1,s3
80003e64:	70d070ef          	jal	ra,8000bd70 <fma>
80003e68:	0184ab03          	lw	s6,24(s1)
80003e6c:	01c4ab83          	lw	s7,28(s1)
80003e70:	f9442783          	lw	a5,-108(s0)
80003e74:	f9042703          	lw	a4,-112(s0)
80003e78:	000b0613          	mv	a2,s6
80003e7c:	000b8693          	mv	a3,s7
80003e80:	f0a42823          	sw	a0,-240(s0)
80003e84:	f0b42a23          	sw	a1,-236(s0)
80003e88:	00090513          	mv	a0,s2
80003e8c:	00098593          	mv	a1,s3
80003e90:	6e1070ef          	jal	ra,8000bd70 <fma>
80003e94:	0204aa03          	lw	s4,32(s1)
80003e98:	0244aa83          	lw	s5,36(s1)
80003e9c:	f8a42823          	sw	a0,-112(s0)
80003ea0:	f8b42a23          	sw	a1,-108(s0)
80003ea4:	f8842703          	lw	a4,-120(s0)
80003ea8:	f8c42783          	lw	a5,-116(s0)
80003eac:	000a0613          	mv	a2,s4
80003eb0:	000a8693          	mv	a3,s5
80003eb4:	00090513          	mv	a0,s2
80003eb8:	00098593          	mv	a1,s3
80003ebc:	6b5070ef          	jal	ra,8000bd70 <fma>
80003ec0:	fa842483          	lw	s1,-88(s0)
80003ec4:	f8042703          	lw	a4,-128(s0)
80003ec8:	f8442783          	lw	a5,-124(s0)
80003ecc:	0104a903          	lw	s2,16(s1)
80003ed0:	0144a983          	lw	s3,20(s1)
80003ed4:	fa042603          	lw	a2,-96(s0)
80003ed8:	fa442683          	lw	a3,-92(s0)
80003edc:	f8a42423          	sw	a0,-120(s0)
80003ee0:	f8b42623          	sw	a1,-116(s0)
80003ee4:	00090513          	mv	a0,s2
80003ee8:	00098593          	mv	a1,s3
80003eec:	685070ef          	jal	ra,8000bd70 <fma>
80003ef0:	f7842703          	lw	a4,-136(s0)
80003ef4:	f7c42783          	lw	a5,-132(s0)
80003ef8:	f9842603          	lw	a2,-104(s0)
80003efc:	f9c42683          	lw	a3,-100(s0)
80003f00:	f8a42023          	sw	a0,-128(s0)
80003f04:	f8b42223          	sw	a1,-124(s0)
80003f08:	00090513          	mv	a0,s2
80003f0c:	00098593          	mv	a1,s3
80003f10:	661070ef          	jal	ra,8000bd70 <fma>
80003f14:	f7042703          	lw	a4,-144(s0)
80003f18:	f7442783          	lw	a5,-140(s0)
80003f1c:	000c0613          	mv	a2,s8
80003f20:	000c8693          	mv	a3,s9
80003f24:	f6a42c23          	sw	a0,-136(s0)
80003f28:	f6b42e23          	sw	a1,-132(s0)
80003f2c:	00090513          	mv	a0,s2
80003f30:	00098593          	mv	a1,s3
80003f34:	63d070ef          	jal	ra,8000bd70 <fma>
80003f38:	f6842703          	lw	a4,-152(s0)
80003f3c:	f6c42783          	lw	a5,-148(s0)
80003f40:	000b0613          	mv	a2,s6
80003f44:	000b8693          	mv	a3,s7
80003f48:	f6a42823          	sw	a0,-144(s0)
80003f4c:	f6b42a23          	sw	a1,-140(s0)
80003f50:	00090513          	mv	a0,s2
80003f54:	00098593          	mv	a1,s3
80003f58:	619070ef          	jal	ra,8000bd70 <fma>
80003f5c:	f6042703          	lw	a4,-160(s0)
80003f60:	f6442783          	lw	a5,-156(s0)
80003f64:	000a0613          	mv	a2,s4
80003f68:	000a8693          	mv	a3,s5
80003f6c:	f6a42423          	sw	a0,-152(s0)
80003f70:	f6b42623          	sw	a1,-148(s0)
80003f74:	00090513          	mv	a0,s2
80003f78:	00098593          	mv	a1,s3
80003f7c:	5f5070ef          	jal	ra,8000bd70 <fma>
80003f80:	fb042683          	lw	a3,-80(s0)
80003f84:	f5842703          	lw	a4,-168(s0)
80003f88:	f5c42783          	lw	a5,-164(s0)
80003f8c:	0106a903          	lw	s2,16(a3)
80003f90:	0146a983          	lw	s3,20(a3)
80003f94:	f6a42023          	sw	a0,-160(s0)
80003f98:	f6b42223          	sw	a1,-156(s0)
80003f9c:	fa042603          	lw	a2,-96(s0)
80003fa0:	fa442683          	lw	a3,-92(s0)
80003fa4:	00090513          	mv	a0,s2
80003fa8:	00098593          	mv	a1,s3
80003fac:	5c5070ef          	jal	ra,8000bd70 <fma>
80003fb0:	f5042703          	lw	a4,-176(s0)
80003fb4:	f5442783          	lw	a5,-172(s0)
80003fb8:	f9842603          	lw	a2,-104(s0)
80003fbc:	f9c42683          	lw	a3,-100(s0)
80003fc0:	f4a42c23          	sw	a0,-168(s0)
80003fc4:	f4b42e23          	sw	a1,-164(s0)
80003fc8:	00090513          	mv	a0,s2
80003fcc:	00098593          	mv	a1,s3
80003fd0:	5a1070ef          	jal	ra,8000bd70 <fma>
80003fd4:	f4842703          	lw	a4,-184(s0)
80003fd8:	f4c42783          	lw	a5,-180(s0)
80003fdc:	000c0613          	mv	a2,s8
80003fe0:	000c8693          	mv	a3,s9
80003fe4:	f4a42823          	sw	a0,-176(s0)
80003fe8:	f4b42a23          	sw	a1,-172(s0)
80003fec:	00090513          	mv	a0,s2
80003ff0:	00098593          	mv	a1,s3
80003ff4:	57d070ef          	jal	ra,8000bd70 <fma>
80003ff8:	f4042703          	lw	a4,-192(s0)
80003ffc:	f4442783          	lw	a5,-188(s0)
80004000:	000b0613          	mv	a2,s6
80004004:	000b8693          	mv	a3,s7
80004008:	f4a42423          	sw	a0,-184(s0)
8000400c:	f4b42623          	sw	a1,-180(s0)
80004010:	00090513          	mv	a0,s2
80004014:	00098593          	mv	a1,s3
80004018:	559070ef          	jal	ra,8000bd70 <fma>
8000401c:	f3842703          	lw	a4,-200(s0)
80004020:	f3c42783          	lw	a5,-196(s0)
80004024:	000a0613          	mv	a2,s4
80004028:	000a8693          	mv	a3,s5
8000402c:	f4a42023          	sw	a0,-192(s0)
80004030:	f4b42223          	sw	a1,-188(s0)
80004034:	00090513          	mv	a0,s2
80004038:	00098593          	mv	a1,s3
8000403c:	535070ef          	jal	ra,8000bd70 <fma>
80004040:	fb842783          	lw	a5,-72(s0)
80004044:	f3042703          	lw	a4,-208(s0)
80004048:	fa042603          	lw	a2,-96(s0)
8000404c:	0107a903          	lw	s2,16(a5)
80004050:	0147a983          	lw	s3,20(a5)
80004054:	fa442683          	lw	a3,-92(s0)
80004058:	f3442783          	lw	a5,-204(s0)
8000405c:	f2a42c23          	sw	a0,-200(s0)
80004060:	f2b42e23          	sw	a1,-196(s0)
80004064:	00090513          	mv	a0,s2
80004068:	00098593          	mv	a1,s3
8000406c:	505070ef          	jal	ra,8000bd70 <fma>
80004070:	f2c42783          	lw	a5,-212(s0)
80004074:	f2842703          	lw	a4,-216(s0)
80004078:	f9842603          	lw	a2,-104(s0)
8000407c:	f9c42683          	lw	a3,-100(s0)
80004080:	f2a42823          	sw	a0,-208(s0)
80004084:	f2b42a23          	sw	a1,-204(s0)
80004088:	00090513          	mv	a0,s2
8000408c:	00098593          	mv	a1,s3
80004090:	4e1070ef          	jal	ra,8000bd70 <fma>
80004094:	f2a42423          	sw	a0,-216(s0)
80004098:	f2b42623          	sw	a1,-212(s0)
8000409c:	f2042703          	lw	a4,-224(s0)
800040a0:	f2442783          	lw	a5,-220(s0)
800040a4:	000c0613          	mv	a2,s8
800040a8:	000c8693          	mv	a3,s9
800040ac:	00090513          	mv	a0,s2
800040b0:	00098593          	mv	a1,s3
800040b4:	4bd070ef          	jal	ra,8000bd70 <fma>
800040b8:	eb042803          	lw	a6,-336(s0)
800040bc:	f1842703          	lw	a4,-232(s0)
800040c0:	f1c42783          	lw	a5,-228(s0)
800040c4:	000b0613          	mv	a2,s6
800040c8:	000b8693          	mv	a3,s7
800040cc:	f2a42023          	sw	a0,-224(s0)
800040d0:	f2b42223          	sw	a1,-220(s0)
800040d4:	00090513          	mv	a0,s2
800040d8:	00098593          	mv	a1,s3
800040dc:	010d04b3          	add	s1,s10,a6
800040e0:	491070ef          	jal	ra,8000bd70 <fma>
800040e4:	ef042e03          	lw	t3,-272(s0)
800040e8:	ef442e83          	lw	t4,-268(s0)
800040ec:	000a0613          	mv	a2,s4
800040f0:	000e0713          	mv	a4,t3
800040f4:	000e8793          	mv	a5,t4
800040f8:	000a8693          	mv	a3,s5
800040fc:	f0a42c23          	sw	a0,-232(s0)
80004100:	f0b42e23          	sw	a1,-228(s0)
80004104:	00090513          	mv	a0,s2
80004108:	00098593          	mv	a1,s3
8000410c:	465070ef          	jal	ra,8000bd70 <fma>
80004110:	ef842803          	lw	a6,-264(s0)
80004114:	018da903          	lw	s2,24(s11)
80004118:	01cda983          	lw	s3,28(s11)
8000411c:	efc42883          	lw	a7,-260(s0)
80004120:	0004a603          	lw	a2,0(s1)
80004124:	0044a683          	lw	a3,4(s1)
80004128:	00080713          	mv	a4,a6
8000412c:	00088793          	mv	a5,a7
80004130:	eea42823          	sw	a0,-272(s0)
80004134:	eeb42a23          	sw	a1,-268(s0)
80004138:	00090513          	mv	a0,s2
8000413c:	00098593          	mv	a1,s3
80004140:	fac42023          	sw	a2,-96(s0)
80004144:	fad42223          	sw	a3,-92(s0)
80004148:	429070ef          	jal	ra,8000bd70 <fma>
8000414c:	00c4a883          	lw	a7,12(s1)
80004150:	f0042303          	lw	t1,-256(s0)
80004154:	f0442383          	lw	t2,-252(s0)
80004158:	0084a803          	lw	a6,8(s1)
8000415c:	00030713          	mv	a4,t1
80004160:	00038793          	mv	a5,t2
80004164:	00088693          	mv	a3,a7
80004168:	00080613          	mv	a2,a6
8000416c:	eea42c23          	sw	a0,-264(s0)
80004170:	eeb42e23          	sw	a1,-260(s0)
80004174:	00090513          	mv	a0,s2
80004178:	00098593          	mv	a1,s3
8000417c:	f9142e23          	sw	a7,-100(s0)
80004180:	f9042c23          	sw	a6,-104(s0)
80004184:	3ed070ef          	jal	ra,8000bd70 <fma>
80004188:	f1042f03          	lw	t5,-240(s0)
8000418c:	f1442f83          	lw	t6,-236(s0)
80004190:	0104ac03          	lw	s8,16(s1)
80004194:	0144ac83          	lw	s9,20(s1)
80004198:	000f0713          	mv	a4,t5
8000419c:	000f8793          	mv	a5,t6
800041a0:	000c0613          	mv	a2,s8
800041a4:	000c8693          	mv	a3,s9
800041a8:	f0a42023          	sw	a0,-256(s0)
800041ac:	f0b42223          	sw	a1,-252(s0)
800041b0:	00090513          	mv	a0,s2
800041b4:	00098593          	mv	a1,s3
800041b8:	3b9070ef          	jal	ra,8000bd70 <fma>
800041bc:	0184ab03          	lw	s6,24(s1)
800041c0:	01c4ab83          	lw	s7,28(s1)
800041c4:	f9042703          	lw	a4,-112(s0)
800041c8:	f0a42823          	sw	a0,-240(s0)
800041cc:	f0b42a23          	sw	a1,-236(s0)
800041d0:	f9442783          	lw	a5,-108(s0)
800041d4:	000b0613          	mv	a2,s6
800041d8:	000b8693          	mv	a3,s7
800041dc:	00090513          	mv	a0,s2
800041e0:	00098593          	mv	a1,s3
800041e4:	38d070ef          	jal	ra,8000bd70 <fma>
800041e8:	0204aa03          	lw	s4,32(s1)
800041ec:	0244aa83          	lw	s5,36(s1)
800041f0:	f8842703          	lw	a4,-120(s0)
800041f4:	f8c42783          	lw	a5,-116(s0)
800041f8:	000a0613          	mv	a2,s4
800041fc:	000a8693          	mv	a3,s5
80004200:	f8a42823          	sw	a0,-112(s0)
80004204:	f8b42a23          	sw	a1,-108(s0)
80004208:	00090513          	mv	a0,s2
8000420c:	00098593          	mv	a1,s3
80004210:	361070ef          	jal	ra,8000bd70 <fma>
80004214:	fa842483          	lw	s1,-88(s0)
80004218:	f8042703          	lw	a4,-128(s0)
8000421c:	f8442783          	lw	a5,-124(s0)
80004220:	01c4a983          	lw	s3,28(s1)
80004224:	0184a903          	lw	s2,24(s1)
80004228:	fa042603          	lw	a2,-96(s0)
8000422c:	fa442683          	lw	a3,-92(s0)
80004230:	f8a42423          	sw	a0,-120(s0)
80004234:	f8b42623          	sw	a1,-116(s0)
80004238:	00090513          	mv	a0,s2
8000423c:	00098593          	mv	a1,s3
80004240:	331070ef          	jal	ra,8000bd70 <fma>
80004244:	f7842703          	lw	a4,-136(s0)
80004248:	f7c42783          	lw	a5,-132(s0)
8000424c:	f9842603          	lw	a2,-104(s0)
80004250:	f9c42683          	lw	a3,-100(s0)
80004254:	f8a42023          	sw	a0,-128(s0)
80004258:	f8b42223          	sw	a1,-124(s0)
8000425c:	00090513          	mv	a0,s2
80004260:	00098593          	mv	a1,s3
80004264:	30d070ef          	jal	ra,8000bd70 <fma>
80004268:	f7042703          	lw	a4,-144(s0)
8000426c:	f7442783          	lw	a5,-140(s0)
80004270:	000c0613          	mv	a2,s8
80004274:	000c8693          	mv	a3,s9
80004278:	f6a42c23          	sw	a0,-136(s0)
8000427c:	f6b42e23          	sw	a1,-132(s0)
80004280:	00090513          	mv	a0,s2
80004284:	00098593          	mv	a1,s3
80004288:	2e9070ef          	jal	ra,8000bd70 <fma>
8000428c:	f6842703          	lw	a4,-152(s0)
80004290:	f6c42783          	lw	a5,-148(s0)
80004294:	000b0613          	mv	a2,s6
80004298:	000b8693          	mv	a3,s7
8000429c:	f6a42823          	sw	a0,-144(s0)
800042a0:	f6b42a23          	sw	a1,-140(s0)
800042a4:	00090513          	mv	a0,s2
800042a8:	00098593          	mv	a1,s3
800042ac:	2c5070ef          	jal	ra,8000bd70 <fma>
800042b0:	f6042703          	lw	a4,-160(s0)
800042b4:	f6442783          	lw	a5,-156(s0)
800042b8:	000a0613          	mv	a2,s4
800042bc:	000a8693          	mv	a3,s5
800042c0:	f6a42423          	sw	a0,-152(s0)
800042c4:	f6b42623          	sw	a1,-148(s0)
800042c8:	00090513          	mv	a0,s2
800042cc:	00098593          	mv	a1,s3
800042d0:	2a1070ef          	jal	ra,8000bd70 <fma>
800042d4:	fb042683          	lw	a3,-80(s0)
800042d8:	f6a42023          	sw	a0,-160(s0)
800042dc:	f6b42223          	sw	a1,-156(s0)
800042e0:	0186a903          	lw	s2,24(a3)
800042e4:	01c6a983          	lw	s3,28(a3)
800042e8:	f5842703          	lw	a4,-168(s0)
800042ec:	f5c42783          	lw	a5,-164(s0)
800042f0:	fa042603          	lw	a2,-96(s0)
800042f4:	fa442683          	lw	a3,-92(s0)
800042f8:	00090513          	mv	a0,s2
800042fc:	00098593          	mv	a1,s3
80004300:	271070ef          	jal	ra,8000bd70 <fma>
80004304:	f5042703          	lw	a4,-176(s0)
80004308:	f5442783          	lw	a5,-172(s0)
8000430c:	f9842603          	lw	a2,-104(s0)
80004310:	f9c42683          	lw	a3,-100(s0)
80004314:	f4a42c23          	sw	a0,-168(s0)
80004318:	f4b42e23          	sw	a1,-164(s0)
8000431c:	00090513          	mv	a0,s2
80004320:	00098593          	mv	a1,s3
80004324:	24d070ef          	jal	ra,8000bd70 <fma>
80004328:	f4842703          	lw	a4,-184(s0)
8000432c:	f4c42783          	lw	a5,-180(s0)
80004330:	000c0613          	mv	a2,s8
80004334:	000c8693          	mv	a3,s9
80004338:	f4a42823          	sw	a0,-176(s0)
8000433c:	f4b42a23          	sw	a1,-172(s0)
80004340:	00090513          	mv	a0,s2
80004344:	00098593          	mv	a1,s3
80004348:	229070ef          	jal	ra,8000bd70 <fma>
8000434c:	f4042703          	lw	a4,-192(s0)
80004350:	f4442783          	lw	a5,-188(s0)
80004354:	000b0613          	mv	a2,s6
80004358:	000b8693          	mv	a3,s7
8000435c:	f4a42423          	sw	a0,-184(s0)
80004360:	f4b42623          	sw	a1,-180(s0)
80004364:	00090513          	mv	a0,s2
80004368:	00098593          	mv	a1,s3
8000436c:	205070ef          	jal	ra,8000bd70 <fma>
80004370:	f3842703          	lw	a4,-200(s0)
80004374:	f3c42783          	lw	a5,-196(s0)
80004378:	000a0613          	mv	a2,s4
8000437c:	000a8693          	mv	a3,s5
80004380:	f4a42023          	sw	a0,-192(s0)
80004384:	f4b42223          	sw	a1,-188(s0)
80004388:	00090513          	mv	a0,s2
8000438c:	00098593          	mv	a1,s3
80004390:	1e1070ef          	jal	ra,8000bd70 <fma>
80004394:	fb842783          	lw	a5,-72(s0)
80004398:	f3042703          	lw	a4,-208(s0)
8000439c:	fa042603          	lw	a2,-96(s0)
800043a0:	0187a903          	lw	s2,24(a5)
800043a4:	01c7a983          	lw	s3,28(a5)
800043a8:	fa442683          	lw	a3,-92(s0)
800043ac:	f3442783          	lw	a5,-204(s0)
800043b0:	f2a42c23          	sw	a0,-200(s0)
800043b4:	f2b42e23          	sw	a1,-196(s0)
800043b8:	00090513          	mv	a0,s2
800043bc:	00098593          	mv	a1,s3
800043c0:	1b1070ef          	jal	ra,8000bd70 <fma>
800043c4:	f2842703          	lw	a4,-216(s0)
800043c8:	f2a42823          	sw	a0,-208(s0)
800043cc:	f2b42a23          	sw	a1,-204(s0)
800043d0:	f2c42783          	lw	a5,-212(s0)
800043d4:	f9842603          	lw	a2,-104(s0)
800043d8:	f9c42683          	lw	a3,-100(s0)
800043dc:	00090513          	mv	a0,s2
800043e0:	00098593          	mv	a1,s3
800043e4:	18d070ef          	jal	ra,8000bd70 <fma>
800043e8:	f2042703          	lw	a4,-224(s0)
800043ec:	f2442783          	lw	a5,-220(s0)
800043f0:	000c0613          	mv	a2,s8
800043f4:	000c8693          	mv	a3,s9
800043f8:	f2a42423          	sw	a0,-216(s0)
800043fc:	f2b42623          	sw	a1,-212(s0)
80004400:	00090513          	mv	a0,s2
80004404:	00098593          	mv	a1,s3
80004408:	169070ef          	jal	ra,8000bd70 <fma>
8000440c:	eb842803          	lw	a6,-328(s0)
80004410:	f1842703          	lw	a4,-232(s0)
80004414:	f1c42783          	lw	a5,-228(s0)
80004418:	000b0613          	mv	a2,s6
8000441c:	000b8693          	mv	a3,s7
80004420:	f2a42023          	sw	a0,-224(s0)
80004424:	f2b42223          	sw	a1,-220(s0)
80004428:	00090513          	mv	a0,s2
8000442c:	00098593          	mv	a1,s3
80004430:	01a804b3          	add	s1,a6,s10
80004434:	13d070ef          	jal	ra,8000bd70 <fma>
80004438:	ef042e03          	lw	t3,-272(s0)
8000443c:	ef442e83          	lw	t4,-268(s0)
80004440:	000a0613          	mv	a2,s4
80004444:	000e0713          	mv	a4,t3
80004448:	000e8793          	mv	a5,t4
8000444c:	000a8693          	mv	a3,s5
80004450:	f0a42c23          	sw	a0,-232(s0)
80004454:	f0b42e23          	sw	a1,-228(s0)
80004458:	00090513          	mv	a0,s2
8000445c:	00098593          	mv	a1,s3
80004460:	111070ef          	jal	ra,8000bd70 <fma>
80004464:	ef842803          	lw	a6,-264(s0)
80004468:	020da903          	lw	s2,32(s11)
8000446c:	024da983          	lw	s3,36(s11)
80004470:	efc42883          	lw	a7,-260(s0)
80004474:	0004a603          	lw	a2,0(s1)
80004478:	0044a683          	lw	a3,4(s1)
8000447c:	00080713          	mv	a4,a6
80004480:	00088793          	mv	a5,a7
80004484:	eea42823          	sw	a0,-272(s0)
80004488:	eeb42a23          	sw	a1,-268(s0)
8000448c:	00090513          	mv	a0,s2
80004490:	00098593          	mv	a1,s3
80004494:	fac42023          	sw	a2,-96(s0)
80004498:	fad42223          	sw	a3,-92(s0)
8000449c:	0d5070ef          	jal	ra,8000bd70 <fma>
800044a0:	00c4a883          	lw	a7,12(s1)
800044a4:	f0042303          	lw	t1,-256(s0)
800044a8:	f0442383          	lw	t2,-252(s0)
800044ac:	0084a803          	lw	a6,8(s1)
800044b0:	00030713          	mv	a4,t1
800044b4:	00038793          	mv	a5,t2
800044b8:	00088693          	mv	a3,a7
800044bc:	00080613          	mv	a2,a6
800044c0:	eea42c23          	sw	a0,-264(s0)
800044c4:	eeb42e23          	sw	a1,-260(s0)
800044c8:	00090513          	mv	a0,s2
800044cc:	00098593          	mv	a1,s3
800044d0:	f9142e23          	sw	a7,-100(s0)
800044d4:	f9042c23          	sw	a6,-104(s0)
800044d8:	099070ef          	jal	ra,8000bd70 <fma>
800044dc:	f1042f03          	lw	t5,-240(s0)
800044e0:	f1442f83          	lw	t6,-236(s0)
800044e4:	0104ac03          	lw	s8,16(s1)
800044e8:	0144ac83          	lw	s9,20(s1)
800044ec:	000f0713          	mv	a4,t5
800044f0:	000f8793          	mv	a5,t6
800044f4:	000c0613          	mv	a2,s8
800044f8:	000c8693          	mv	a3,s9
800044fc:	eea42023          	sw	a0,-288(s0)
80004500:	eeb42223          	sw	a1,-284(s0)
80004504:	00090513          	mv	a0,s2
80004508:	00098593          	mv	a1,s3
8000450c:	065070ef          	jal	ra,8000bd70 <fma>
80004510:	0184ab03          	lw	s6,24(s1)
80004514:	01c4ab83          	lw	s7,28(s1)
80004518:	f9042703          	lw	a4,-112(s0)
8000451c:	f9442783          	lw	a5,-108(s0)
80004520:	000b0613          	mv	a2,s6
80004524:	000b8693          	mv	a3,s7
80004528:	eea42423          	sw	a0,-280(s0)
8000452c:	eeb42623          	sw	a1,-276(s0)
80004530:	00090513          	mv	a0,s2
80004534:	00098593          	mv	a1,s3
80004538:	039070ef          	jal	ra,8000bd70 <fma>
8000453c:	0204aa03          	lw	s4,32(s1)
80004540:	0244aa83          	lw	s5,36(s1)
80004544:	f8842703          	lw	a4,-120(s0)
80004548:	f8c42783          	lw	a5,-116(s0)
8000454c:	000a0613          	mv	a2,s4
80004550:	000a8693          	mv	a3,s5
80004554:	f8a42823          	sw	a0,-112(s0)
80004558:	f8b42a23          	sw	a1,-108(s0)
8000455c:	00090513          	mv	a0,s2
80004560:	00098593          	mv	a1,s3
80004564:	00d070ef          	jal	ra,8000bd70 <fma>
80004568:	fa842483          	lw	s1,-88(s0)
8000456c:	f8042703          	lw	a4,-128(s0)
80004570:	f8442783          	lw	a5,-124(s0)
80004574:	0204a903          	lw	s2,32(s1)
80004578:	0244a983          	lw	s3,36(s1)
8000457c:	fa042603          	lw	a2,-96(s0)
80004580:	fa442683          	lw	a3,-92(s0)
80004584:	f8a42423          	sw	a0,-120(s0)
80004588:	f8b42623          	sw	a1,-116(s0)
8000458c:	00090513          	mv	a0,s2
80004590:	00098593          	mv	a1,s3
80004594:	7dc070ef          	jal	ra,8000bd70 <fma>
80004598:	f7842703          	lw	a4,-136(s0)
8000459c:	f7c42783          	lw	a5,-132(s0)
800045a0:	f9842603          	lw	a2,-104(s0)
800045a4:	f9c42683          	lw	a3,-100(s0)
800045a8:	f8a42023          	sw	a0,-128(s0)
800045ac:	f8b42223          	sw	a1,-124(s0)
800045b0:	00090513          	mv	a0,s2
800045b4:	00098593          	mv	a1,s3
800045b8:	7b8070ef          	jal	ra,8000bd70 <fma>
800045bc:	f7042703          	lw	a4,-144(s0)
800045c0:	f7442783          	lw	a5,-140(s0)
800045c4:	000c0613          	mv	a2,s8
800045c8:	000c8693          	mv	a3,s9
800045cc:	f6a42c23          	sw	a0,-136(s0)
800045d0:	f6b42e23          	sw	a1,-132(s0)
800045d4:	00090513          	mv	a0,s2
800045d8:	00098593          	mv	a1,s3
800045dc:	794070ef          	jal	ra,8000bd70 <fma>
800045e0:	f6c42783          	lw	a5,-148(s0)
800045e4:	f6842703          	lw	a4,-152(s0)
800045e8:	000b0613          	mv	a2,s6
800045ec:	000b8693          	mv	a3,s7
800045f0:	f6a42823          	sw	a0,-144(s0)
800045f4:	f6b42a23          	sw	a1,-140(s0)
800045f8:	00090513          	mv	a0,s2
800045fc:	00098593          	mv	a1,s3
80004600:	770070ef          	jal	ra,8000bd70 <fma>
80004604:	f6a42423          	sw	a0,-152(s0)
80004608:	f6b42623          	sw	a1,-148(s0)
8000460c:	f6042703          	lw	a4,-160(s0)
80004610:	f6442783          	lw	a5,-156(s0)
80004614:	000a0613          	mv	a2,s4
80004618:	000a8693          	mv	a3,s5
8000461c:	00090513          	mv	a0,s2
80004620:	00098593          	mv	a1,s3
80004624:	74c070ef          	jal	ra,8000bd70 <fma>
80004628:	fb042683          	lw	a3,-80(s0)
8000462c:	f5842703          	lw	a4,-168(s0)
80004630:	f5c42783          	lw	a5,-164(s0)
80004634:	0206a903          	lw	s2,32(a3)
80004638:	0246a983          	lw	s3,36(a3)
8000463c:	fa042603          	lw	a2,-96(s0)
80004640:	fa442683          	lw	a3,-92(s0)
80004644:	f6a42023          	sw	a0,-160(s0)
80004648:	f6b42223          	sw	a1,-156(s0)
8000464c:	00090513          	mv	a0,s2
80004650:	00098593          	mv	a1,s3
80004654:	71c070ef          	jal	ra,8000bd70 <fma>
80004658:	f5042703          	lw	a4,-176(s0)
8000465c:	f5442783          	lw	a5,-172(s0)
80004660:	f9842603          	lw	a2,-104(s0)
80004664:	f9c42683          	lw	a3,-100(s0)
80004668:	f4a42c23          	sw	a0,-168(s0)
8000466c:	f4b42e23          	sw	a1,-164(s0)
80004670:	00090513          	mv	a0,s2
80004674:	00098593          	mv	a1,s3
80004678:	6f8070ef          	jal	ra,8000bd70 <fma>
8000467c:	f4842703          	lw	a4,-184(s0)
80004680:	f4c42783          	lw	a5,-180(s0)
80004684:	000c0613          	mv	a2,s8
80004688:	000c8693          	mv	a3,s9
8000468c:	f4a42823          	sw	a0,-176(s0)
80004690:	f4b42a23          	sw	a1,-172(s0)
80004694:	00090513          	mv	a0,s2
80004698:	00098593          	mv	a1,s3
8000469c:	6d4070ef          	jal	ra,8000bd70 <fma>
800046a0:	f4042703          	lw	a4,-192(s0)
800046a4:	f4442783          	lw	a5,-188(s0)
800046a8:	000b0613          	mv	a2,s6
800046ac:	000b8693          	mv	a3,s7
800046b0:	f4a42423          	sw	a0,-184(s0)
800046b4:	f4b42623          	sw	a1,-180(s0)
800046b8:	00090513          	mv	a0,s2
800046bc:	00098593          	mv	a1,s3
800046c0:	6b0070ef          	jal	ra,8000bd70 <fma>
800046c4:	f3842703          	lw	a4,-200(s0)
800046c8:	f3c42783          	lw	a5,-196(s0)
800046cc:	000a0613          	mv	a2,s4
800046d0:	000a8693          	mv	a3,s5
800046d4:	f4a42023          	sw	a0,-192(s0)
800046d8:	f4b42223          	sw	a1,-188(s0)
800046dc:	00090513          	mv	a0,s2
800046e0:	00098593          	mv	a1,s3
800046e4:	68c070ef          	jal	ra,8000bd70 <fma>
800046e8:	fb842783          	lw	a5,-72(s0)
800046ec:	f3042703          	lw	a4,-208(s0)
800046f0:	f2a42c23          	sw	a0,-200(s0)
800046f4:	0207a903          	lw	s2,32(a5)
800046f8:	0247a983          	lw	s3,36(a5)
800046fc:	f2b42e23          	sw	a1,-196(s0)
80004700:	f3442783          	lw	a5,-204(s0)
80004704:	fa042603          	lw	a2,-96(s0)
80004708:	fa442683          	lw	a3,-92(s0)
8000470c:	00090513          	mv	a0,s2
80004710:	00098593          	mv	a1,s3
80004714:	65c070ef          	jal	ra,8000bd70 <fma>
80004718:	f2842703          	lw	a4,-216(s0)
8000471c:	f2c42783          	lw	a5,-212(s0)
80004720:	f9842603          	lw	a2,-104(s0)
80004724:	f9c42683          	lw	a3,-100(s0)
80004728:	f0a42823          	sw	a0,-240(s0)
8000472c:	f0b42a23          	sw	a1,-236(s0)
80004730:	00090513          	mv	a0,s2
80004734:	00098593          	mv	a1,s3
80004738:	638070ef          	jal	ra,8000bd70 <fma>
8000473c:	f2042703          	lw	a4,-224(s0)
80004740:	f2442783          	lw	a5,-220(s0)
80004744:	000c0613          	mv	a2,s8
80004748:	000c8693          	mv	a3,s9
8000474c:	f0a42023          	sw	a0,-256(s0)
80004750:	f0b42223          	sw	a1,-252(s0)
80004754:	00090513          	mv	a0,s2
80004758:	00098593          	mv	a1,s3
8000475c:	614070ef          	jal	ra,8000bd70 <fma>
80004760:	ea842803          	lw	a6,-344(s0)
80004764:	f1842703          	lw	a4,-232(s0)
80004768:	f1c42783          	lw	a5,-228(s0)
8000476c:	000b0613          	mv	a2,s6
80004770:	000b8693          	mv	a3,s7
80004774:	f2a42023          	sw	a0,-224(s0)
80004778:	f2b42223          	sw	a1,-220(s0)
8000477c:	00090513          	mv	a0,s2
80004780:	00098593          	mv	a1,s3
80004784:	010d04b3          	add	s1,s10,a6
80004788:	5e8070ef          	jal	ra,8000bd70 <fma>
8000478c:	ef042e03          	lw	t3,-272(s0)
80004790:	ef442e83          	lw	t4,-268(s0)
80004794:	000a0613          	mv	a2,s4
80004798:	000e0713          	mv	a4,t3
8000479c:	000e8793          	mv	a5,t4
800047a0:	000a8693          	mv	a3,s5
800047a4:	f0a42c23          	sw	a0,-232(s0)
800047a8:	f0b42e23          	sw	a1,-228(s0)
800047ac:	00090513          	mv	a0,s2
800047b0:	00098593          	mv	a1,s3
800047b4:	5bc070ef          	jal	ra,8000bd70 <fma>
800047b8:	ef842803          	lw	a6,-264(s0)
800047bc:	028da903          	lw	s2,40(s11)
800047c0:	02cda983          	lw	s3,44(s11)
800047c4:	efc42883          	lw	a7,-260(s0)
800047c8:	0004a603          	lw	a2,0(s1)
800047cc:	0044a683          	lw	a3,4(s1)
800047d0:	00080713          	mv	a4,a6
800047d4:	00088793          	mv	a5,a7
800047d8:	eea42823          	sw	a0,-272(s0)
800047dc:	eeb42a23          	sw	a1,-268(s0)
800047e0:	00090513          	mv	a0,s2
800047e4:	00098593          	mv	a1,s3
800047e8:	f2c42823          	sw	a2,-208(s0)
800047ec:	f2d42a23          	sw	a3,-204(s0)
800047f0:	580070ef          	jal	ra,8000bd70 <fma>
800047f4:	0084a803          	lw	a6,8(s1)
800047f8:	00c4a883          	lw	a7,12(s1)
800047fc:	ee042303          	lw	t1,-288(s0)
80004800:	ee442383          	lw	t2,-284(s0)
80004804:	f3042423          	sw	a6,-216(s0)
80004808:	00080613          	mv	a2,a6
8000480c:	00088693          	mv	a3,a7
80004810:	00030713          	mv	a4,t1
80004814:	00038793          	mv	a5,t2
80004818:	eea42c23          	sw	a0,-264(s0)
8000481c:	eeb42e23          	sw	a1,-260(s0)
80004820:	00090513          	mv	a0,s2
80004824:	00098593          	mv	a1,s3
80004828:	f3142623          	sw	a7,-212(s0)
8000482c:	544070ef          	jal	ra,8000bd70 <fma>
80004830:	ee842f03          	lw	t5,-280(s0)
80004834:	eec42f83          	lw	t6,-276(s0)
80004838:	0104ac03          	lw	s8,16(s1)
8000483c:	0144ac83          	lw	s9,20(s1)
80004840:	000f0713          	mv	a4,t5
80004844:	000f8793          	mv	a5,t6
80004848:	faa42023          	sw	a0,-96(s0)
8000484c:	fab42223          	sw	a1,-92(s0)
80004850:	00090513          	mv	a0,s2
80004854:	00098593          	mv	a1,s3
80004858:	000c0613          	mv	a2,s8
8000485c:	000c8693          	mv	a3,s9
80004860:	510070ef          	jal	ra,8000bd70 <fma>
80004864:	0184ab03          	lw	s6,24(s1)
80004868:	01c4ab83          	lw	s7,28(s1)
8000486c:	f9042703          	lw	a4,-112(s0)
80004870:	f9442783          	lw	a5,-108(s0)
80004874:	f8a42c23          	sw	a0,-104(s0)
80004878:	f8b42e23          	sw	a1,-100(s0)
8000487c:	00090513          	mv	a0,s2
80004880:	00098593          	mv	a1,s3
80004884:	000b0613          	mv	a2,s6
80004888:	000b8693          	mv	a3,s7
8000488c:	4e4070ef          	jal	ra,8000bd70 <fma>
80004890:	0204aa03          	lw	s4,32(s1)
80004894:	0244aa83          	lw	s5,36(s1)
80004898:	f8842703          	lw	a4,-120(s0)
8000489c:	f8c42783          	lw	a5,-116(s0)
800048a0:	f8a42823          	sw	a0,-112(s0)
800048a4:	f8b42a23          	sw	a1,-108(s0)
800048a8:	00090513          	mv	a0,s2
800048ac:	00098593          	mv	a1,s3
800048b0:	000a0613          	mv	a2,s4
800048b4:	000a8693          	mv	a3,s5
800048b8:	4b8070ef          	jal	ra,8000bd70 <fma>
800048bc:	fa842483          	lw	s1,-88(s0)
800048c0:	f8042703          	lw	a4,-128(s0)
800048c4:	f8442783          	lw	a5,-124(s0)
800048c8:	0284a903          	lw	s2,40(s1)
800048cc:	02c4a983          	lw	s3,44(s1)
800048d0:	f3042603          	lw	a2,-208(s0)
800048d4:	f3442683          	lw	a3,-204(s0)
800048d8:	f8a42423          	sw	a0,-120(s0)
800048dc:	f8b42623          	sw	a1,-116(s0)
800048e0:	00090513          	mv	a0,s2
800048e4:	00098593          	mv	a1,s3
800048e8:	488070ef          	jal	ra,8000bd70 <fma>
800048ec:	f7842703          	lw	a4,-136(s0)
800048f0:	f7c42783          	lw	a5,-132(s0)
800048f4:	f2842603          	lw	a2,-216(s0)
800048f8:	f2c42683          	lw	a3,-212(s0)
800048fc:	f8a42023          	sw	a0,-128(s0)
80004900:	f8b42223          	sw	a1,-124(s0)
80004904:	00090513          	mv	a0,s2
80004908:	00098593          	mv	a1,s3
8000490c:	464070ef          	jal	ra,8000bd70 <fma>
80004910:	f7042703          	lw	a4,-144(s0)
80004914:	f6a42c23          	sw	a0,-136(s0)
80004918:	f6b42e23          	sw	a1,-132(s0)
8000491c:	f7442783          	lw	a5,-140(s0)
80004920:	000c0613          	mv	a2,s8
80004924:	000c8693          	mv	a3,s9
80004928:	00090513          	mv	a0,s2
8000492c:	00098593          	mv	a1,s3
80004930:	440070ef          	jal	ra,8000bd70 <fma>
80004934:	f6842703          	lw	a4,-152(s0)
80004938:	f6c42783          	lw	a5,-148(s0)
8000493c:	f6a42823          	sw	a0,-144(s0)
80004940:	f6b42a23          	sw	a1,-140(s0)
80004944:	000b0613          	mv	a2,s6
80004948:	000b8693          	mv	a3,s7
8000494c:	00090513          	mv	a0,s2
80004950:	00098593          	mv	a1,s3
80004954:	41c070ef          	jal	ra,8000bd70 <fma>
80004958:	f6042703          	lw	a4,-160(s0)
8000495c:	f6442783          	lw	a5,-156(s0)
80004960:	f6a42423          	sw	a0,-152(s0)
80004964:	f6b42623          	sw	a1,-148(s0)
80004968:	000a0613          	mv	a2,s4
8000496c:	000a8693          	mv	a3,s5
80004970:	00090513          	mv	a0,s2
80004974:	00098593          	mv	a1,s3
80004978:	3f8070ef          	jal	ra,8000bd70 <fma>
8000497c:	fb042683          	lw	a3,-80(s0)
80004980:	f5842703          	lw	a4,-168(s0)
80004984:	f5c42783          	lw	a5,-164(s0)
80004988:	0286a903          	lw	s2,40(a3)
8000498c:	02c6a983          	lw	s3,44(a3)
80004990:	f3042603          	lw	a2,-208(s0)
80004994:	f3442683          	lw	a3,-204(s0)
80004998:	f6a42023          	sw	a0,-160(s0)
8000499c:	f6b42223          	sw	a1,-156(s0)
800049a0:	00090513          	mv	a0,s2
800049a4:	00098593          	mv	a1,s3
800049a8:	3c8070ef          	jal	ra,8000bd70 <fma>
800049ac:	f5042703          	lw	a4,-176(s0)
800049b0:	f5442783          	lw	a5,-172(s0)
800049b4:	f2842603          	lw	a2,-216(s0)
800049b8:	f2c42683          	lw	a3,-212(s0)
800049bc:	f4a42c23          	sw	a0,-168(s0)
800049c0:	f4b42e23          	sw	a1,-164(s0)
800049c4:	00090513          	mv	a0,s2
800049c8:	00098593          	mv	a1,s3
800049cc:	3a4070ef          	jal	ra,8000bd70 <fma>
800049d0:	f4842703          	lw	a4,-184(s0)
800049d4:	f4c42783          	lw	a5,-180(s0)
800049d8:	f4a42823          	sw	a0,-176(s0)
800049dc:	f4b42a23          	sw	a1,-172(s0)
800049e0:	000c0613          	mv	a2,s8
800049e4:	000c8693          	mv	a3,s9
800049e8:	00090513          	mv	a0,s2
800049ec:	00098593          	mv	a1,s3
800049f0:	380070ef          	jal	ra,8000bd70 <fma>
800049f4:	f4042703          	lw	a4,-192(s0)
800049f8:	f4442783          	lw	a5,-188(s0)
800049fc:	f4a42423          	sw	a0,-184(s0)
80004a00:	f4b42623          	sw	a1,-180(s0)
80004a04:	000b0613          	mv	a2,s6
80004a08:	000b8693          	mv	a3,s7
80004a0c:	00090513          	mv	a0,s2
80004a10:	00098593          	mv	a1,s3
80004a14:	35c070ef          	jal	ra,8000bd70 <fma>
80004a18:	f3842703          	lw	a4,-200(s0)
80004a1c:	f3c42783          	lw	a5,-196(s0)
80004a20:	f4a42023          	sw	a0,-192(s0)
80004a24:	f4b42223          	sw	a1,-188(s0)
80004a28:	000a0613          	mv	a2,s4
80004a2c:	000a8693          	mv	a3,s5
80004a30:	00090513          	mv	a0,s2
80004a34:	00098593          	mv	a1,s3
80004a38:	338070ef          	jal	ra,8000bd70 <fma>
80004a3c:	f2a42c23          	sw	a0,-200(s0)
80004a40:	f2b42e23          	sw	a1,-196(s0)
80004a44:	fb842783          	lw	a5,-72(s0)
80004a48:	f3042603          	lw	a2,-208(s0)
80004a4c:	f3442683          	lw	a3,-204(s0)
80004a50:	0287a903          	lw	s2,40(a5)
80004a54:	02c7a983          	lw	s3,44(a5)
80004a58:	f1042703          	lw	a4,-240(s0)
80004a5c:	f1442783          	lw	a5,-236(s0)
80004a60:	00090513          	mv	a0,s2
80004a64:	00098593          	mv	a1,s3
80004a68:	308070ef          	jal	ra,8000bd70 <fma>
80004a6c:	f2842603          	lw	a2,-216(s0)
80004a70:	f2c42683          	lw	a3,-212(s0)
80004a74:	f0042703          	lw	a4,-256(s0)
80004a78:	f0442783          	lw	a5,-252(s0)
80004a7c:	f2a42823          	sw	a0,-208(s0)
80004a80:	f2b42a23          	sw	a1,-204(s0)
80004a84:	00090513          	mv	a0,s2
80004a88:	00098593          	mv	a1,s3
80004a8c:	2e4070ef          	jal	ra,8000bd70 <fma>
80004a90:	f2042703          	lw	a4,-224(s0)
80004a94:	f2442783          	lw	a5,-220(s0)
80004a98:	f2a42423          	sw	a0,-216(s0)
80004a9c:	f2b42623          	sw	a1,-212(s0)
80004aa0:	000c0613          	mv	a2,s8
80004aa4:	000c8693          	mv	a3,s9
80004aa8:	00090513          	mv	a0,s2
80004aac:	00098593          	mv	a1,s3
80004ab0:	2c0070ef          	jal	ra,8000bd70 <fma>
80004ab4:	f1842703          	lw	a4,-232(s0)
80004ab8:	f1c42783          	lw	a5,-228(s0)
80004abc:	f2a42023          	sw	a0,-224(s0)
80004ac0:	f2b42223          	sw	a1,-220(s0)
80004ac4:	000b0613          	mv	a2,s6
80004ac8:	000b8693          	mv	a3,s7
80004acc:	00090513          	mv	a0,s2
80004ad0:	00098593          	mv	a1,s3
80004ad4:	29c070ef          	jal	ra,8000bd70 <fma>
80004ad8:	ef042e03          	lw	t3,-272(s0)
80004adc:	ef442e83          	lw	t4,-268(s0)
80004ae0:	f0a42c23          	sw	a0,-232(s0)
80004ae4:	000e0713          	mv	a4,t3
80004ae8:	000e8793          	mv	a5,t4
80004aec:	f0b42e23          	sw	a1,-228(s0)
80004af0:	000a8693          	mv	a3,s5
80004af4:	000a0613          	mv	a2,s4
80004af8:	00090513          	mv	a0,s2
80004afc:	00098593          	mv	a1,s3
80004b00:	270070ef          	jal	ra,8000bd70 <fma>
80004b04:	fb842783          	lw	a5,-72(s0)
80004b08:	ec842703          	lw	a4,-312(s0)
80004b0c:	fb042683          	lw	a3,-80(s0)
80004b10:	03078793          	addi	a5,a5,48
80004b14:	00ed0d33          	add	s10,s10,a4
80004b18:	faf42c23          	sw	a5,-72(s0)
80004b1c:	03048713          	addi	a4,s1,48
80004b20:	ed842783          	lw	a5,-296(s0)
80004b24:	fae42423          	sw	a4,-88(s0)
80004b28:	03068713          	addi	a4,a3,48
80004b2c:	030d8d93          	addi	s11,s11,48
80004b30:	fae42823          	sw	a4,-80(s0)
80004b34:	00050e13          	mv	t3,a0
80004b38:	00058e93          	mv	t4,a1
80004b3c:	ef842803          	lw	a6,-264(s0)
80004b40:	efc42883          	lw	a7,-260(s0)
80004b44:	00fdf463          	bleu	a5,s11,80004b4c <mm_cb+0x37a0>
80004b48:	bd5fe06f          	j	8000371c <mm_cb+0x2370>
80004b4c:	e6042783          	lw	a5,-416(s0)
80004b50:	ea042703          	lw	a4,-352(s0)
80004b54:	ed842303          	lw	t1,-296(s0)
80004b58:	00e784b3          	add	s1,a5,a4
80004b5c:	ed042783          	lw	a5,-304(s0)
80004b60:	3af37663          	bleu	a5,t1,80004f0c <mm_cb+0x3b60>
80004b64:	e5c42783          	lw	a5,-420(s0)
80004b68:	e7842703          	lw	a4,-392(s0)
80004b6c:	00030d13          	mv	s10,t1
80004b70:	00e78733          	add	a4,a5,a4
80004b74:	f0e42823          	sw	a4,-240(s0)
80004b78:	e7c42703          	lw	a4,-388(s0)
80004b7c:	00e78db3          	add	s11,a5,a4
80004b80:	e9042703          	lw	a4,-368(s0)
80004b84:	00e787b3          	add	a5,a5,a4
80004b88:	faf42423          	sw	a5,-88(s0)
80004b8c:	000d2903          	lw	s2,0(s10)
80004b90:	004d2983          	lw	s3,4(s10)
80004b94:	0004a703          	lw	a4,0(s1)
80004b98:	0044a783          	lw	a5,4(s1)
80004b9c:	00090513          	mv	a0,s2
80004ba0:	00070613          	mv	a2,a4
80004ba4:	00078693          	mv	a3,a5
80004ba8:	00080713          	mv	a4,a6
80004bac:	00088793          	mv	a5,a7
80004bb0:	00098593          	mv	a1,s3
80004bb4:	efc42c23          	sw	t3,-264(s0)
80004bb8:	efd42e23          	sw	t4,-260(s0)
80004bbc:	fac42c23          	sw	a2,-72(s0)
80004bc0:	fad42e23          	sw	a3,-68(s0)
80004bc4:	1ac070ef          	jal	ra,8000bd70 <fma>
80004bc8:	0084a783          	lw	a5,8(s1)
80004bcc:	00c4a803          	lw	a6,12(s1)
80004bd0:	fa042703          	lw	a4,-96(s0)
80004bd4:	f0a42023          	sw	a0,-256(s0)
80004bd8:	00080893          	mv	a7,a6
80004bdc:	00078813          	mv	a6,a5
80004be0:	fa442783          	lw	a5,-92(s0)
80004be4:	00080613          	mv	a2,a6
80004be8:	00088693          	mv	a3,a7
80004bec:	f0b42223          	sw	a1,-252(s0)
80004bf0:	00090513          	mv	a0,s2
80004bf4:	00098593          	mv	a1,s3
80004bf8:	fb042823          	sw	a6,-80(s0)
80004bfc:	fb142a23          	sw	a7,-76(s0)
80004c00:	170070ef          	jal	ra,8000bd70 <fma>
80004c04:	0104ac03          	lw	s8,16(s1)
80004c08:	0144ac83          	lw	s9,20(s1)
80004c0c:	f9842703          	lw	a4,-104(s0)
80004c10:	f9c42783          	lw	a5,-100(s0)
80004c14:	faa42023          	sw	a0,-96(s0)
80004c18:	fab42223          	sw	a1,-92(s0)
80004c1c:	00090513          	mv	a0,s2
80004c20:	00098593          	mv	a1,s3
80004c24:	000c0613          	mv	a2,s8
80004c28:	000c8693          	mv	a3,s9
80004c2c:	144070ef          	jal	ra,8000bd70 <fma>
80004c30:	0184ab03          	lw	s6,24(s1)
80004c34:	01c4ab83          	lw	s7,28(s1)
80004c38:	f9042703          	lw	a4,-112(s0)
80004c3c:	f9442783          	lw	a5,-108(s0)
80004c40:	f8a42c23          	sw	a0,-104(s0)
80004c44:	f8b42e23          	sw	a1,-100(s0)
80004c48:	00090513          	mv	a0,s2
80004c4c:	00098593          	mv	a1,s3
80004c50:	000b0613          	mv	a2,s6
80004c54:	000b8693          	mv	a3,s7
80004c58:	118070ef          	jal	ra,8000bd70 <fma>
80004c5c:	0204aa03          	lw	s4,32(s1)
80004c60:	0244aa83          	lw	s5,36(s1)
80004c64:	f8842703          	lw	a4,-120(s0)
80004c68:	f8c42783          	lw	a5,-116(s0)
80004c6c:	f8a42823          	sw	a0,-112(s0)
80004c70:	f8b42a23          	sw	a1,-108(s0)
80004c74:	00090513          	mv	a0,s2
80004c78:	00098593          	mv	a1,s3
80004c7c:	000a0613          	mv	a2,s4
80004c80:	000a8693          	mv	a3,s5
80004c84:	0ec070ef          	jal	ra,8000bd70 <fma>
80004c88:	f1042683          	lw	a3,-240(s0)
80004c8c:	f8042703          	lw	a4,-128(s0)
80004c90:	f8442783          	lw	a5,-124(s0)
80004c94:	0006a903          	lw	s2,0(a3)
80004c98:	0046a983          	lw	s3,4(a3)
80004c9c:	f8a42423          	sw	a0,-120(s0)
80004ca0:	f8b42623          	sw	a1,-116(s0)
80004ca4:	fb842603          	lw	a2,-72(s0)
80004ca8:	fbc42683          	lw	a3,-68(s0)
80004cac:	00090513          	mv	a0,s2
80004cb0:	00098593          	mv	a1,s3
80004cb4:	0bc070ef          	jal	ra,8000bd70 <fma>
80004cb8:	f7842703          	lw	a4,-136(s0)
80004cbc:	f7c42783          	lw	a5,-132(s0)
80004cc0:	fb042603          	lw	a2,-80(s0)
80004cc4:	fb442683          	lw	a3,-76(s0)
80004cc8:	f8a42023          	sw	a0,-128(s0)
80004ccc:	f8b42223          	sw	a1,-124(s0)
80004cd0:	00090513          	mv	a0,s2
80004cd4:	00098593          	mv	a1,s3
80004cd8:	098070ef          	jal	ra,8000bd70 <fma>
80004cdc:	f7042703          	lw	a4,-144(s0)
80004ce0:	f7442783          	lw	a5,-140(s0)
80004ce4:	f6a42c23          	sw	a0,-136(s0)
80004ce8:	f6b42e23          	sw	a1,-132(s0)
80004cec:	000c0613          	mv	a2,s8
80004cf0:	000c8693          	mv	a3,s9
80004cf4:	00090513          	mv	a0,s2
80004cf8:	00098593          	mv	a1,s3
80004cfc:	074070ef          	jal	ra,8000bd70 <fma>
80004d00:	f6842703          	lw	a4,-152(s0)
80004d04:	f6c42783          	lw	a5,-148(s0)
80004d08:	f6a42823          	sw	a0,-144(s0)
80004d0c:	f6b42a23          	sw	a1,-140(s0)
80004d10:	000b0613          	mv	a2,s6
80004d14:	000b8693          	mv	a3,s7
80004d18:	00090513          	mv	a0,s2
80004d1c:	00098593          	mv	a1,s3
80004d20:	050070ef          	jal	ra,8000bd70 <fma>
80004d24:	f6042703          	lw	a4,-160(s0)
80004d28:	f6442783          	lw	a5,-156(s0)
80004d2c:	f6a42423          	sw	a0,-152(s0)
80004d30:	f6b42623          	sw	a1,-148(s0)
80004d34:	000a0613          	mv	a2,s4
80004d38:	000a8693          	mv	a3,s5
80004d3c:	00090513          	mv	a0,s2
80004d40:	00098593          	mv	a1,s3
80004d44:	02c070ef          	jal	ra,8000bd70 <fma>
80004d48:	000da903          	lw	s2,0(s11)
80004d4c:	004da983          	lw	s3,4(s11)
80004d50:	f5842703          	lw	a4,-168(s0)
80004d54:	f5c42783          	lw	a5,-164(s0)
80004d58:	fb842603          	lw	a2,-72(s0)
80004d5c:	fbc42683          	lw	a3,-68(s0)
80004d60:	f6a42023          	sw	a0,-160(s0)
80004d64:	f6b42223          	sw	a1,-156(s0)
80004d68:	00090513          	mv	a0,s2
80004d6c:	00098593          	mv	a1,s3
80004d70:	000070ef          	jal	ra,8000bd70 <fma>
80004d74:	f5042703          	lw	a4,-176(s0)
80004d78:	f5442783          	lw	a5,-172(s0)
80004d7c:	fb042603          	lw	a2,-80(s0)
80004d80:	fb442683          	lw	a3,-76(s0)
80004d84:	f4a42c23          	sw	a0,-168(s0)
80004d88:	f4b42e23          	sw	a1,-164(s0)
80004d8c:	00090513          	mv	a0,s2
80004d90:	00098593          	mv	a1,s3
80004d94:	7dd060ef          	jal	ra,8000bd70 <fma>
80004d98:	f4842703          	lw	a4,-184(s0)
80004d9c:	f4a42823          	sw	a0,-176(s0)
80004da0:	f4b42a23          	sw	a1,-172(s0)
80004da4:	f4c42783          	lw	a5,-180(s0)
80004da8:	000c0613          	mv	a2,s8
80004dac:	000c8693          	mv	a3,s9
80004db0:	00090513          	mv	a0,s2
80004db4:	00098593          	mv	a1,s3
80004db8:	7b9060ef          	jal	ra,8000bd70 <fma>
80004dbc:	f4042703          	lw	a4,-192(s0)
80004dc0:	f4442783          	lw	a5,-188(s0)
80004dc4:	f4a42423          	sw	a0,-184(s0)
80004dc8:	f4b42623          	sw	a1,-180(s0)
80004dcc:	000b0613          	mv	a2,s6
80004dd0:	000b8693          	mv	a3,s7
80004dd4:	00090513          	mv	a0,s2
80004dd8:	00098593          	mv	a1,s3
80004ddc:	795060ef          	jal	ra,8000bd70 <fma>
80004de0:	f3842703          	lw	a4,-200(s0)
80004de4:	f3c42783          	lw	a5,-196(s0)
80004de8:	f4a42023          	sw	a0,-192(s0)
80004dec:	f4b42223          	sw	a1,-188(s0)
80004df0:	000a0613          	mv	a2,s4
80004df4:	000a8693          	mv	a3,s5
80004df8:	00090513          	mv	a0,s2
80004dfc:	00098593          	mv	a1,s3
80004e00:	771060ef          	jal	ra,8000bd70 <fma>
80004e04:	fa842783          	lw	a5,-88(s0)
80004e08:	f3042703          	lw	a4,-208(s0)
80004e0c:	fb842603          	lw	a2,-72(s0)
80004e10:	0007a903          	lw	s2,0(a5)
80004e14:	0047a983          	lw	s3,4(a5)
80004e18:	fbc42683          	lw	a3,-68(s0)
80004e1c:	f3442783          	lw	a5,-204(s0)
80004e20:	f2a42c23          	sw	a0,-200(s0)
80004e24:	f2b42e23          	sw	a1,-196(s0)
80004e28:	00090513          	mv	a0,s2
80004e2c:	00098593          	mv	a1,s3
80004e30:	741060ef          	jal	ra,8000bd70 <fma>
80004e34:	f2842703          	lw	a4,-216(s0)
80004e38:	f2c42783          	lw	a5,-212(s0)
80004e3c:	fb042603          	lw	a2,-80(s0)
80004e40:	fb442683          	lw	a3,-76(s0)
80004e44:	f2a42823          	sw	a0,-208(s0)
80004e48:	f2b42a23          	sw	a1,-204(s0)
80004e4c:	00090513          	mv	a0,s2
80004e50:	00098593          	mv	a1,s3
80004e54:	71d060ef          	jal	ra,8000bd70 <fma>
80004e58:	f2042703          	lw	a4,-224(s0)
80004e5c:	f2442783          	lw	a5,-220(s0)
80004e60:	f2a42423          	sw	a0,-216(s0)
80004e64:	f2b42623          	sw	a1,-212(s0)
80004e68:	000c0613          	mv	a2,s8
80004e6c:	000c8693          	mv	a3,s9
80004e70:	00090513          	mv	a0,s2
80004e74:	00098593          	mv	a1,s3
80004e78:	6f9060ef          	jal	ra,8000bd70 <fma>
80004e7c:	f1842703          	lw	a4,-232(s0)
80004e80:	f1c42783          	lw	a5,-228(s0)
80004e84:	f2a42023          	sw	a0,-224(s0)
80004e88:	f2b42223          	sw	a1,-220(s0)
80004e8c:	000b0613          	mv	a2,s6
80004e90:	000b8693          	mv	a3,s7
80004e94:	00090513          	mv	a0,s2
80004e98:	00098593          	mv	a1,s3
80004e9c:	6d5060ef          	jal	ra,8000bd70 <fma>
80004ea0:	ef842e03          	lw	t3,-264(s0)
80004ea4:	efc42e83          	lw	t4,-260(s0)
80004ea8:	f0a42c23          	sw	a0,-232(s0)
80004eac:	000e0713          	mv	a4,t3
80004eb0:	000e8793          	mv	a5,t4
80004eb4:	f0b42e23          	sw	a1,-228(s0)
80004eb8:	000a8693          	mv	a3,s5
80004ebc:	000a0613          	mv	a2,s4
80004ec0:	00090513          	mv	a0,s2
80004ec4:	00098593          	mv	a1,s3
80004ec8:	6a9060ef          	jal	ra,8000bd70 <fma>
80004ecc:	f0842703          	lw	a4,-248(s0)
80004ed0:	f1042683          	lw	a3,-240(s0)
80004ed4:	008d0d13          	addi	s10,s10,8
80004ed8:	00e484b3          	add	s1,s1,a4
80004edc:	00868713          	addi	a4,a3,8
80004ee0:	f0e42823          	sw	a4,-240(s0)
80004ee4:	fa842783          	lw	a5,-88(s0)
80004ee8:	00050e13          	mv	t3,a0
80004eec:	00058e93          	mv	t4,a1
80004ef0:	00878793          	addi	a5,a5,8
80004ef4:	faf42423          	sw	a5,-88(s0)
80004ef8:	ed042783          	lw	a5,-304(s0)
80004efc:	008d8d93          	addi	s11,s11,8
80004f00:	f0042803          	lw	a6,-256(s0)
80004f04:	f0442883          	lw	a7,-252(s0)
80004f08:	c8fd62e3          	bltu	s10,a5,80004b8c <mm_cb+0x37e0>
80004f0c:	e8042783          	lw	a5,-384(s0)
80004f10:	fa042683          	lw	a3,-96(s0)
80004f14:	fa442703          	lw	a4,-92(s0)
80004f18:	f8042603          	lw	a2,-128(s0)
80004f1c:	00d7a423          	sw	a3,8(a5)
80004f20:	00e7a623          	sw	a4,12(a5)
80004f24:	f9842683          	lw	a3,-104(s0)
80004f28:	f9c42703          	lw	a4,-100(s0)
80004f2c:	0107a023          	sw	a6,0(a5)
80004f30:	00d7a823          	sw	a3,16(a5)
80004f34:	00e7aa23          	sw	a4,20(a5)
80004f38:	f9042683          	lw	a3,-112(s0)
80004f3c:	f9442703          	lw	a4,-108(s0)
80004f40:	0117a223          	sw	a7,4(a5)
80004f44:	00d7ac23          	sw	a3,24(a5)
80004f48:	00e7ae23          	sw	a4,28(a5)
80004f4c:	f8842683          	lw	a3,-120(s0)
80004f50:	f8c42703          	lw	a4,-116(s0)
80004f54:	02878793          	addi	a5,a5,40
80004f58:	fed7ac23          	sw	a3,-8(a5)
80004f5c:	fee7ae23          	sw	a4,-4(a5)
80004f60:	f8442683          	lw	a3,-124(s0)
80004f64:	e8842703          	lw	a4,-376(s0)
80004f68:	00c72023          	sw	a2,0(a4)
80004f6c:	00d72223          	sw	a3,4(a4)
80004f70:	f7842603          	lw	a2,-136(s0)
80004f74:	f7c42683          	lw	a3,-132(s0)
80004f78:	00c72423          	sw	a2,8(a4)
80004f7c:	00d72623          	sw	a3,12(a4)
80004f80:	f7042603          	lw	a2,-144(s0)
80004f84:	f7442683          	lw	a3,-140(s0)
80004f88:	00c72823          	sw	a2,16(a4)
80004f8c:	00d72a23          	sw	a3,20(a4)
80004f90:	f6842603          	lw	a2,-152(s0)
80004f94:	f6c42683          	lw	a3,-148(s0)
80004f98:	f5842583          	lw	a1,-168(s0)
80004f9c:	00c72c23          	sw	a2,24(a4)
80004fa0:	00d72e23          	sw	a3,28(a4)
80004fa4:	f6042603          	lw	a2,-160(s0)
80004fa8:	f6442683          	lw	a3,-156(s0)
80004fac:	f3042503          	lw	a0,-208(s0)
80004fb0:	02c72023          	sw	a2,32(a4)
80004fb4:	02d72223          	sw	a3,36(a4)
80004fb8:	f5c42603          	lw	a2,-164(s0)
80004fbc:	e9442683          	lw	a3,-364(s0)
80004fc0:	00b6a023          	sw	a1,0(a3)
80004fc4:	00c6a223          	sw	a2,4(a3)
80004fc8:	f5042583          	lw	a1,-176(s0)
80004fcc:	f5442603          	lw	a2,-172(s0)
80004fd0:	00b6a423          	sw	a1,8(a3)
80004fd4:	00c6a623          	sw	a2,12(a3)
80004fd8:	f4842583          	lw	a1,-184(s0)
80004fdc:	f4c42603          	lw	a2,-180(s0)
80004fe0:	00b6a823          	sw	a1,16(a3)
80004fe4:	00c6aa23          	sw	a2,20(a3)
80004fe8:	f4042583          	lw	a1,-192(s0)
80004fec:	f4442603          	lw	a2,-188(s0)
80004ff0:	00b6ac23          	sw	a1,24(a3)
80004ff4:	00c6ae23          	sw	a2,28(a3)
80004ff8:	f3842583          	lw	a1,-200(s0)
80004ffc:	f3c42603          	lw	a2,-196(s0)
80005000:	02b6a023          	sw	a1,32(a3)
80005004:	02c6a223          	sw	a2,36(a3)
80005008:	f3442583          	lw	a1,-204(s0)
8000500c:	e9842603          	lw	a2,-360(s0)
80005010:	00a62023          	sw	a0,0(a2)
80005014:	00b62223          	sw	a1,4(a2)
80005018:	f2c42583          	lw	a1,-212(s0)
8000501c:	f2842503          	lw	a0,-216(s0)
80005020:	e8f42023          	sw	a5,-384(s0)
80005024:	00b62623          	sw	a1,12(a2)
80005028:	f2442583          	lw	a1,-220(s0)
8000502c:	02870793          	addi	a5,a4,40
80005030:	e8f42423          	sw	a5,-376(s0)
80005034:	02868793          	addi	a5,a3,40
80005038:	00b62a23          	sw	a1,20(a2)
8000503c:	e8f42a23          	sw	a5,-364(s0)
80005040:	f1c42583          	lw	a1,-228(s0)
80005044:	02860793          	addi	a5,a2,40
80005048:	00a62423          	sw	a0,8(a2)
8000504c:	e8f42c23          	sw	a5,-360(s0)
80005050:	f2042503          	lw	a0,-224(s0)
80005054:	ea042783          	lw	a5,-352(s0)
80005058:	00b62e23          	sw	a1,28(a2)
8000505c:	e7442583          	lw	a1,-396(s0)
80005060:	02878793          	addi	a5,a5,40
80005064:	00a62823          	sw	a0,16(a2)
80005068:	f1842503          	lw	a0,-232(s0)
8000506c:	eaf42023          	sw	a5,-352(s0)
80005070:	e6842783          	lw	a5,-408(s0)
80005074:	00558593          	addi	a1,a1,5 # ffffe005 <__global_pointer$+0x7ffef425>
80005078:	00a62c23          	sw	a0,24(a2)
8000507c:	03c62023          	sw	t3,32(a2)
80005080:	03d62223          	sw	t4,36(a2)
80005084:	e6b42a23          	sw	a1,-396(s0)
80005088:	00f5f463          	bleu	a5,a1,80005090 <mm_cb+0x3ce4>
8000508c:	d20fe06f          	j	800035ac <mm_cb+0x2200>
80005090:	00042783          	lw	a5,0(s0)
80005094:	e5842983          	lw	s3,-424(s0)
80005098:	e7042903          	lw	s2,-400(s0)
8000509c:	e5042303          	lw	t1,-432(s0)
800050a0:	00f12023          	sw	a5,0(sp)
800050a4:	e2442703          	lw	a4,-476(s0)
800050a8:	e2842783          	lw	a5,-472(s0)
800050ac:	e2c42803          	lw	a6,-468(s0)
800050b0:	e5442603          	lw	a2,-428(s0)
800050b4:	e3842583          	lw	a1,-456(s0)
800050b8:	00430493          	addi	s1,t1,4
800050bc:	00098893          	mv	a7,s3
800050c0:	00090693          	mv	a3,s2
800050c4:	00400513          	li	a0,4
800050c8:	e4942823          	sw	s1,-432(s0)
800050cc:	f7dfb0ef          	jal	ra,80001048 <mm_naive>
800050d0:	e1842783          	lw	a5,-488(s0)
800050d4:	00f90733          	add	a4,s2,a5
800050d8:	e6e42823          	sw	a4,-400(s0)
800050dc:	e1c42703          	lw	a4,-484(s0)
800050e0:	00e98733          	add	a4,s3,a4
800050e4:	e4e42c23          	sw	a4,-424(s0)
800050e8:	e7842703          	lw	a4,-392(s0)
800050ec:	00f70733          	add	a4,a4,a5
800050f0:	e6e42c23          	sw	a4,-392(s0)
800050f4:	e7c42703          	lw	a4,-388(s0)
800050f8:	00f70733          	add	a4,a4,a5
800050fc:	e6e42e23          	sw	a4,-388(s0)
80005100:	e9042703          	lw	a4,-368(s0)
80005104:	00f707b3          	add	a5,a4,a5
80005108:	e8f42823          	sw	a5,-368(s0)
8000510c:	e4842783          	lw	a5,-440(s0)
80005110:	00f4f463          	bleu	a5,s1,80005118 <mm_cb+0x3d6c>
80005114:	c30fe06f          	j	80003544 <mm_cb+0x2198>
80005118:	dd042703          	lw	a4,-560(s0)
8000511c:	e2042483          	lw	s1,-480(s0)
80005120:	e4c42983          	lw	s3,-436(s0)
80005124:	e3c42303          	lw	t1,-452(s0)
80005128:	009706b3          	add	a3,a4,s1
8000512c:	00042703          	lw	a4,0(s0)
80005130:	dc842883          	lw	a7,-568(s0)
80005134:	e2c42803          	lw	a6,-468(s0)
80005138:	00e12023          	sw	a4,0(sp)
8000513c:	e5442603          	lw	a2,-428(s0)
80005140:	e2442703          	lw	a4,-476(s0)
80005144:	e4442583          	lw	a1,-444(s0)
80005148:	dd442503          	lw	a0,-556(s0)
8000514c:	00098793          	mv	a5,s3
80005150:	01830913          	addi	s2,t1,24
80005154:	e3242e23          	sw	s2,-452(s0)
80005158:	ef1fb0ef          	jal	ra,80001048 <mm_naive>
8000515c:	db842783          	lw	a5,-584(s0)
80005160:	00f987b3          	add	a5,s3,a5
80005164:	e4f42623          	sw	a5,-436(s0)
80005168:	0c048793          	addi	a5,s1,192
8000516c:	e2f42023          	sw	a5,-480(s0)
80005170:	e0442783          	lw	a5,-508(s0)
80005174:	00f97463          	bleu	a5,s2,8000517c <mm_cb+0x3dd0>
80005178:	b30fe06f          	j	800034a8 <mm_cb+0x20fc>
8000517c:	e3042703          	lw	a4,-464(s0)
80005180:	e4042783          	lw	a5,-448(s0)
80005184:	0c870713          	addi	a4,a4,200
80005188:	e2e42823          	sw	a4,-464(s0)
8000518c:	e3442703          	lw	a4,-460(s0)
80005190:	01978793          	addi	a5,a5,25
80005194:	e4f42023          	sw	a5,-448(s0)
80005198:	0c870713          	addi	a4,a4,200
8000519c:	e2e42a23          	sw	a4,-460(s0)
800051a0:	dec42703          	lw	a4,-532(s0)
800051a4:	00e7f463          	bleu	a4,a5,800051ac <mm_cb+0x3e00>
800051a8:	a50fe06f          	j	800033f8 <mm_cb+0x204c>
800051ac:	e0042783          	lw	a5,-512(s0)
800051b0:	16078263          	beqz	a5,80005314 <mm_cb+0x3f68>
800051b4:	00042783          	lw	a5,0(s0)
800051b8:	00042703          	lw	a4,0(s0)
800051bc:	dd842c83          	lw	s9,-552(s0)
800051c0:	00179d93          	slli	s11,a5,0x1
800051c4:	000017b7          	lui	a5,0x1
800051c8:	00ed8db3          	add	s11,s11,a4
800051cc:	00371a93          	slli	s5,a4,0x3
800051d0:	38078793          	addi	a5,a5,896 # 1380 <_tbss_end+0x12fc>
800051d4:	006d9d93          	slli	s11,s11,0x6
800051d8:	00000b93          	li	s7,0
800051dc:	faf42423          	sw	a5,-88(s0)
800051e0:	000a8493          	mv	s1,s5
800051e4:	e1042783          	lw	a5,-496(s0)
800051e8:	10078e63          	beqz	a5,80005304 <mm_cb+0x3f58>
800051ec:	01800793          	li	a5,24
800051f0:	02fbdb33          	divu	s6,s7,a5
800051f4:	e1442783          	lw	a5,-492(s0)
800051f8:	000c8d13          	mv	s10,s9
800051fc:	00000c13          	li	s8,0
80005200:	02fb0b33          	mul	s6,s6,a5
80005204:	01900793          	li	a5,25
80005208:	000d0613          	mv	a2,s10
8000520c:	02fc52b3          	divu	t0,s8,a5
80005210:	000017b7          	lui	a5,0x1
80005214:	2c078793          	addi	a5,a5,704 # 12c0 <_tbss_end+0x123c>
80005218:	016282b3          	add	t0,t0,s6
8000521c:	02f282b3          	mul	t0,t0,a5
80005220:	de842783          	lw	a5,-536(s0)
80005224:	005782b3          	add	t0,a5,t0
80005228:	fa842783          	lw	a5,-88(s0)
8000522c:	0c028693          	addi	a3,t0,192
80005230:	00f282b3          	add	t0,t0,a5
80005234:	f4068793          	addi	a5,a3,-192
80005238:	00060713          	mv	a4,a2
8000523c:	fb642c23          	sw	s6,-72(s0)
80005240:	fb742823          	sw	s7,-80(s0)
80005244:	0087aa03          	lw	s4,8(a5)
80005248:	00c7aa83          	lw	s5,12(a5)
8000524c:	0107a903          	lw	s2,16(a5)
80005250:	0147a983          	lw	s3,20(a5)
80005254:	0187af03          	lw	t5,24(a5)
80005258:	01c7af83          	lw	t6,28(a5)
8000525c:	0207ae03          	lw	t3,32(a5)
80005260:	0247ae83          	lw	t4,36(a5)
80005264:	0287a303          	lw	t1,40(a5)
80005268:	02c7a383          	lw	t2,44(a5)
8000526c:	0307a803          	lw	a6,48(a5)
80005270:	0347a883          	lw	a7,52(a5)
80005274:	0387a503          	lw	a0,56(a5)
80005278:	03c7a583          	lw	a1,60(a5)
8000527c:	0007ab03          	lw	s6,0(a5)
80005280:	0047ab83          	lw	s7,4(a5)
80005284:	01472423          	sw	s4,8(a4)
80005288:	01672023          	sw	s6,0(a4)
8000528c:	01772223          	sw	s7,4(a4)
80005290:	01572623          	sw	s5,12(a4)
80005294:	01272823          	sw	s2,16(a4)
80005298:	01372a23          	sw	s3,20(a4)
8000529c:	01e72c23          	sw	t5,24(a4)
800052a0:	01f72e23          	sw	t6,28(a4)
800052a4:	03c72023          	sw	t3,32(a4)
800052a8:	03d72223          	sw	t4,36(a4)
800052ac:	02672423          	sw	t1,40(a4)
800052b0:	02772623          	sw	t2,44(a4)
800052b4:	03072823          	sw	a6,48(a4)
800052b8:	03172a23          	sw	a7,52(a4)
800052bc:	02a72c23          	sw	a0,56(a4)
800052c0:	02b72e23          	sw	a1,60(a4)
800052c4:	04078793          	addi	a5,a5,64
800052c8:	04070713          	addi	a4,a4,64
800052cc:	f6f69ce3          	bne	a3,a5,80005244 <mm_cb+0x3e98>
800052d0:	0006a703          	lw	a4,0(a3)
800052d4:	0046a783          	lw	a5,4(a3)
800052d8:	0c868693          	addi	a3,a3,200
800052dc:	0ce62023          	sw	a4,192(a2)
800052e0:	0cf62223          	sw	a5,196(a2)
800052e4:	fb842b03          	lw	s6,-72(s0)
800052e8:	fb042b83          	lw	s7,-80(s0)
800052ec:	00960633          	add	a2,a2,s1
800052f0:	f4d292e3          	bne	t0,a3,80005234 <mm_cb+0x3e88>
800052f4:	e1042783          	lw	a5,-496(s0)
800052f8:	019c0c13          	addi	s8,s8,25
800052fc:	0c8d0d13          	addi	s10,s10,200
80005300:	f0fc62e3          	bltu	s8,a5,80005204 <mm_cb+0x3e58>
80005304:	e0042783          	lw	a5,-512(s0)
80005308:	018b8b93          	addi	s7,s7,24
8000530c:	01bc8cb3          	add	s9,s9,s11
80005310:	ecfbeae3          	bltu	s7,a5,800051e4 <mm_cb+0x3e38>
80005314:	d5040113          	addi	sp,s0,-688
80005318:	2ac12083          	lw	ra,684(sp)
8000531c:	2a812403          	lw	s0,680(sp)
80005320:	2a412483          	lw	s1,676(sp)
80005324:	2a012903          	lw	s2,672(sp)
80005328:	29c12983          	lw	s3,668(sp)
8000532c:	29812a03          	lw	s4,664(sp)
80005330:	29412a83          	lw	s5,660(sp)
80005334:	29012b03          	lw	s6,656(sp)
80005338:	28c12b83          	lw	s7,652(sp)
8000533c:	28812c03          	lw	s8,648(sp)
80005340:	28412c83          	lw	s9,644(sp)
80005344:	28012d03          	lw	s10,640(sp)
80005348:	27c12d83          	lw	s11,636(sp)
8000534c:	2b010113          	addi	sp,sp,688
80005350:	00008067          	ret
80005354:	dbc42783          	lw	a5,-580(s0)
80005358:	00078463          	beqz	a5,80005360 <mm_cb+0x3fb4>
8000535c:	fa1fd06f          	j	800032fc <mm_cb+0x1f50>
80005360:	fb5ff06f          	j	80005314 <mm_cb+0x3f68>
80005364:	e3442783          	lw	a5,-460(s0)
80005368:	01900713          	li	a4,25
8000536c:	e3c42603          	lw	a2,-452(s0)
80005370:	02e7d7b3          	divu	a5,a5,a4
80005374:	dac42703          	lw	a4,-596(s0)
80005378:	e4c42623          	sw	a2,-436(s0)
8000537c:	00c706b3          	add	a3,a4,a2
80005380:	e4d42a23          	sw	a3,-428(s0)
80005384:	00d706b3          	add	a3,a4,a3
80005388:	00d70733          	add	a4,a4,a3
8000538c:	e4e42e23          	sw	a4,-420(s0)
80005390:	e3042703          	lw	a4,-464(s0)
80005394:	e4d42c23          	sw	a3,-424(s0)
80005398:	00e787b3          	add	a5,a5,a4
8000539c:	00001737          	lui	a4,0x1
800053a0:	2c070713          	addi	a4,a4,704 # 12c0 <_tbss_end+0x123c>
800053a4:	02e787b3          	mul	a5,a5,a4
800053a8:	de842703          	lw	a4,-536(s0)
800053ac:	00f707b3          	add	a5,a4,a5
800053b0:	0c878713          	addi	a4,a5,200
800053b4:	e4e42023          	sw	a4,-448(s0)
800053b8:	d8842703          	lw	a4,-632(s0)
800053bc:	e0f42423          	sw	a5,-504(s0)
800053c0:	00e787b3          	add	a5,a5,a4
800053c4:	e0f42623          	sw	a5,-500(s0)
800053c8:	e4c42783          	lw	a5,-436(s0)
800053cc:	e1c42703          	lw	a4,-484(s0)
800053d0:	00f70733          	add	a4,a4,a5
800053d4:	e8e42023          	sw	a4,-384(s0)
800053d8:	da442703          	lw	a4,-604(s0)
800053dc:	00f707b3          	add	a5,a4,a5
800053e0:	e6f42423          	sw	a5,-408(s0)
800053e4:	e4042783          	lw	a5,-448(s0)
800053e8:	f3878293          	addi	t0,a5,-200
800053ec:	e3842783          	lw	a5,-456(s0)
800053f0:	e6f42023          	sw	a5,-416(s0)
800053f4:	e6042783          	lw	a5,-416(s0)
800053f8:	0082a703          	lw	a4,8(t0)
800053fc:	0002a803          	lw	a6,0(t0)
80005400:	faf42c23          	sw	a5,-72(s0)
80005404:	00c2a783          	lw	a5,12(t0)
80005408:	f6e42423          	sw	a4,-152(s0)
8000540c:	0102a703          	lw	a4,16(t0)
80005410:	f6f42623          	sw	a5,-148(s0)
80005414:	0142a783          	lw	a5,20(t0)
80005418:	f8e42823          	sw	a4,-112(s0)
8000541c:	0182a703          	lw	a4,24(t0)
80005420:	f8f42a23          	sw	a5,-108(s0)
80005424:	01c2a783          	lw	a5,28(t0)
80005428:	f6e42c23          	sw	a4,-136(s0)
8000542c:	0202a703          	lw	a4,32(t0)
80005430:	f6f42e23          	sw	a5,-132(s0)
80005434:	0242a783          	lw	a5,36(t0)
80005438:	f6e42023          	sw	a4,-160(s0)
8000543c:	0c82a703          	lw	a4,200(t0)
80005440:	f6f42223          	sw	a5,-156(s0)
80005444:	0cc2a783          	lw	a5,204(t0)
80005448:	f4e42c23          	sw	a4,-168(s0)
8000544c:	0d02a703          	lw	a4,208(t0)
80005450:	f4f42e23          	sw	a5,-164(s0)
80005454:	0d42a783          	lw	a5,212(t0)
80005458:	f6e42823          	sw	a4,-144(s0)
8000545c:	0d82a703          	lw	a4,216(t0)
80005460:	f6f42a23          	sw	a5,-140(s0)
80005464:	0dc2a783          	lw	a5,220(t0)
80005468:	0042a883          	lw	a7,4(t0)
8000546c:	f8e42423          	sw	a4,-120(s0)
80005470:	f8f42623          	sw	a5,-116(s0)
80005474:	0e02a703          	lw	a4,224(t0)
80005478:	0e42a783          	lw	a5,228(t0)
8000547c:	f8e42023          	sw	a4,-128(s0)
80005480:	f8f42223          	sw	a5,-124(s0)
80005484:	0e82a703          	lw	a4,232(t0)
80005488:	0ec2a783          	lw	a5,236(t0)
8000548c:	f4e42823          	sw	a4,-176(s0)
80005490:	f4f42a23          	sw	a5,-172(s0)
80005494:	1902a703          	lw	a4,400(t0)
80005498:	1942a783          	lw	a5,404(t0)
8000549c:	f4e42423          	sw	a4,-184(s0)
800054a0:	f4f42623          	sw	a5,-180(s0)
800054a4:	1982a703          	lw	a4,408(t0)
800054a8:	19c2a783          	lw	a5,412(t0)
800054ac:	f4e42023          	sw	a4,-192(s0)
800054b0:	f4f42223          	sw	a5,-188(s0)
800054b4:	1a02a703          	lw	a4,416(t0)
800054b8:	1a42a783          	lw	a5,420(t0)
800054bc:	f2e42c23          	sw	a4,-200(s0)
800054c0:	f2f42e23          	sw	a5,-196(s0)
800054c4:	1a82a703          	lw	a4,424(t0)
800054c8:	1ac2a783          	lw	a5,428(t0)
800054cc:	f2e42823          	sw	a4,-208(s0)
800054d0:	f2f42a23          	sw	a5,-204(s0)
800054d4:	1b02a703          	lw	a4,432(t0)
800054d8:	1b42a783          	lw	a5,436(t0)
800054dc:	f2e42423          	sw	a4,-216(s0)
800054e0:	f2f42623          	sw	a5,-212(s0)
800054e4:	2582a703          	lw	a4,600(t0)
800054e8:	25c2a783          	lw	a5,604(t0)
800054ec:	f2e42023          	sw	a4,-224(s0)
800054f0:	f2f42223          	sw	a5,-220(s0)
800054f4:	2602a703          	lw	a4,608(t0)
800054f8:	2642a783          	lw	a5,612(t0)
800054fc:	2782ae03          	lw	t3,632(t0)
80005500:	f0e42c23          	sw	a4,-232(s0)
80005504:	f0f42e23          	sw	a5,-228(s0)
80005508:	2682a703          	lw	a4,616(t0)
8000550c:	26c2a783          	lw	a5,620(t0)
80005510:	27c2ae83          	lw	t4,636(t0)
80005514:	f0e42823          	sw	a4,-240(s0)
80005518:	f0f42a23          	sw	a5,-236(s0)
8000551c:	2702a703          	lw	a4,624(t0)
80005520:	2742a783          	lw	a5,628(t0)
80005524:	f0e42423          	sw	a4,-248(s0)
80005528:	f0f42623          	sw	a5,-244(s0)
8000552c:	e8042703          	lw	a4,-384(s0)
80005530:	e4c42783          	lw	a5,-436(s0)
80005534:	00e7e463          	bltu	a5,a4,8000553c <mm_cb+0x4190>
80005538:	4840106f          	j	800069bc <mm_cb+0x5610>
8000553c:	e5c42703          	lw	a4,-420(s0)
80005540:	faf42823          	sw	a5,-80(s0)
80005544:	e4542823          	sw	t0,-432(s0)
80005548:	fae42423          	sw	a4,-88(s0)
8000554c:	e5842703          	lw	a4,-424(s0)
80005550:	fae42023          	sw	a4,-96(s0)
80005554:	e5442703          	lw	a4,-428(s0)
80005558:	f8e42c23          	sw	a4,-104(s0)
8000555c:	fb842483          	lw	s1,-72(s0)
80005560:	fb042783          	lw	a5,-80(s0)
80005564:	00080713          	mv	a4,a6
80005568:	0004ac03          	lw	s8,0(s1)
8000556c:	0007a903          	lw	s2,0(a5)
80005570:	0047a983          	lw	s3,4(a5)
80005574:	0044ac83          	lw	s9,4(s1)
80005578:	00088793          	mv	a5,a7
8000557c:	000c0613          	mv	a2,s8
80005580:	000c8693          	mv	a3,s9
80005584:	00090513          	mv	a0,s2
80005588:	00098593          	mv	a1,s3
8000558c:	efd42a23          	sw	t4,-268(s0)
80005590:	efc42823          	sw	t3,-272(s0)
80005594:	7dc060ef          	jal	ra,8000bd70 <fma>
80005598:	0084ab03          	lw	s6,8(s1)
8000559c:	00c4ab83          	lw	s7,12(s1)
800055a0:	f6842703          	lw	a4,-152(s0)
800055a4:	f6c42783          	lw	a5,-148(s0)
800055a8:	000b0613          	mv	a2,s6
800055ac:	000b8693          	mv	a3,s7
800055b0:	eea42c23          	sw	a0,-264(s0)
800055b4:	eeb42e23          	sw	a1,-260(s0)
800055b8:	00090513          	mv	a0,s2
800055bc:	00098593          	mv	a1,s3
800055c0:	7b0060ef          	jal	ra,8000bd70 <fma>
800055c4:	0104aa03          	lw	s4,16(s1)
800055c8:	0144aa83          	lw	s5,20(s1)
800055cc:	f9042703          	lw	a4,-112(s0)
800055d0:	f9442783          	lw	a5,-108(s0)
800055d4:	000a0613          	mv	a2,s4
800055d8:	000a8693          	mv	a3,s5
800055dc:	f0a42023          	sw	a0,-256(s0)
800055e0:	f0b42223          	sw	a1,-252(s0)
800055e4:	00090513          	mv	a0,s2
800055e8:	00098593          	mv	a1,s3
800055ec:	784060ef          	jal	ra,8000bd70 <fma>
800055f0:	0184ad03          	lw	s10,24(s1)
800055f4:	01c4ad83          	lw	s11,28(s1)
800055f8:	f7842703          	lw	a4,-136(s0)
800055fc:	f7c42783          	lw	a5,-132(s0)
80005600:	000d0613          	mv	a2,s10
80005604:	000d8693          	mv	a3,s11
80005608:	eea42423          	sw	a0,-280(s0)
8000560c:	eeb42623          	sw	a1,-276(s0)
80005610:	00090513          	mv	a0,s2
80005614:	00098593          	mv	a1,s3
80005618:	758060ef          	jal	ra,8000bd70 <fma>
8000561c:	0204a783          	lw	a5,32(s1)
80005620:	0244a803          	lw	a6,36(s1)
80005624:	f6042703          	lw	a4,-160(s0)
80005628:	00078613          	mv	a2,a5
8000562c:	f6442783          	lw	a5,-156(s0)
80005630:	00080693          	mv	a3,a6
80005634:	f6a42c23          	sw	a0,-136(s0)
80005638:	f6b42e23          	sw	a1,-132(s0)
8000563c:	00090513          	mv	a0,s2
80005640:	00098593          	mv	a1,s3
80005644:	f9042a23          	sw	a6,-108(s0)
80005648:	f8c42823          	sw	a2,-112(s0)
8000564c:	724060ef          	jal	ra,8000bd70 <fma>
80005650:	f9842683          	lw	a3,-104(s0)
80005654:	f6a42423          	sw	a0,-152(s0)
80005658:	f6b42623          	sw	a1,-148(s0)
8000565c:	0006a903          	lw	s2,0(a3)
80005660:	0046a983          	lw	s3,4(a3)
80005664:	f5842703          	lw	a4,-168(s0)
80005668:	f5c42783          	lw	a5,-164(s0)
8000566c:	000c0613          	mv	a2,s8
80005670:	000c8693          	mv	a3,s9
80005674:	00090513          	mv	a0,s2
80005678:	00098593          	mv	a1,s3
8000567c:	6f4060ef          	jal	ra,8000bd70 <fma>
80005680:	f7042703          	lw	a4,-144(s0)
80005684:	f7442783          	lw	a5,-140(s0)
80005688:	000b0613          	mv	a2,s6
8000568c:	000b8693          	mv	a3,s7
80005690:	f6a42023          	sw	a0,-160(s0)
80005694:	f6b42223          	sw	a1,-156(s0)
80005698:	00090513          	mv	a0,s2
8000569c:	00098593          	mv	a1,s3
800056a0:	6d0060ef          	jal	ra,8000bd70 <fma>
800056a4:	f8842703          	lw	a4,-120(s0)
800056a8:	f8c42783          	lw	a5,-116(s0)
800056ac:	000a0613          	mv	a2,s4
800056b0:	000a8693          	mv	a3,s5
800056b4:	f6a42823          	sw	a0,-144(s0)
800056b8:	f6b42a23          	sw	a1,-140(s0)
800056bc:	00090513          	mv	a0,s2
800056c0:	00098593          	mv	a1,s3
800056c4:	6ac060ef          	jal	ra,8000bd70 <fma>
800056c8:	f8042703          	lw	a4,-128(s0)
800056cc:	f8442783          	lw	a5,-124(s0)
800056d0:	000d0613          	mv	a2,s10
800056d4:	000d8693          	mv	a3,s11
800056d8:	f8a42423          	sw	a0,-120(s0)
800056dc:	f8b42623          	sw	a1,-116(s0)
800056e0:	00090513          	mv	a0,s2
800056e4:	00098593          	mv	a1,s3
800056e8:	688060ef          	jal	ra,8000bd70 <fma>
800056ec:	f5042703          	lw	a4,-176(s0)
800056f0:	f5442783          	lw	a5,-172(s0)
800056f4:	f9042603          	lw	a2,-112(s0)
800056f8:	f9442683          	lw	a3,-108(s0)
800056fc:	f8a42023          	sw	a0,-128(s0)
80005700:	f8b42223          	sw	a1,-124(s0)
80005704:	00090513          	mv	a0,s2
80005708:	00098593          	mv	a1,s3
8000570c:	664060ef          	jal	ra,8000bd70 <fma>
80005710:	f4b42e23          	sw	a1,-164(s0)
80005714:	fa042583          	lw	a1,-96(s0)
80005718:	f4842703          	lw	a4,-184(s0)
8000571c:	f4c42783          	lw	a5,-180(s0)
80005720:	0005a903          	lw	s2,0(a1)
80005724:	0045a983          	lw	s3,4(a1)
80005728:	000c0613          	mv	a2,s8
8000572c:	000c8693          	mv	a3,s9
80005730:	f4a42c23          	sw	a0,-168(s0)
80005734:	00098593          	mv	a1,s3
80005738:	00090513          	mv	a0,s2
8000573c:	634060ef          	jal	ra,8000bd70 <fma>
80005740:	f4042703          	lw	a4,-192(s0)
80005744:	f4442783          	lw	a5,-188(s0)
80005748:	000b0613          	mv	a2,s6
8000574c:	000b8693          	mv	a3,s7
80005750:	f4a42823          	sw	a0,-176(s0)
80005754:	f4b42a23          	sw	a1,-172(s0)
80005758:	00090513          	mv	a0,s2
8000575c:	00098593          	mv	a1,s3
80005760:	610060ef          	jal	ra,8000bd70 <fma>
80005764:	f3842703          	lw	a4,-200(s0)
80005768:	f3c42783          	lw	a5,-196(s0)
8000576c:	000a0613          	mv	a2,s4
80005770:	000a8693          	mv	a3,s5
80005774:	f4a42423          	sw	a0,-184(s0)
80005778:	f4b42623          	sw	a1,-180(s0)
8000577c:	00090513          	mv	a0,s2
80005780:	00098593          	mv	a1,s3
80005784:	5ec060ef          	jal	ra,8000bd70 <fma>
80005788:	f3042703          	lw	a4,-208(s0)
8000578c:	f4a42023          	sw	a0,-192(s0)
80005790:	f4b42223          	sw	a1,-188(s0)
80005794:	f3442783          	lw	a5,-204(s0)
80005798:	000d0613          	mv	a2,s10
8000579c:	000d8693          	mv	a3,s11
800057a0:	00090513          	mv	a0,s2
800057a4:	00098593          	mv	a1,s3
800057a8:	5c8060ef          	jal	ra,8000bd70 <fma>
800057ac:	f2842703          	lw	a4,-216(s0)
800057b0:	f2c42783          	lw	a5,-212(s0)
800057b4:	f9042603          	lw	a2,-112(s0)
800057b8:	f9442683          	lw	a3,-108(s0)
800057bc:	f2a42c23          	sw	a0,-200(s0)
800057c0:	f2b42e23          	sw	a1,-196(s0)
800057c4:	00090513          	mv	a0,s2
800057c8:	00098593          	mv	a1,s3
800057cc:	5a4060ef          	jal	ra,8000bd70 <fma>
800057d0:	fa842803          	lw	a6,-88(s0)
800057d4:	f2042703          	lw	a4,-224(s0)
800057d8:	f2442783          	lw	a5,-220(s0)
800057dc:	00082903          	lw	s2,0(a6)
800057e0:	00482983          	lw	s3,4(a6)
800057e4:	000c0613          	mv	a2,s8
800057e8:	000c8693          	mv	a3,s9
800057ec:	f2a42823          	sw	a0,-208(s0)
800057f0:	f2b42a23          	sw	a1,-204(s0)
800057f4:	00090513          	mv	a0,s2
800057f8:	00098593          	mv	a1,s3
800057fc:	574060ef          	jal	ra,8000bd70 <fma>
80005800:	f1842703          	lw	a4,-232(s0)
80005804:	f1c42783          	lw	a5,-228(s0)
80005808:	000b0613          	mv	a2,s6
8000580c:	000b8693          	mv	a3,s7
80005810:	f2a42423          	sw	a0,-216(s0)
80005814:	f2b42623          	sw	a1,-212(s0)
80005818:	00090513          	mv	a0,s2
8000581c:	00098593          	mv	a1,s3
80005820:	550060ef          	jal	ra,8000bd70 <fma>
80005824:	f1042703          	lw	a4,-240(s0)
80005828:	f1442783          	lw	a5,-236(s0)
8000582c:	000a0613          	mv	a2,s4
80005830:	000a8693          	mv	a3,s5
80005834:	f2a42023          	sw	a0,-224(s0)
80005838:	f2b42223          	sw	a1,-220(s0)
8000583c:	00090513          	mv	a0,s2
80005840:	00098593          	mv	a1,s3
80005844:	52c060ef          	jal	ra,8000bd70 <fma>
80005848:	e9442e03          	lw	t3,-364(s0)
8000584c:	f0842703          	lw	a4,-248(s0)
80005850:	f0c42783          	lw	a5,-244(s0)
80005854:	000d0613          	mv	a2,s10
80005858:	000d8693          	mv	a3,s11
8000585c:	f0a42c23          	sw	a0,-232(s0)
80005860:	f0b42e23          	sw	a1,-228(s0)
80005864:	00090513          	mv	a0,s2
80005868:	00098593          	mv	a1,s3
8000586c:	01c484b3          	add	s1,s1,t3
80005870:	500060ef          	jal	ra,8000bd70 <fma>
80005874:	ef442e83          	lw	t4,-268(s0)
80005878:	ef042e03          	lw	t3,-272(s0)
8000587c:	f9042603          	lw	a2,-112(s0)
80005880:	f9442683          	lw	a3,-108(s0)
80005884:	000e8793          	mv	a5,t4
80005888:	000e0713          	mv	a4,t3
8000588c:	f0a42823          	sw	a0,-240(s0)
80005890:	f0b42a23          	sw	a1,-236(s0)
80005894:	00090513          	mv	a0,s2
80005898:	00098593          	mv	a1,s3
8000589c:	4d4060ef          	jal	ra,8000bd70 <fma>
800058a0:	fb042783          	lw	a5,-80(s0)
800058a4:	eea42823          	sw	a0,-272(s0)
800058a8:	eeb42a23          	sw	a1,-268(s0)
800058ac:	0087a903          	lw	s2,8(a5)
800058b0:	00c7a983          	lw	s3,12(a5)
800058b4:	efc42883          	lw	a7,-260(s0)
800058b8:	ef842803          	lw	a6,-264(s0)
800058bc:	0004ac03          	lw	s8,0(s1)
800058c0:	0044ac83          	lw	s9,4(s1)
800058c4:	00088793          	mv	a5,a7
800058c8:	00080713          	mv	a4,a6
800058cc:	000c0613          	mv	a2,s8
800058d0:	000c8693          	mv	a3,s9
800058d4:	00090513          	mv	a0,s2
800058d8:	00098593          	mv	a1,s3
800058dc:	494060ef          	jal	ra,8000bd70 <fma>
800058e0:	f0042303          	lw	t1,-256(s0)
800058e4:	f0442383          	lw	t2,-252(s0)
800058e8:	0084ab03          	lw	s6,8(s1)
800058ec:	00c4ab83          	lw	s7,12(s1)
800058f0:	00030713          	mv	a4,t1
800058f4:	00038793          	mv	a5,t2
800058f8:	000b0613          	mv	a2,s6
800058fc:	000b8693          	mv	a3,s7
80005900:	eea42c23          	sw	a0,-264(s0)
80005904:	eeb42e23          	sw	a1,-260(s0)
80005908:	00090513          	mv	a0,s2
8000590c:	00098593          	mv	a1,s3
80005910:	460060ef          	jal	ra,8000bd70 <fma>
80005914:	ee842f03          	lw	t5,-280(s0)
80005918:	eec42f83          	lw	t6,-276(s0)
8000591c:	0104aa03          	lw	s4,16(s1)
80005920:	0144aa83          	lw	s5,20(s1)
80005924:	000f0713          	mv	a4,t5
80005928:	000f8793          	mv	a5,t6
8000592c:	000a0613          	mv	a2,s4
80005930:	000a8693          	mv	a3,s5
80005934:	f0a42023          	sw	a0,-256(s0)
80005938:	f0b42223          	sw	a1,-252(s0)
8000593c:	00090513          	mv	a0,s2
80005940:	00098593          	mv	a1,s3
80005944:	42c060ef          	jal	ra,8000bd70 <fma>
80005948:	0184ad03          	lw	s10,24(s1)
8000594c:	01c4ad83          	lw	s11,28(s1)
80005950:	f7842703          	lw	a4,-136(s0)
80005954:	f7c42783          	lw	a5,-132(s0)
80005958:	000d0613          	mv	a2,s10
8000595c:	000d8693          	mv	a3,s11
80005960:	f0a42423          	sw	a0,-248(s0)
80005964:	f0b42623          	sw	a1,-244(s0)
80005968:	00090513          	mv	a0,s2
8000596c:	00098593          	mv	a1,s3
80005970:	400060ef          	jal	ra,8000bd70 <fma>
80005974:	0204a783          	lw	a5,32(s1)
80005978:	0244a803          	lw	a6,36(s1)
8000597c:	f6842703          	lw	a4,-152(s0)
80005980:	00078613          	mv	a2,a5
80005984:	f6c42783          	lw	a5,-148(s0)
80005988:	00080693          	mv	a3,a6
8000598c:	f6a42c23          	sw	a0,-136(s0)
80005990:	f6b42e23          	sw	a1,-132(s0)
80005994:	00090513          	mv	a0,s2
80005998:	00098593          	mv	a1,s3
8000599c:	f9042a23          	sw	a6,-108(s0)
800059a0:	f8c42823          	sw	a2,-112(s0)
800059a4:	3cc060ef          	jal	ra,8000bd70 <fma>
800059a8:	f9842683          	lw	a3,-104(s0)
800059ac:	f6042703          	lw	a4,-160(s0)
800059b0:	f6a42423          	sw	a0,-152(s0)
800059b4:	0086a903          	lw	s2,8(a3)
800059b8:	00c6a983          	lw	s3,12(a3)
800059bc:	f6b42623          	sw	a1,-148(s0)
800059c0:	f6442783          	lw	a5,-156(s0)
800059c4:	000c0613          	mv	a2,s8
800059c8:	000c8693          	mv	a3,s9
800059cc:	00090513          	mv	a0,s2
800059d0:	00098593          	mv	a1,s3
800059d4:	39c060ef          	jal	ra,8000bd70 <fma>
800059d8:	f7042703          	lw	a4,-144(s0)
800059dc:	f7442783          	lw	a5,-140(s0)
800059e0:	000b0613          	mv	a2,s6
800059e4:	000b8693          	mv	a3,s7
800059e8:	f6a42023          	sw	a0,-160(s0)
800059ec:	f6b42223          	sw	a1,-156(s0)
800059f0:	00090513          	mv	a0,s2
800059f4:	00098593          	mv	a1,s3
800059f8:	378060ef          	jal	ra,8000bd70 <fma>
800059fc:	f8842703          	lw	a4,-120(s0)
80005a00:	f8c42783          	lw	a5,-116(s0)
80005a04:	000a0613          	mv	a2,s4
80005a08:	000a8693          	mv	a3,s5
80005a0c:	f6a42823          	sw	a0,-144(s0)
80005a10:	f6b42a23          	sw	a1,-140(s0)
80005a14:	00090513          	mv	a0,s2
80005a18:	00098593          	mv	a1,s3
80005a1c:	354060ef          	jal	ra,8000bd70 <fma>
80005a20:	f8042703          	lw	a4,-128(s0)
80005a24:	f8442783          	lw	a5,-124(s0)
80005a28:	000d0613          	mv	a2,s10
80005a2c:	000d8693          	mv	a3,s11
80005a30:	f8a42423          	sw	a0,-120(s0)
80005a34:	f8b42623          	sw	a1,-116(s0)
80005a38:	00090513          	mv	a0,s2
80005a3c:	00098593          	mv	a1,s3
80005a40:	330060ef          	jal	ra,8000bd70 <fma>
80005a44:	f5842703          	lw	a4,-168(s0)
80005a48:	f5c42783          	lw	a5,-164(s0)
80005a4c:	f9042603          	lw	a2,-112(s0)
80005a50:	f9442683          	lw	a3,-108(s0)
80005a54:	f8a42023          	sw	a0,-128(s0)
80005a58:	f8b42223          	sw	a1,-124(s0)
80005a5c:	00090513          	mv	a0,s2
80005a60:	00098593          	mv	a1,s3
80005a64:	30c060ef          	jal	ra,8000bd70 <fma>
80005a68:	f4b42e23          	sw	a1,-164(s0)
80005a6c:	fa042583          	lw	a1,-96(s0)
80005a70:	f5042703          	lw	a4,-176(s0)
80005a74:	f5442783          	lw	a5,-172(s0)
80005a78:	0085a903          	lw	s2,8(a1)
80005a7c:	00c5a983          	lw	s3,12(a1)
80005a80:	000c0613          	mv	a2,s8
80005a84:	000c8693          	mv	a3,s9
80005a88:	f4a42c23          	sw	a0,-168(s0)
80005a8c:	00098593          	mv	a1,s3
80005a90:	00090513          	mv	a0,s2
80005a94:	2dc060ef          	jal	ra,8000bd70 <fma>
80005a98:	f4842703          	lw	a4,-184(s0)
80005a9c:	f4c42783          	lw	a5,-180(s0)
80005aa0:	000b0613          	mv	a2,s6
80005aa4:	000b8693          	mv	a3,s7
80005aa8:	f4a42823          	sw	a0,-176(s0)
80005aac:	f4b42a23          	sw	a1,-172(s0)
80005ab0:	00090513          	mv	a0,s2
80005ab4:	00098593          	mv	a1,s3
80005ab8:	2b8060ef          	jal	ra,8000bd70 <fma>
80005abc:	f4042703          	lw	a4,-192(s0)
80005ac0:	f4442783          	lw	a5,-188(s0)
80005ac4:	000a0613          	mv	a2,s4
80005ac8:	000a8693          	mv	a3,s5
80005acc:	f4a42423          	sw	a0,-184(s0)
80005ad0:	f4b42623          	sw	a1,-180(s0)
80005ad4:	00090513          	mv	a0,s2
80005ad8:	00098593          	mv	a1,s3
80005adc:	294060ef          	jal	ra,8000bd70 <fma>
80005ae0:	f3842703          	lw	a4,-200(s0)
80005ae4:	f3c42783          	lw	a5,-196(s0)
80005ae8:	000d0613          	mv	a2,s10
80005aec:	000d8693          	mv	a3,s11
80005af0:	f4a42023          	sw	a0,-192(s0)
80005af4:	f4b42223          	sw	a1,-188(s0)
80005af8:	00090513          	mv	a0,s2
80005afc:	00098593          	mv	a1,s3
80005b00:	270060ef          	jal	ra,8000bd70 <fma>
80005b04:	f3042703          	lw	a4,-208(s0)
80005b08:	f3442783          	lw	a5,-204(s0)
80005b0c:	f9042603          	lw	a2,-112(s0)
80005b10:	f9442683          	lw	a3,-108(s0)
80005b14:	f2a42c23          	sw	a0,-200(s0)
80005b18:	f2b42e23          	sw	a1,-196(s0)
80005b1c:	00090513          	mv	a0,s2
80005b20:	00098593          	mv	a1,s3
80005b24:	24c060ef          	jal	ra,8000bd70 <fma>
80005b28:	fa842803          	lw	a6,-88(s0)
80005b2c:	f2842703          	lw	a4,-216(s0)
80005b30:	f2c42783          	lw	a5,-212(s0)
80005b34:	00882903          	lw	s2,8(a6)
80005b38:	00c82983          	lw	s3,12(a6)
80005b3c:	000c0613          	mv	a2,s8
80005b40:	000c8693          	mv	a3,s9
80005b44:	f2a42823          	sw	a0,-208(s0)
80005b48:	f2b42a23          	sw	a1,-204(s0)
80005b4c:	00090513          	mv	a0,s2
80005b50:	00098593          	mv	a1,s3
80005b54:	21c060ef          	jal	ra,8000bd70 <fma>
80005b58:	f2042703          	lw	a4,-224(s0)
80005b5c:	f2442783          	lw	a5,-220(s0)
80005b60:	000b0613          	mv	a2,s6
80005b64:	000b8693          	mv	a3,s7
80005b68:	f2a42423          	sw	a0,-216(s0)
80005b6c:	f2b42623          	sw	a1,-212(s0)
80005b70:	00090513          	mv	a0,s2
80005b74:	00098593          	mv	a1,s3
80005b78:	1f8060ef          	jal	ra,8000bd70 <fma>
80005b7c:	f1842703          	lw	a4,-232(s0)
80005b80:	f1c42783          	lw	a5,-228(s0)
80005b84:	000a0613          	mv	a2,s4
80005b88:	000a8693          	mv	a3,s5
80005b8c:	f2a42023          	sw	a0,-224(s0)
80005b90:	f2b42223          	sw	a1,-220(s0)
80005b94:	00090513          	mv	a0,s2
80005b98:	00098593          	mv	a1,s3
80005b9c:	1d4060ef          	jal	ra,8000bd70 <fma>
80005ba0:	f1042703          	lw	a4,-240(s0)
80005ba4:	f1442783          	lw	a5,-236(s0)
80005ba8:	e7c42e03          	lw	t3,-388(s0)
80005bac:	fb842483          	lw	s1,-72(s0)
80005bb0:	000d0613          	mv	a2,s10
80005bb4:	000d8693          	mv	a3,s11
80005bb8:	f0a42c23          	sw	a0,-232(s0)
80005bbc:	f0b42e23          	sw	a1,-228(s0)
80005bc0:	00090513          	mv	a0,s2
80005bc4:	00098593          	mv	a1,s3
80005bc8:	009e04b3          	add	s1,t3,s1
80005bcc:	1a4060ef          	jal	ra,8000bd70 <fma>
80005bd0:	ef442e83          	lw	t4,-268(s0)
80005bd4:	ef042e03          	lw	t3,-272(s0)
80005bd8:	f9042603          	lw	a2,-112(s0)
80005bdc:	f9442683          	lw	a3,-108(s0)
80005be0:	000e8793          	mv	a5,t4
80005be4:	000e0713          	mv	a4,t3
80005be8:	f0a42823          	sw	a0,-240(s0)
80005bec:	f0b42a23          	sw	a1,-236(s0)
80005bf0:	00090513          	mv	a0,s2
80005bf4:	00098593          	mv	a1,s3
80005bf8:	178060ef          	jal	ra,8000bd70 <fma>
80005bfc:	fb042783          	lw	a5,-80(s0)
80005c00:	eea42823          	sw	a0,-272(s0)
80005c04:	eeb42a23          	sw	a1,-268(s0)
80005c08:	0107a903          	lw	s2,16(a5)
80005c0c:	0147a983          	lw	s3,20(a5)
80005c10:	efc42883          	lw	a7,-260(s0)
80005c14:	ef842803          	lw	a6,-264(s0)
80005c18:	0004ac03          	lw	s8,0(s1)
80005c1c:	0044ac83          	lw	s9,4(s1)
80005c20:	00088793          	mv	a5,a7
80005c24:	00080713          	mv	a4,a6
80005c28:	000c0613          	mv	a2,s8
80005c2c:	000c8693          	mv	a3,s9
80005c30:	00090513          	mv	a0,s2
80005c34:	00098593          	mv	a1,s3
80005c38:	138060ef          	jal	ra,8000bd70 <fma>
80005c3c:	f0442383          	lw	t2,-252(s0)
80005c40:	f0042303          	lw	t1,-256(s0)
80005c44:	0084ab03          	lw	s6,8(s1)
80005c48:	00c4ab83          	lw	s7,12(s1)
80005c4c:	00038793          	mv	a5,t2
80005c50:	00030713          	mv	a4,t1
80005c54:	000b0613          	mv	a2,s6
80005c58:	000b8693          	mv	a3,s7
80005c5c:	eea42c23          	sw	a0,-264(s0)
80005c60:	eeb42e23          	sw	a1,-260(s0)
80005c64:	00090513          	mv	a0,s2
80005c68:	00098593          	mv	a1,s3
80005c6c:	104060ef          	jal	ra,8000bd70 <fma>
80005c70:	f0842f03          	lw	t5,-248(s0)
80005c74:	f0c42f83          	lw	t6,-244(s0)
80005c78:	0104aa03          	lw	s4,16(s1)
80005c7c:	0144aa83          	lw	s5,20(s1)
80005c80:	000f0713          	mv	a4,t5
80005c84:	000f8793          	mv	a5,t6
80005c88:	000a0613          	mv	a2,s4
80005c8c:	000a8693          	mv	a3,s5
80005c90:	f0a42023          	sw	a0,-256(s0)
80005c94:	f0b42223          	sw	a1,-252(s0)
80005c98:	00090513          	mv	a0,s2
80005c9c:	00098593          	mv	a1,s3
80005ca0:	0d0060ef          	jal	ra,8000bd70 <fma>
80005ca4:	0184ad03          	lw	s10,24(s1)
80005ca8:	01c4ad83          	lw	s11,28(s1)
80005cac:	f7842703          	lw	a4,-136(s0)
80005cb0:	f7c42783          	lw	a5,-132(s0)
80005cb4:	000d0613          	mv	a2,s10
80005cb8:	000d8693          	mv	a3,s11
80005cbc:	f0a42423          	sw	a0,-248(s0)
80005cc0:	f0b42623          	sw	a1,-244(s0)
80005cc4:	00090513          	mv	a0,s2
80005cc8:	00098593          	mv	a1,s3
80005ccc:	0a4060ef          	jal	ra,8000bd70 <fma>
80005cd0:	0204a783          	lw	a5,32(s1)
80005cd4:	0244a803          	lw	a6,36(s1)
80005cd8:	f6842703          	lw	a4,-152(s0)
80005cdc:	00078613          	mv	a2,a5
80005ce0:	f6c42783          	lw	a5,-148(s0)
80005ce4:	00080693          	mv	a3,a6
80005ce8:	f6a42c23          	sw	a0,-136(s0)
80005cec:	f6b42e23          	sw	a1,-132(s0)
80005cf0:	00090513          	mv	a0,s2
80005cf4:	00098593          	mv	a1,s3
80005cf8:	f9042a23          	sw	a6,-108(s0)
80005cfc:	f8c42823          	sw	a2,-112(s0)
80005d00:	070060ef          	jal	ra,8000bd70 <fma>
80005d04:	f9842683          	lw	a3,-104(s0)
80005d08:	f6042703          	lw	a4,-160(s0)
80005d0c:	f6a42423          	sw	a0,-152(s0)
80005d10:	0106a903          	lw	s2,16(a3)
80005d14:	0146a983          	lw	s3,20(a3)
80005d18:	f6b42623          	sw	a1,-148(s0)
80005d1c:	f6442783          	lw	a5,-156(s0)
80005d20:	000c0613          	mv	a2,s8
80005d24:	000c8693          	mv	a3,s9
80005d28:	00090513          	mv	a0,s2
80005d2c:	00098593          	mv	a1,s3
80005d30:	040060ef          	jal	ra,8000bd70 <fma>
80005d34:	f7042703          	lw	a4,-144(s0)
80005d38:	f7442783          	lw	a5,-140(s0)
80005d3c:	000b0613          	mv	a2,s6
80005d40:	000b8693          	mv	a3,s7
80005d44:	f6a42023          	sw	a0,-160(s0)
80005d48:	f6b42223          	sw	a1,-156(s0)
80005d4c:	00090513          	mv	a0,s2
80005d50:	00098593          	mv	a1,s3
80005d54:	01c060ef          	jal	ra,8000bd70 <fma>
80005d58:	f8842703          	lw	a4,-120(s0)
80005d5c:	f8c42783          	lw	a5,-116(s0)
80005d60:	000a0613          	mv	a2,s4
80005d64:	000a8693          	mv	a3,s5
80005d68:	f6a42823          	sw	a0,-144(s0)
80005d6c:	f6b42a23          	sw	a1,-140(s0)
80005d70:	00090513          	mv	a0,s2
80005d74:	00098593          	mv	a1,s3
80005d78:	7f9050ef          	jal	ra,8000bd70 <fma>
80005d7c:	f8042703          	lw	a4,-128(s0)
80005d80:	f8442783          	lw	a5,-124(s0)
80005d84:	000d0613          	mv	a2,s10
80005d88:	000d8693          	mv	a3,s11
80005d8c:	f8a42423          	sw	a0,-120(s0)
80005d90:	f8b42623          	sw	a1,-116(s0)
80005d94:	00090513          	mv	a0,s2
80005d98:	00098593          	mv	a1,s3
80005d9c:	7d5050ef          	jal	ra,8000bd70 <fma>
80005da0:	f5842703          	lw	a4,-168(s0)
80005da4:	f5c42783          	lw	a5,-164(s0)
80005da8:	f9042603          	lw	a2,-112(s0)
80005dac:	f9442683          	lw	a3,-108(s0)
80005db0:	f8a42023          	sw	a0,-128(s0)
80005db4:	f8b42223          	sw	a1,-124(s0)
80005db8:	00090513          	mv	a0,s2
80005dbc:	00098593          	mv	a1,s3
80005dc0:	7b1050ef          	jal	ra,8000bd70 <fma>
80005dc4:	f4b42e23          	sw	a1,-164(s0)
80005dc8:	fa042583          	lw	a1,-96(s0)
80005dcc:	f5042703          	lw	a4,-176(s0)
80005dd0:	f5442783          	lw	a5,-172(s0)
80005dd4:	0105a903          	lw	s2,16(a1)
80005dd8:	0145a983          	lw	s3,20(a1)
80005ddc:	000c0613          	mv	a2,s8
80005de0:	000c8693          	mv	a3,s9
80005de4:	f4a42c23          	sw	a0,-168(s0)
80005de8:	00098593          	mv	a1,s3
80005dec:	00090513          	mv	a0,s2
80005df0:	781050ef          	jal	ra,8000bd70 <fma>
80005df4:	f4842703          	lw	a4,-184(s0)
80005df8:	f4c42783          	lw	a5,-180(s0)
80005dfc:	000b0613          	mv	a2,s6
80005e00:	000b8693          	mv	a3,s7
80005e04:	f4a42823          	sw	a0,-176(s0)
80005e08:	f4b42a23          	sw	a1,-172(s0)
80005e0c:	00090513          	mv	a0,s2
80005e10:	00098593          	mv	a1,s3
80005e14:	75d050ef          	jal	ra,8000bd70 <fma>
80005e18:	f4042703          	lw	a4,-192(s0)
80005e1c:	f4442783          	lw	a5,-188(s0)
80005e20:	000a0613          	mv	a2,s4
80005e24:	000a8693          	mv	a3,s5
80005e28:	f4a42423          	sw	a0,-184(s0)
80005e2c:	f4b42623          	sw	a1,-180(s0)
80005e30:	00090513          	mv	a0,s2
80005e34:	00098593          	mv	a1,s3
80005e38:	739050ef          	jal	ra,8000bd70 <fma>
80005e3c:	f3842703          	lw	a4,-200(s0)
80005e40:	f3c42783          	lw	a5,-196(s0)
80005e44:	000d0613          	mv	a2,s10
80005e48:	000d8693          	mv	a3,s11
80005e4c:	f4a42023          	sw	a0,-192(s0)
80005e50:	f4b42223          	sw	a1,-188(s0)
80005e54:	00090513          	mv	a0,s2
80005e58:	00098593          	mv	a1,s3
80005e5c:	715050ef          	jal	ra,8000bd70 <fma>
80005e60:	f3042703          	lw	a4,-208(s0)
80005e64:	f3442783          	lw	a5,-204(s0)
80005e68:	f9042603          	lw	a2,-112(s0)
80005e6c:	f9442683          	lw	a3,-108(s0)
80005e70:	f2a42c23          	sw	a0,-200(s0)
80005e74:	f2b42e23          	sw	a1,-196(s0)
80005e78:	00090513          	mv	a0,s2
80005e7c:	00098593          	mv	a1,s3
80005e80:	6f1050ef          	jal	ra,8000bd70 <fma>
80005e84:	fa842303          	lw	t1,-88(s0)
80005e88:	f2842703          	lw	a4,-216(s0)
80005e8c:	f2c42783          	lw	a5,-212(s0)
80005e90:	01032903          	lw	s2,16(t1)
80005e94:	01432983          	lw	s3,20(t1)
80005e98:	000c0613          	mv	a2,s8
80005e9c:	000c8693          	mv	a3,s9
80005ea0:	f2a42823          	sw	a0,-208(s0)
80005ea4:	f2b42a23          	sw	a1,-204(s0)
80005ea8:	00090513          	mv	a0,s2
80005eac:	00098593          	mv	a1,s3
80005eb0:	6c1050ef          	jal	ra,8000bd70 <fma>
80005eb4:	f2042703          	lw	a4,-224(s0)
80005eb8:	f2442783          	lw	a5,-220(s0)
80005ebc:	000b0613          	mv	a2,s6
80005ec0:	000b8693          	mv	a3,s7
80005ec4:	f2a42423          	sw	a0,-216(s0)
80005ec8:	f2b42623          	sw	a1,-212(s0)
80005ecc:	00090513          	mv	a0,s2
80005ed0:	00098593          	mv	a1,s3
80005ed4:	69d050ef          	jal	ra,8000bd70 <fma>
80005ed8:	f1842703          	lw	a4,-232(s0)
80005edc:	f1c42783          	lw	a5,-228(s0)
80005ee0:	000a0613          	mv	a2,s4
80005ee4:	000a8693          	mv	a3,s5
80005ee8:	f2a42023          	sw	a0,-224(s0)
80005eec:	f2b42223          	sw	a1,-220(s0)
80005ef0:	00090513          	mv	a0,s2
80005ef4:	00098593          	mv	a1,s3
80005ef8:	679050ef          	jal	ra,8000bd70 <fma>
80005efc:	f1042703          	lw	a4,-240(s0)
80005f00:	f1442783          	lw	a5,-236(s0)
80005f04:	e7442e03          	lw	t3,-396(s0)
80005f08:	fb842483          	lw	s1,-72(s0)
80005f0c:	000d0613          	mv	a2,s10
80005f10:	000d8693          	mv	a3,s11
80005f14:	f0a42c23          	sw	a0,-232(s0)
80005f18:	f0b42e23          	sw	a1,-228(s0)
80005f1c:	00090513          	mv	a0,s2
80005f20:	00098593          	mv	a1,s3
80005f24:	01c484b3          	add	s1,s1,t3
80005f28:	649050ef          	jal	ra,8000bd70 <fma>
80005f2c:	ef442e83          	lw	t4,-268(s0)
80005f30:	ef042e03          	lw	t3,-272(s0)
80005f34:	f9042603          	lw	a2,-112(s0)
80005f38:	f9442683          	lw	a3,-108(s0)
80005f3c:	000e8793          	mv	a5,t4
80005f40:	000e0713          	mv	a4,t3
80005f44:	f0a42823          	sw	a0,-240(s0)
80005f48:	f0b42a23          	sw	a1,-236(s0)
80005f4c:	00090513          	mv	a0,s2
80005f50:	00098593          	mv	a1,s3
80005f54:	61d050ef          	jal	ra,8000bd70 <fma>
80005f58:	fb042783          	lw	a5,-80(s0)
80005f5c:	eea42823          	sw	a0,-272(s0)
80005f60:	eeb42a23          	sw	a1,-268(s0)
80005f64:	0187a903          	lw	s2,24(a5)
80005f68:	01c7a983          	lw	s3,28(a5)
80005f6c:	efc42883          	lw	a7,-260(s0)
80005f70:	ef842803          	lw	a6,-264(s0)
80005f74:	0004ac03          	lw	s8,0(s1)
80005f78:	0044ac83          	lw	s9,4(s1)
80005f7c:	00088793          	mv	a5,a7
80005f80:	00080713          	mv	a4,a6
80005f84:	000c0613          	mv	a2,s8
80005f88:	000c8693          	mv	a3,s9
80005f8c:	00090513          	mv	a0,s2
80005f90:	00098593          	mv	a1,s3
80005f94:	5dd050ef          	jal	ra,8000bd70 <fma>
80005f98:	f0442383          	lw	t2,-252(s0)
80005f9c:	f0042303          	lw	t1,-256(s0)
80005fa0:	0084ab03          	lw	s6,8(s1)
80005fa4:	00c4ab83          	lw	s7,12(s1)
80005fa8:	00038793          	mv	a5,t2
80005fac:	00030713          	mv	a4,t1
80005fb0:	000b0613          	mv	a2,s6
80005fb4:	000b8693          	mv	a3,s7
80005fb8:	eea42c23          	sw	a0,-264(s0)
80005fbc:	eeb42e23          	sw	a1,-260(s0)
80005fc0:	00090513          	mv	a0,s2
80005fc4:	00098593          	mv	a1,s3
80005fc8:	5a9050ef          	jal	ra,8000bd70 <fma>
80005fcc:	f0842f03          	lw	t5,-248(s0)
80005fd0:	f0c42f83          	lw	t6,-244(s0)
80005fd4:	0104aa03          	lw	s4,16(s1)
80005fd8:	0144aa83          	lw	s5,20(s1)
80005fdc:	000f0713          	mv	a4,t5
80005fe0:	000f8793          	mv	a5,t6
80005fe4:	000a0613          	mv	a2,s4
80005fe8:	000a8693          	mv	a3,s5
80005fec:	f0a42023          	sw	a0,-256(s0)
80005ff0:	f0b42223          	sw	a1,-252(s0)
80005ff4:	00090513          	mv	a0,s2
80005ff8:	00098593          	mv	a1,s3
80005ffc:	575050ef          	jal	ra,8000bd70 <fma>
80006000:	0184ad03          	lw	s10,24(s1)
80006004:	01c4ad83          	lw	s11,28(s1)
80006008:	f7842703          	lw	a4,-136(s0)
8000600c:	f7c42783          	lw	a5,-132(s0)
80006010:	000d0613          	mv	a2,s10
80006014:	000d8693          	mv	a3,s11
80006018:	f0a42423          	sw	a0,-248(s0)
8000601c:	f0b42623          	sw	a1,-244(s0)
80006020:	00090513          	mv	a0,s2
80006024:	00098593          	mv	a1,s3
80006028:	549050ef          	jal	ra,8000bd70 <fma>
8000602c:	0204a783          	lw	a5,32(s1)
80006030:	0244a803          	lw	a6,36(s1)
80006034:	f6842703          	lw	a4,-152(s0)
80006038:	00078613          	mv	a2,a5
8000603c:	f6c42783          	lw	a5,-148(s0)
80006040:	00080693          	mv	a3,a6
80006044:	f6a42c23          	sw	a0,-136(s0)
80006048:	f6b42e23          	sw	a1,-132(s0)
8000604c:	00090513          	mv	a0,s2
80006050:	00098593          	mv	a1,s3
80006054:	f9042a23          	sw	a6,-108(s0)
80006058:	f8c42823          	sw	a2,-112(s0)
8000605c:	515050ef          	jal	ra,8000bd70 <fma>
80006060:	f9842683          	lw	a3,-104(s0)
80006064:	f6042703          	lw	a4,-160(s0)
80006068:	f6a42423          	sw	a0,-152(s0)
8000606c:	0186a903          	lw	s2,24(a3)
80006070:	01c6a983          	lw	s3,28(a3)
80006074:	f6b42623          	sw	a1,-148(s0)
80006078:	f6442783          	lw	a5,-156(s0)
8000607c:	000c0613          	mv	a2,s8
80006080:	000c8693          	mv	a3,s9
80006084:	00090513          	mv	a0,s2
80006088:	00098593          	mv	a1,s3
8000608c:	4e5050ef          	jal	ra,8000bd70 <fma>
80006090:	f7042703          	lw	a4,-144(s0)
80006094:	f7442783          	lw	a5,-140(s0)
80006098:	000b0613          	mv	a2,s6
8000609c:	000b8693          	mv	a3,s7
800060a0:	f6a42023          	sw	a0,-160(s0)
800060a4:	f6b42223          	sw	a1,-156(s0)
800060a8:	00090513          	mv	a0,s2
800060ac:	00098593          	mv	a1,s3
800060b0:	4c1050ef          	jal	ra,8000bd70 <fma>
800060b4:	f8842703          	lw	a4,-120(s0)
800060b8:	f8c42783          	lw	a5,-116(s0)
800060bc:	000a0613          	mv	a2,s4
800060c0:	000a8693          	mv	a3,s5
800060c4:	f6a42823          	sw	a0,-144(s0)
800060c8:	f6b42a23          	sw	a1,-140(s0)
800060cc:	00090513          	mv	a0,s2
800060d0:	00098593          	mv	a1,s3
800060d4:	49d050ef          	jal	ra,8000bd70 <fma>
800060d8:	f8042703          	lw	a4,-128(s0)
800060dc:	f8442783          	lw	a5,-124(s0)
800060e0:	000d0613          	mv	a2,s10
800060e4:	000d8693          	mv	a3,s11
800060e8:	f8a42423          	sw	a0,-120(s0)
800060ec:	f8b42623          	sw	a1,-116(s0)
800060f0:	00090513          	mv	a0,s2
800060f4:	00098593          	mv	a1,s3
800060f8:	479050ef          	jal	ra,8000bd70 <fma>
800060fc:	f5842703          	lw	a4,-168(s0)
80006100:	f5c42783          	lw	a5,-164(s0)
80006104:	f9042603          	lw	a2,-112(s0)
80006108:	f9442683          	lw	a3,-108(s0)
8000610c:	f8a42023          	sw	a0,-128(s0)
80006110:	f8b42223          	sw	a1,-124(s0)
80006114:	00090513          	mv	a0,s2
80006118:	00098593          	mv	a1,s3
8000611c:	455050ef          	jal	ra,8000bd70 <fma>
80006120:	f4b42e23          	sw	a1,-164(s0)
80006124:	fa042583          	lw	a1,-96(s0)
80006128:	f5042703          	lw	a4,-176(s0)
8000612c:	f5442783          	lw	a5,-172(s0)
80006130:	0185a903          	lw	s2,24(a1)
80006134:	01c5a983          	lw	s3,28(a1)
80006138:	000c0613          	mv	a2,s8
8000613c:	000c8693          	mv	a3,s9
80006140:	f4a42c23          	sw	a0,-168(s0)
80006144:	00098593          	mv	a1,s3
80006148:	00090513          	mv	a0,s2
8000614c:	425050ef          	jal	ra,8000bd70 <fma>
80006150:	f4842703          	lw	a4,-184(s0)
80006154:	f4c42783          	lw	a5,-180(s0)
80006158:	000b0613          	mv	a2,s6
8000615c:	000b8693          	mv	a3,s7
80006160:	f4a42823          	sw	a0,-176(s0)
80006164:	f4b42a23          	sw	a1,-172(s0)
80006168:	00090513          	mv	a0,s2
8000616c:	00098593          	mv	a1,s3
80006170:	401050ef          	jal	ra,8000bd70 <fma>
80006174:	f4042703          	lw	a4,-192(s0)
80006178:	f4442783          	lw	a5,-188(s0)
8000617c:	000a0613          	mv	a2,s4
80006180:	000a8693          	mv	a3,s5
80006184:	f4a42423          	sw	a0,-184(s0)
80006188:	f4b42623          	sw	a1,-180(s0)
8000618c:	00090513          	mv	a0,s2
80006190:	00098593          	mv	a1,s3
80006194:	3dd050ef          	jal	ra,8000bd70 <fma>
80006198:	f3842703          	lw	a4,-200(s0)
8000619c:	f3c42783          	lw	a5,-196(s0)
800061a0:	000d0613          	mv	a2,s10
800061a4:	000d8693          	mv	a3,s11
800061a8:	f4a42023          	sw	a0,-192(s0)
800061ac:	f4b42223          	sw	a1,-188(s0)
800061b0:	00090513          	mv	a0,s2
800061b4:	00098593          	mv	a1,s3
800061b8:	3b9050ef          	jal	ra,8000bd70 <fma>
800061bc:	f3042703          	lw	a4,-208(s0)
800061c0:	f3442783          	lw	a5,-204(s0)
800061c4:	f9042603          	lw	a2,-112(s0)
800061c8:	f9442683          	lw	a3,-108(s0)
800061cc:	f2a42c23          	sw	a0,-200(s0)
800061d0:	f2b42e23          	sw	a1,-196(s0)
800061d4:	00090513          	mv	a0,s2
800061d8:	00098593          	mv	a1,s3
800061dc:	395050ef          	jal	ra,8000bd70 <fma>
800061e0:	fa842303          	lw	t1,-88(s0)
800061e4:	f2842703          	lw	a4,-216(s0)
800061e8:	f2c42783          	lw	a5,-212(s0)
800061ec:	01832903          	lw	s2,24(t1)
800061f0:	01c32983          	lw	s3,28(t1)
800061f4:	000c0613          	mv	a2,s8
800061f8:	000c8693          	mv	a3,s9
800061fc:	f2a42823          	sw	a0,-208(s0)
80006200:	f2b42a23          	sw	a1,-204(s0)
80006204:	00090513          	mv	a0,s2
80006208:	00098593          	mv	a1,s3
8000620c:	365050ef          	jal	ra,8000bd70 <fma>
80006210:	f2042703          	lw	a4,-224(s0)
80006214:	f2442783          	lw	a5,-220(s0)
80006218:	000b0613          	mv	a2,s6
8000621c:	000b8693          	mv	a3,s7
80006220:	f2a42423          	sw	a0,-216(s0)
80006224:	f2b42623          	sw	a1,-212(s0)
80006228:	00090513          	mv	a0,s2
8000622c:	00098593          	mv	a1,s3
80006230:	341050ef          	jal	ra,8000bd70 <fma>
80006234:	f1842703          	lw	a4,-232(s0)
80006238:	f1c42783          	lw	a5,-228(s0)
8000623c:	000a0613          	mv	a2,s4
80006240:	000a8693          	mv	a3,s5
80006244:	f2a42023          	sw	a0,-224(s0)
80006248:	f2b42223          	sw	a1,-220(s0)
8000624c:	00090513          	mv	a0,s2
80006250:	00098593          	mv	a1,s3
80006254:	31d050ef          	jal	ra,8000bd70 <fma>
80006258:	fb842803          	lw	a6,-72(s0)
8000625c:	f1042703          	lw	a4,-240(s0)
80006260:	f1442783          	lw	a5,-236(s0)
80006264:	e7842e03          	lw	t3,-392(s0)
80006268:	000d0613          	mv	a2,s10
8000626c:	000d8693          	mv	a3,s11
80006270:	f0a42c23          	sw	a0,-232(s0)
80006274:	f0b42e23          	sw	a1,-228(s0)
80006278:	00090513          	mv	a0,s2
8000627c:	00098593          	mv	a1,s3
80006280:	010e04b3          	add	s1,t3,a6
80006284:	2ed050ef          	jal	ra,8000bd70 <fma>
80006288:	ef442e83          	lw	t4,-268(s0)
8000628c:	ef042e03          	lw	t3,-272(s0)
80006290:	f9042603          	lw	a2,-112(s0)
80006294:	f9442683          	lw	a3,-108(s0)
80006298:	000e8793          	mv	a5,t4
8000629c:	000e0713          	mv	a4,t3
800062a0:	f0a42823          	sw	a0,-240(s0)
800062a4:	f0b42a23          	sw	a1,-236(s0)
800062a8:	00090513          	mv	a0,s2
800062ac:	00098593          	mv	a1,s3
800062b0:	2c1050ef          	jal	ra,8000bd70 <fma>
800062b4:	fb042783          	lw	a5,-80(s0)
800062b8:	e8a42c23          	sw	a0,-360(s0)
800062bc:	e8b42e23          	sw	a1,-356(s0)
800062c0:	0207a903          	lw	s2,32(a5)
800062c4:	0247a983          	lw	s3,36(a5)
800062c8:	efc42883          	lw	a7,-260(s0)
800062cc:	0004ac03          	lw	s8,0(s1)
800062d0:	0044ac83          	lw	s9,4(s1)
800062d4:	ef842803          	lw	a6,-264(s0)
800062d8:	00088793          	mv	a5,a7
800062dc:	000c0613          	mv	a2,s8
800062e0:	00080713          	mv	a4,a6
800062e4:	000c8693          	mv	a3,s9
800062e8:	00090513          	mv	a0,s2
800062ec:	00098593          	mv	a1,s3
800062f0:	281050ef          	jal	ra,8000bd70 <fma>
800062f4:	f0442383          	lw	t2,-252(s0)
800062f8:	f0042303          	lw	t1,-256(s0)
800062fc:	0084ab03          	lw	s6,8(s1)
80006300:	00c4ab83          	lw	s7,12(s1)
80006304:	00038793          	mv	a5,t2
80006308:	00030713          	mv	a4,t1
8000630c:	000b0613          	mv	a2,s6
80006310:	000b8693          	mv	a3,s7
80006314:	eaa42023          	sw	a0,-352(s0)
80006318:	eab42223          	sw	a1,-348(s0)
8000631c:	00090513          	mv	a0,s2
80006320:	00098593          	mv	a1,s3
80006324:	24d050ef          	jal	ra,8000bd70 <fma>
80006328:	f0842f03          	lw	t5,-248(s0)
8000632c:	f0c42f83          	lw	t6,-244(s0)
80006330:	0104aa03          	lw	s4,16(s1)
80006334:	0144aa83          	lw	s5,20(s1)
80006338:	000f0713          	mv	a4,t5
8000633c:	000f8793          	mv	a5,t6
80006340:	000a0613          	mv	a2,s4
80006344:	000a8693          	mv	a3,s5
80006348:	e8a42423          	sw	a0,-376(s0)
8000634c:	e8b42623          	sw	a1,-372(s0)
80006350:	00090513          	mv	a0,s2
80006354:	00098593          	mv	a1,s3
80006358:	219050ef          	jal	ra,8000bd70 <fma>
8000635c:	0184ad03          	lw	s10,24(s1)
80006360:	01c4ad83          	lw	s11,28(s1)
80006364:	f7842703          	lw	a4,-136(s0)
80006368:	f7c42783          	lw	a5,-132(s0)
8000636c:	000d0613          	mv	a2,s10
80006370:	000d8693          	mv	a3,s11
80006374:	f0a42023          	sw	a0,-256(s0)
80006378:	f0b42223          	sw	a1,-252(s0)
8000637c:	00090513          	mv	a0,s2
80006380:	00098593          	mv	a1,s3
80006384:	1ed050ef          	jal	ra,8000bd70 <fma>
80006388:	0204a783          	lw	a5,32(s1)
8000638c:	0244a803          	lw	a6,36(s1)
80006390:	f6842703          	lw	a4,-152(s0)
80006394:	00078613          	mv	a2,a5
80006398:	f6c42783          	lw	a5,-148(s0)
8000639c:	00080693          	mv	a3,a6
800063a0:	f6a42c23          	sw	a0,-136(s0)
800063a4:	f6b42e23          	sw	a1,-132(s0)
800063a8:	00090513          	mv	a0,s2
800063ac:	00098593          	mv	a1,s3
800063b0:	f9042a23          	sw	a6,-108(s0)
800063b4:	f8c42823          	sw	a2,-112(s0)
800063b8:	1b9050ef          	jal	ra,8000bd70 <fma>
800063bc:	f9842683          	lw	a3,-104(s0)
800063c0:	f6042703          	lw	a4,-160(s0)
800063c4:	f0a42423          	sw	a0,-248(s0)
800063c8:	0206a903          	lw	s2,32(a3)
800063cc:	0246a983          	lw	s3,36(a3)
800063d0:	f0b42623          	sw	a1,-244(s0)
800063d4:	f6442783          	lw	a5,-156(s0)
800063d8:	000c0613          	mv	a2,s8
800063dc:	000c8693          	mv	a3,s9
800063e0:	00090513          	mv	a0,s2
800063e4:	00098593          	mv	a1,s3
800063e8:	189050ef          	jal	ra,8000bd70 <fma>
800063ec:	f7042703          	lw	a4,-144(s0)
800063f0:	f7442783          	lw	a5,-140(s0)
800063f4:	000b0613          	mv	a2,s6
800063f8:	000b8693          	mv	a3,s7
800063fc:	eea42c23          	sw	a0,-264(s0)
80006400:	eeb42e23          	sw	a1,-260(s0)
80006404:	00090513          	mv	a0,s2
80006408:	00098593          	mv	a1,s3
8000640c:	165050ef          	jal	ra,8000bd70 <fma>
80006410:	f8842703          	lw	a4,-120(s0)
80006414:	f8c42783          	lw	a5,-116(s0)
80006418:	000a0613          	mv	a2,s4
8000641c:	000a8693          	mv	a3,s5
80006420:	f6a42823          	sw	a0,-144(s0)
80006424:	f6b42a23          	sw	a1,-140(s0)
80006428:	00090513          	mv	a0,s2
8000642c:	00098593          	mv	a1,s3
80006430:	141050ef          	jal	ra,8000bd70 <fma>
80006434:	f8042703          	lw	a4,-128(s0)
80006438:	f8442783          	lw	a5,-124(s0)
8000643c:	000d0613          	mv	a2,s10
80006440:	000d8693          	mv	a3,s11
80006444:	f8a42423          	sw	a0,-120(s0)
80006448:	f8b42623          	sw	a1,-116(s0)
8000644c:	00090513          	mv	a0,s2
80006450:	00098593          	mv	a1,s3
80006454:	11d050ef          	jal	ra,8000bd70 <fma>
80006458:	f5842703          	lw	a4,-168(s0)
8000645c:	f5c42783          	lw	a5,-164(s0)
80006460:	f9042603          	lw	a2,-112(s0)
80006464:	f9442683          	lw	a3,-108(s0)
80006468:	f8a42023          	sw	a0,-128(s0)
8000646c:	f8b42223          	sw	a1,-124(s0)
80006470:	00090513          	mv	a0,s2
80006474:	00098593          	mv	a1,s3
80006478:	0f9050ef          	jal	ra,8000bd70 <fma>
8000647c:	eeb42a23          	sw	a1,-268(s0)
80006480:	fa042583          	lw	a1,-96(s0)
80006484:	f5042703          	lw	a4,-176(s0)
80006488:	f5442783          	lw	a5,-172(s0)
8000648c:	0205a903          	lw	s2,32(a1)
80006490:	0245a983          	lw	s3,36(a1)
80006494:	000c0613          	mv	a2,s8
80006498:	000c8693          	mv	a3,s9
8000649c:	eea42823          	sw	a0,-272(s0)
800064a0:	00098593          	mv	a1,s3
800064a4:	00090513          	mv	a0,s2
800064a8:	0c9050ef          	jal	ra,8000bd70 <fma>
800064ac:	f4842703          	lw	a4,-184(s0)
800064b0:	f4c42783          	lw	a5,-180(s0)
800064b4:	000b0613          	mv	a2,s6
800064b8:	000b8693          	mv	a3,s7
800064bc:	eea42423          	sw	a0,-280(s0)
800064c0:	eeb42623          	sw	a1,-276(s0)
800064c4:	00090513          	mv	a0,s2
800064c8:	00098593          	mv	a1,s3
800064cc:	0a5050ef          	jal	ra,8000bd70 <fma>
800064d0:	f4042703          	lw	a4,-192(s0)
800064d4:	f4442783          	lw	a5,-188(s0)
800064d8:	000a0613          	mv	a2,s4
800064dc:	000a8693          	mv	a3,s5
800064e0:	eea42023          	sw	a0,-288(s0)
800064e4:	eeb42223          	sw	a1,-284(s0)
800064e8:	00090513          	mv	a0,s2
800064ec:	00098593          	mv	a1,s3
800064f0:	081050ef          	jal	ra,8000bd70 <fma>
800064f4:	f3842703          	lw	a4,-200(s0)
800064f8:	f3c42783          	lw	a5,-196(s0)
800064fc:	000d0613          	mv	a2,s10
80006500:	000d8693          	mv	a3,s11
80006504:	eca42c23          	sw	a0,-296(s0)
80006508:	ecb42e23          	sw	a1,-292(s0)
8000650c:	00090513          	mv	a0,s2
80006510:	00098593          	mv	a1,s3
80006514:	05d050ef          	jal	ra,8000bd70 <fma>
80006518:	f3042703          	lw	a4,-208(s0)
8000651c:	f3442783          	lw	a5,-204(s0)
80006520:	f9042603          	lw	a2,-112(s0)
80006524:	f9442683          	lw	a3,-108(s0)
80006528:	eca42823          	sw	a0,-304(s0)
8000652c:	ecb42a23          	sw	a1,-300(s0)
80006530:	00090513          	mv	a0,s2
80006534:	00098593          	mv	a1,s3
80006538:	039050ef          	jal	ra,8000bd70 <fma>
8000653c:	fa842303          	lw	t1,-88(s0)
80006540:	f2842703          	lw	a4,-216(s0)
80006544:	f2c42783          	lw	a5,-212(s0)
80006548:	02032903          	lw	s2,32(t1)
8000654c:	02432983          	lw	s3,36(t1)
80006550:	000c0613          	mv	a2,s8
80006554:	000c8693          	mv	a3,s9
80006558:	eca42423          	sw	a0,-312(s0)
8000655c:	ecb42623          	sw	a1,-308(s0)
80006560:	00090513          	mv	a0,s2
80006564:	00098593          	mv	a1,s3
80006568:	009050ef          	jal	ra,8000bd70 <fma>
8000656c:	f2042703          	lw	a4,-224(s0)
80006570:	f2442783          	lw	a5,-220(s0)
80006574:	000b0613          	mv	a2,s6
80006578:	000b8693          	mv	a3,s7
8000657c:	eca42023          	sw	a0,-320(s0)
80006580:	ecb42223          	sw	a1,-316(s0)
80006584:	00090513          	mv	a0,s2
80006588:	00098593          	mv	a1,s3
8000658c:	7e4050ef          	jal	ra,8000bd70 <fma>
80006590:	f1842703          	lw	a4,-232(s0)
80006594:	f1c42783          	lw	a5,-228(s0)
80006598:	000a0613          	mv	a2,s4
8000659c:	000a8693          	mv	a3,s5
800065a0:	eaa42c23          	sw	a0,-328(s0)
800065a4:	eab42e23          	sw	a1,-324(s0)
800065a8:	00090513          	mv	a0,s2
800065ac:	00098593          	mv	a1,s3
800065b0:	7c0050ef          	jal	ra,8000bd70 <fma>
800065b4:	fb842803          	lw	a6,-72(s0)
800065b8:	e7042e03          	lw	t3,-400(s0)
800065bc:	f1042703          	lw	a4,-240(s0)
800065c0:	f1442783          	lw	a5,-236(s0)
800065c4:	000d0613          	mv	a2,s10
800065c8:	000d8693          	mv	a3,s11
800065cc:	eaa42823          	sw	a0,-336(s0)
800065d0:	eab42a23          	sw	a1,-332(s0)
800065d4:	00090513          	mv	a0,s2
800065d8:	00098593          	mv	a1,s3
800065dc:	01c804b3          	add	s1,a6,t3
800065e0:	790050ef          	jal	ra,8000bd70 <fma>
800065e4:	e9842e03          	lw	t3,-360(s0)
800065e8:	e9c42e83          	lw	t4,-356(s0)
800065ec:	f9042603          	lw	a2,-112(s0)
800065f0:	f9442683          	lw	a3,-108(s0)
800065f4:	000e0713          	mv	a4,t3
800065f8:	000e8793          	mv	a5,t4
800065fc:	eaa42423          	sw	a0,-344(s0)
80006600:	eab42623          	sw	a1,-340(s0)
80006604:	00090513          	mv	a0,s2
80006608:	00098593          	mv	a1,s3
8000660c:	764050ef          	jal	ra,8000bd70 <fma>
80006610:	fb042783          	lw	a5,-80(s0)
80006614:	e8a42c23          	sw	a0,-360(s0)
80006618:	e8b42e23          	sw	a1,-356(s0)
8000661c:	0287a903          	lw	s2,40(a5)
80006620:	02c7a983          	lw	s3,44(a5)
80006624:	ea442883          	lw	a7,-348(s0)
80006628:	ea042803          	lw	a6,-352(s0)
8000662c:	0004ac03          	lw	s8,0(s1)
80006630:	0044ac83          	lw	s9,4(s1)
80006634:	00088793          	mv	a5,a7
80006638:	00080713          	mv	a4,a6
8000663c:	00090513          	mv	a0,s2
80006640:	00098593          	mv	a1,s3
80006644:	000c0613          	mv	a2,s8
80006648:	000c8693          	mv	a3,s9
8000664c:	724050ef          	jal	ra,8000bd70 <fma>
80006650:	e8c42383          	lw	t2,-372(s0)
80006654:	e8842303          	lw	t1,-376(s0)
80006658:	0084ab03          	lw	s6,8(s1)
8000665c:	00c4ab83          	lw	s7,12(s1)
80006660:	00038793          	mv	a5,t2
80006664:	00030713          	mv	a4,t1
80006668:	eaa42023          	sw	a0,-352(s0)
8000666c:	eab42223          	sw	a1,-348(s0)
80006670:	00090513          	mv	a0,s2
80006674:	00098593          	mv	a1,s3
80006678:	000b0613          	mv	a2,s6
8000667c:	000b8693          	mv	a3,s7
80006680:	6f0050ef          	jal	ra,8000bd70 <fma>
80006684:	f0042f03          	lw	t5,-256(s0)
80006688:	f0442f83          	lw	t6,-252(s0)
8000668c:	0104aa03          	lw	s4,16(s1)
80006690:	0144aa83          	lw	s5,20(s1)
80006694:	000f0713          	mv	a4,t5
80006698:	000f8793          	mv	a5,t6
8000669c:	f6a42423          	sw	a0,-152(s0)
800066a0:	f6b42623          	sw	a1,-148(s0)
800066a4:	00090513          	mv	a0,s2
800066a8:	00098593          	mv	a1,s3
800066ac:	000a0613          	mv	a2,s4
800066b0:	000a8693          	mv	a3,s5
800066b4:	6bc050ef          	jal	ra,8000bd70 <fma>
800066b8:	0184ad03          	lw	s10,24(s1)
800066bc:	01c4ad83          	lw	s11,28(s1)
800066c0:	f7842703          	lw	a4,-136(s0)
800066c4:	f7c42783          	lw	a5,-132(s0)
800066c8:	f8a42823          	sw	a0,-112(s0)
800066cc:	f8b42a23          	sw	a1,-108(s0)
800066d0:	00090513          	mv	a0,s2
800066d4:	00098593          	mv	a1,s3
800066d8:	000d0613          	mv	a2,s10
800066dc:	000d8693          	mv	a3,s11
800066e0:	690050ef          	jal	ra,8000bd70 <fma>
800066e4:	0204a783          	lw	a5,32(s1)
800066e8:	0244a803          	lw	a6,36(s1)
800066ec:	f0842703          	lw	a4,-248(s0)
800066f0:	00078613          	mv	a2,a5
800066f4:	f0c42783          	lw	a5,-244(s0)
800066f8:	00080693          	mv	a3,a6
800066fc:	f6a42c23          	sw	a0,-136(s0)
80006700:	f6b42e23          	sw	a1,-132(s0)
80006704:	00090513          	mv	a0,s2
80006708:	00098593          	mv	a1,s3
8000670c:	f1042223          	sw	a6,-252(s0)
80006710:	f0c42023          	sw	a2,-256(s0)
80006714:	65c050ef          	jal	ra,8000bd70 <fma>
80006718:	f9842483          	lw	s1,-104(s0)
8000671c:	ef842703          	lw	a4,-264(s0)
80006720:	f6a42023          	sw	a0,-160(s0)
80006724:	0284a903          	lw	s2,40(s1)
80006728:	02c4a983          	lw	s3,44(s1)
8000672c:	f6b42223          	sw	a1,-156(s0)
80006730:	efc42783          	lw	a5,-260(s0)
80006734:	000c0613          	mv	a2,s8
80006738:	000c8693          	mv	a3,s9
8000673c:	00090513          	mv	a0,s2
80006740:	00098593          	mv	a1,s3
80006744:	62c050ef          	jal	ra,8000bd70 <fma>
80006748:	f7042703          	lw	a4,-144(s0)
8000674c:	f7442783          	lw	a5,-140(s0)
80006750:	f4a42c23          	sw	a0,-168(s0)
80006754:	f4b42e23          	sw	a1,-164(s0)
80006758:	000b0613          	mv	a2,s6
8000675c:	000b8693          	mv	a3,s7
80006760:	00090513          	mv	a0,s2
80006764:	00098593          	mv	a1,s3
80006768:	608050ef          	jal	ra,8000bd70 <fma>
8000676c:	f8842703          	lw	a4,-120(s0)
80006770:	f8c42783          	lw	a5,-116(s0)
80006774:	f6a42823          	sw	a0,-144(s0)
80006778:	f6b42a23          	sw	a1,-140(s0)
8000677c:	000a0613          	mv	a2,s4
80006780:	000a8693          	mv	a3,s5
80006784:	00090513          	mv	a0,s2
80006788:	00098593          	mv	a1,s3
8000678c:	5e4050ef          	jal	ra,8000bd70 <fma>
80006790:	f8042703          	lw	a4,-128(s0)
80006794:	f8442783          	lw	a5,-124(s0)
80006798:	f8a42423          	sw	a0,-120(s0)
8000679c:	f8b42623          	sw	a1,-116(s0)
800067a0:	000d0613          	mv	a2,s10
800067a4:	000d8693          	mv	a3,s11
800067a8:	00090513          	mv	a0,s2
800067ac:	00098593          	mv	a1,s3
800067b0:	5c0050ef          	jal	ra,8000bd70 <fma>
800067b4:	ef042703          	lw	a4,-272(s0)
800067b8:	ef442783          	lw	a5,-268(s0)
800067bc:	f0042603          	lw	a2,-256(s0)
800067c0:	f0442683          	lw	a3,-252(s0)
800067c4:	f8a42023          	sw	a0,-128(s0)
800067c8:	f8b42223          	sw	a1,-124(s0)
800067cc:	00090513          	mv	a0,s2
800067d0:	00098593          	mv	a1,s3
800067d4:	59c050ef          	jal	ra,8000bd70 <fma>
800067d8:	f4b42a23          	sw	a1,-172(s0)
800067dc:	fa042583          	lw	a1,-96(s0)
800067e0:	ee842703          	lw	a4,-280(s0)
800067e4:	eec42783          	lw	a5,-276(s0)
800067e8:	0285a903          	lw	s2,40(a1)
800067ec:	02c5a983          	lw	s3,44(a1)
800067f0:	f4a42823          	sw	a0,-176(s0)
800067f4:	000c0613          	mv	a2,s8
800067f8:	000c8693          	mv	a3,s9
800067fc:	00090513          	mv	a0,s2
80006800:	00098593          	mv	a1,s3
80006804:	56c050ef          	jal	ra,8000bd70 <fma>
80006808:	ee042703          	lw	a4,-288(s0)
8000680c:	ee442783          	lw	a5,-284(s0)
80006810:	f4a42423          	sw	a0,-184(s0)
80006814:	f4b42623          	sw	a1,-180(s0)
80006818:	000b0613          	mv	a2,s6
8000681c:	000b8693          	mv	a3,s7
80006820:	00090513          	mv	a0,s2
80006824:	00098593          	mv	a1,s3
80006828:	548050ef          	jal	ra,8000bd70 <fma>
8000682c:	ed842703          	lw	a4,-296(s0)
80006830:	edc42783          	lw	a5,-292(s0)
80006834:	f4a42023          	sw	a0,-192(s0)
80006838:	f4b42223          	sw	a1,-188(s0)
8000683c:	000a0613          	mv	a2,s4
80006840:	000a8693          	mv	a3,s5
80006844:	00090513          	mv	a0,s2
80006848:	00098593          	mv	a1,s3
8000684c:	524050ef          	jal	ra,8000bd70 <fma>
80006850:	ed042703          	lw	a4,-304(s0)
80006854:	ed442783          	lw	a5,-300(s0)
80006858:	f2a42c23          	sw	a0,-200(s0)
8000685c:	f2b42e23          	sw	a1,-196(s0)
80006860:	000d0613          	mv	a2,s10
80006864:	000d8693          	mv	a3,s11
80006868:	00090513          	mv	a0,s2
8000686c:	00098593          	mv	a1,s3
80006870:	500050ef          	jal	ra,8000bd70 <fma>
80006874:	ec842703          	lw	a4,-312(s0)
80006878:	ecc42783          	lw	a5,-308(s0)
8000687c:	f0042603          	lw	a2,-256(s0)
80006880:	f0442683          	lw	a3,-252(s0)
80006884:	f2a42823          	sw	a0,-208(s0)
80006888:	f2b42a23          	sw	a1,-204(s0)
8000688c:	00090513          	mv	a0,s2
80006890:	00098593          	mv	a1,s3
80006894:	4dc050ef          	jal	ra,8000bd70 <fma>
80006898:	fa842303          	lw	t1,-88(s0)
8000689c:	ec042703          	lw	a4,-320(s0)
800068a0:	ec442783          	lw	a5,-316(s0)
800068a4:	02832903          	lw	s2,40(t1)
800068a8:	02c32983          	lw	s3,44(t1)
800068ac:	f2a42423          	sw	a0,-216(s0)
800068b0:	f2b42623          	sw	a1,-212(s0)
800068b4:	000c0613          	mv	a2,s8
800068b8:	000c8693          	mv	a3,s9
800068bc:	00090513          	mv	a0,s2
800068c0:	00098593          	mv	a1,s3
800068c4:	4ac050ef          	jal	ra,8000bd70 <fma>
800068c8:	eb842703          	lw	a4,-328(s0)
800068cc:	ebc42783          	lw	a5,-324(s0)
800068d0:	f2a42023          	sw	a0,-224(s0)
800068d4:	f2b42223          	sw	a1,-220(s0)
800068d8:	000b0613          	mv	a2,s6
800068dc:	000b8693          	mv	a3,s7
800068e0:	00090513          	mv	a0,s2
800068e4:	00098593          	mv	a1,s3
800068e8:	488050ef          	jal	ra,8000bd70 <fma>
800068ec:	eb042703          	lw	a4,-336(s0)
800068f0:	eb442783          	lw	a5,-332(s0)
800068f4:	f0a42c23          	sw	a0,-232(s0)
800068f8:	f0b42e23          	sw	a1,-228(s0)
800068fc:	000a0613          	mv	a2,s4
80006900:	000a8693          	mv	a3,s5
80006904:	00090513          	mv	a0,s2
80006908:	00098593          	mv	a1,s3
8000690c:	464050ef          	jal	ra,8000bd70 <fma>
80006910:	ea842703          	lw	a4,-344(s0)
80006914:	eac42783          	lw	a5,-340(s0)
80006918:	f0a42823          	sw	a0,-240(s0)
8000691c:	f0b42a23          	sw	a1,-236(s0)
80006920:	000d0613          	mv	a2,s10
80006924:	000d8693          	mv	a3,s11
80006928:	00090513          	mv	a0,s2
8000692c:	00098593          	mv	a1,s3
80006930:	440050ef          	jal	ra,8000bd70 <fma>
80006934:	fb042883          	lw	a7,-80(s0)
80006938:	e9842e03          	lw	t3,-360(s0)
8000693c:	e9c42e83          	lw	t4,-356(s0)
80006940:	f0042603          	lw	a2,-256(s0)
80006944:	f0442683          	lw	a3,-252(s0)
80006948:	000e8793          	mv	a5,t4
8000694c:	f0a42423          	sw	a0,-248(s0)
80006950:	f0b42623          	sw	a1,-244(s0)
80006954:	000e0713          	mv	a4,t3
80006958:	00090513          	mv	a0,s2
8000695c:	00098593          	mv	a1,s3
80006960:	03088913          	addi	s2,a7,48
80006964:	fb242823          	sw	s2,-80(s0)
80006968:	408050ef          	jal	ra,8000bd70 <fma>
8000696c:	fb842803          	lw	a6,-72(s0)
80006970:	e9042783          	lw	a5,-368(s0)
80006974:	00058e93          	mv	t4,a1
80006978:	fa042583          	lw	a1,-96(s0)
8000697c:	00f807b3          	add	a5,a6,a5
80006980:	faf42c23          	sw	a5,-72(s0)
80006984:	03048793          	addi	a5,s1,48
80006988:	f8f42c23          	sw	a5,-104(s0)
8000698c:	03058793          	addi	a5,a1,48
80006990:	faf42023          	sw	a5,-96(s0)
80006994:	fa842303          	lw	t1,-88(s0)
80006998:	00050e13          	mv	t3,a0
8000699c:	ea042803          	lw	a6,-352(s0)
800069a0:	03030793          	addi	a5,t1,48
800069a4:	faf42423          	sw	a5,-88(s0)
800069a8:	e8042783          	lw	a5,-384(s0)
800069ac:	ea442883          	lw	a7,-348(s0)
800069b0:	00f97463          	bleu	a5,s2,800069b8 <mm_cb+0x560c>
800069b4:	ba9fe06f          	j	8000555c <mm_cb+0x41b0>
800069b8:	e5042283          	lw	t0,-432(s0)
800069bc:	e2042783          	lw	a5,-480(s0)
800069c0:	e6042703          	lw	a4,-416(s0)
800069c4:	e8042303          	lw	t1,-384(s0)
800069c8:	00e784b3          	add	s1,a5,a4
800069cc:	e6842783          	lw	a5,-408(s0)
800069d0:	3cf37063          	bleu	a5,t1,80006d90 <mm_cb+0x59e4>
800069d4:	e1c42783          	lw	a5,-484(s0)
800069d8:	e5442703          	lw	a4,-428(s0)
800069dc:	ee542823          	sw	t0,-272(s0)
800069e0:	00e78733          	add	a4,a5,a4
800069e4:	fae42023          	sw	a4,-96(s0)
800069e8:	e5842703          	lw	a4,-424(s0)
800069ec:	00e78733          	add	a4,a5,a4
800069f0:	fae42423          	sw	a4,-88(s0)
800069f4:	e5c42703          	lw	a4,-420(s0)
800069f8:	00e787b3          	add	a5,a5,a4
800069fc:	faf42823          	sw	a5,-80(s0)
80006a00:	00032903          	lw	s2,0(t1)
80006a04:	00432983          	lw	s3,4(t1)
80006a08:	0004ac03          	lw	s8,0(s1)
80006a0c:	0044ac83          	lw	s9,4(s1)
80006a10:	00088793          	mv	a5,a7
80006a14:	00080713          	mv	a4,a6
80006a18:	00090513          	mv	a0,s2
80006a1c:	00098593          	mv	a1,s3
80006a20:	000c0613          	mv	a2,s8
80006a24:	000c8693          	mv	a3,s9
80006a28:	efc42c23          	sw	t3,-264(s0)
80006a2c:	efd42e23          	sw	t4,-260(s0)
80006a30:	f0642023          	sw	t1,-256(s0)
80006a34:	33c050ef          	jal	ra,8000bd70 <fma>
80006a38:	0084ab03          	lw	s6,8(s1)
80006a3c:	00c4ab83          	lw	s7,12(s1)
80006a40:	f6842703          	lw	a4,-152(s0)
80006a44:	f6c42783          	lw	a5,-148(s0)
80006a48:	f8a42c23          	sw	a0,-104(s0)
80006a4c:	f8b42e23          	sw	a1,-100(s0)
80006a50:	00090513          	mv	a0,s2
80006a54:	00098593          	mv	a1,s3
80006a58:	000b0613          	mv	a2,s6
80006a5c:	000b8693          	mv	a3,s7
80006a60:	310050ef          	jal	ra,8000bd70 <fma>
80006a64:	0104aa03          	lw	s4,16(s1)
80006a68:	0144aa83          	lw	s5,20(s1)
80006a6c:	f9042703          	lw	a4,-112(s0)
80006a70:	f9442783          	lw	a5,-108(s0)
80006a74:	f6a42423          	sw	a0,-152(s0)
80006a78:	f6b42623          	sw	a1,-148(s0)
80006a7c:	00090513          	mv	a0,s2
80006a80:	00098593          	mv	a1,s3
80006a84:	000a0613          	mv	a2,s4
80006a88:	000a8693          	mv	a3,s5
80006a8c:	2e4050ef          	jal	ra,8000bd70 <fma>
80006a90:	0184ad03          	lw	s10,24(s1)
80006a94:	01c4ad83          	lw	s11,28(s1)
80006a98:	f7842703          	lw	a4,-136(s0)
80006a9c:	f7c42783          	lw	a5,-132(s0)
80006aa0:	f8a42823          	sw	a0,-112(s0)
80006aa4:	f8b42a23          	sw	a1,-108(s0)
80006aa8:	00090513          	mv	a0,s2
80006aac:	00098593          	mv	a1,s3
80006ab0:	000d0613          	mv	a2,s10
80006ab4:	000d8693          	mv	a3,s11
80006ab8:	2b8050ef          	jal	ra,8000bd70 <fma>
80006abc:	0204a783          	lw	a5,32(s1)
80006ac0:	0244a803          	lw	a6,36(s1)
80006ac4:	f6042703          	lw	a4,-160(s0)
80006ac8:	00078613          	mv	a2,a5
80006acc:	f6442783          	lw	a5,-156(s0)
80006ad0:	00080693          	mv	a3,a6
80006ad4:	f6a42c23          	sw	a0,-136(s0)
80006ad8:	f6b42e23          	sw	a1,-132(s0)
80006adc:	00090513          	mv	a0,s2
80006ae0:	00098593          	mv	a1,s3
80006ae4:	fb042e23          	sw	a6,-68(s0)
80006ae8:	fac42c23          	sw	a2,-72(s0)
80006aec:	284050ef          	jal	ra,8000bd70 <fma>
80006af0:	fa042703          	lw	a4,-96(s0)
80006af4:	f5c42783          	lw	a5,-164(s0)
80006af8:	f6a42023          	sw	a0,-160(s0)
80006afc:	00072903          	lw	s2,0(a4)
80006b00:	00472983          	lw	s3,4(a4)
80006b04:	f5842703          	lw	a4,-168(s0)
80006b08:	f6b42223          	sw	a1,-156(s0)
80006b0c:	000c0613          	mv	a2,s8
80006b10:	000c8693          	mv	a3,s9
80006b14:	00090513          	mv	a0,s2
80006b18:	00098593          	mv	a1,s3
80006b1c:	254050ef          	jal	ra,8000bd70 <fma>
80006b20:	f7042703          	lw	a4,-144(s0)
80006b24:	f7442783          	lw	a5,-140(s0)
80006b28:	f4a42c23          	sw	a0,-168(s0)
80006b2c:	f4b42e23          	sw	a1,-164(s0)
80006b30:	000b0613          	mv	a2,s6
80006b34:	000b8693          	mv	a3,s7
80006b38:	00090513          	mv	a0,s2
80006b3c:	00098593          	mv	a1,s3
80006b40:	230050ef          	jal	ra,8000bd70 <fma>
80006b44:	f8842703          	lw	a4,-120(s0)
80006b48:	f8c42783          	lw	a5,-116(s0)
80006b4c:	f6a42823          	sw	a0,-144(s0)
80006b50:	f6b42a23          	sw	a1,-140(s0)
80006b54:	000a0613          	mv	a2,s4
80006b58:	000a8693          	mv	a3,s5
80006b5c:	00090513          	mv	a0,s2
80006b60:	00098593          	mv	a1,s3
80006b64:	20c050ef          	jal	ra,8000bd70 <fma>
80006b68:	f8042703          	lw	a4,-128(s0)
80006b6c:	f8442783          	lw	a5,-124(s0)
80006b70:	f8a42423          	sw	a0,-120(s0)
80006b74:	f8b42623          	sw	a1,-116(s0)
80006b78:	000d0613          	mv	a2,s10
80006b7c:	000d8693          	mv	a3,s11
80006b80:	00090513          	mv	a0,s2
80006b84:	00098593          	mv	a1,s3
80006b88:	1e8050ef          	jal	ra,8000bd70 <fma>
80006b8c:	f5042703          	lw	a4,-176(s0)
80006b90:	f5442783          	lw	a5,-172(s0)
80006b94:	fb842603          	lw	a2,-72(s0)
80006b98:	fbc42683          	lw	a3,-68(s0)
80006b9c:	f8a42023          	sw	a0,-128(s0)
80006ba0:	f8b42223          	sw	a1,-124(s0)
80006ba4:	00090513          	mv	a0,s2
80006ba8:	00098593          	mv	a1,s3
80006bac:	1c4050ef          	jal	ra,8000bd70 <fma>
80006bb0:	fa842683          	lw	a3,-88(s0)
80006bb4:	f4842703          	lw	a4,-184(s0)
80006bb8:	f4c42783          	lw	a5,-180(s0)
80006bbc:	0006a903          	lw	s2,0(a3)
80006bc0:	0046a983          	lw	s3,4(a3)
80006bc4:	f4a42823          	sw	a0,-176(s0)
80006bc8:	f4b42a23          	sw	a1,-172(s0)
80006bcc:	000c0613          	mv	a2,s8
80006bd0:	000c8693          	mv	a3,s9
80006bd4:	00090513          	mv	a0,s2
80006bd8:	00098593          	mv	a1,s3
80006bdc:	194050ef          	jal	ra,8000bd70 <fma>
80006be0:	f4042703          	lw	a4,-192(s0)
80006be4:	f4442783          	lw	a5,-188(s0)
80006be8:	f4a42423          	sw	a0,-184(s0)
80006bec:	f4b42623          	sw	a1,-180(s0)
80006bf0:	000b0613          	mv	a2,s6
80006bf4:	000b8693          	mv	a3,s7
80006bf8:	00090513          	mv	a0,s2
80006bfc:	00098593          	mv	a1,s3
80006c00:	170050ef          	jal	ra,8000bd70 <fma>
80006c04:	f3842703          	lw	a4,-200(s0)
80006c08:	f3c42783          	lw	a5,-196(s0)
80006c0c:	f4a42023          	sw	a0,-192(s0)
80006c10:	f4b42223          	sw	a1,-188(s0)
80006c14:	000a0613          	mv	a2,s4
80006c18:	000a8693          	mv	a3,s5
80006c1c:	00090513          	mv	a0,s2
80006c20:	00098593          	mv	a1,s3
80006c24:	14c050ef          	jal	ra,8000bd70 <fma>
80006c28:	f3442783          	lw	a5,-204(s0)
80006c2c:	f3042703          	lw	a4,-208(s0)
80006c30:	f2a42c23          	sw	a0,-200(s0)
80006c34:	f2b42e23          	sw	a1,-196(s0)
80006c38:	000d0613          	mv	a2,s10
80006c3c:	000d8693          	mv	a3,s11
80006c40:	00090513          	mv	a0,s2
80006c44:	00098593          	mv	a1,s3
80006c48:	128050ef          	jal	ra,8000bd70 <fma>
80006c4c:	f2a42823          	sw	a0,-208(s0)
80006c50:	f2b42a23          	sw	a1,-204(s0)
80006c54:	f2842703          	lw	a4,-216(s0)
80006c58:	f2c42783          	lw	a5,-212(s0)
80006c5c:	fb842603          	lw	a2,-72(s0)
80006c60:	fbc42683          	lw	a3,-68(s0)
80006c64:	00090513          	mv	a0,s2
80006c68:	00098593          	mv	a1,s3
80006c6c:	104050ef          	jal	ra,8000bd70 <fma>
80006c70:	f2b42623          	sw	a1,-212(s0)
80006c74:	fb042583          	lw	a1,-80(s0)
80006c78:	f2042703          	lw	a4,-224(s0)
80006c7c:	f2442783          	lw	a5,-220(s0)
80006c80:	0005a903          	lw	s2,0(a1)
80006c84:	0045a983          	lw	s3,4(a1)
80006c88:	f2a42423          	sw	a0,-216(s0)
80006c8c:	000c0613          	mv	a2,s8
80006c90:	000c8693          	mv	a3,s9
80006c94:	00090513          	mv	a0,s2
80006c98:	00098593          	mv	a1,s3
80006c9c:	0d4050ef          	jal	ra,8000bd70 <fma>
80006ca0:	f1842703          	lw	a4,-232(s0)
80006ca4:	f1c42783          	lw	a5,-228(s0)
80006ca8:	f2a42023          	sw	a0,-224(s0)
80006cac:	f2b42223          	sw	a1,-220(s0)
80006cb0:	000b0613          	mv	a2,s6
80006cb4:	000b8693          	mv	a3,s7
80006cb8:	00090513          	mv	a0,s2
80006cbc:	00098593          	mv	a1,s3
80006cc0:	0b0050ef          	jal	ra,8000bd70 <fma>
80006cc4:	f1042703          	lw	a4,-240(s0)
80006cc8:	f1442783          	lw	a5,-236(s0)
80006ccc:	f0a42c23          	sw	a0,-232(s0)
80006cd0:	f0b42e23          	sw	a1,-228(s0)
80006cd4:	000a0613          	mv	a2,s4
80006cd8:	000a8693          	mv	a3,s5
80006cdc:	00090513          	mv	a0,s2
80006ce0:	00098593          	mv	a1,s3
80006ce4:	08c050ef          	jal	ra,8000bd70 <fma>
80006ce8:	f0842703          	lw	a4,-248(s0)
80006cec:	f0c42783          	lw	a5,-244(s0)
80006cf0:	f0a42823          	sw	a0,-240(s0)
80006cf4:	f0b42a23          	sw	a1,-236(s0)
80006cf8:	000d0613          	mv	a2,s10
80006cfc:	000d8693          	mv	a3,s11
80006d00:	00090513          	mv	a0,s2
80006d04:	00098593          	mv	a1,s3
80006d08:	068050ef          	jal	ra,8000bd70 <fma>
80006d0c:	ef842e03          	lw	t3,-264(s0)
80006d10:	efc42e83          	lw	t4,-260(s0)
80006d14:	f0042303          	lw	t1,-256(s0)
80006d18:	fb842603          	lw	a2,-72(s0)
80006d1c:	fbc42683          	lw	a3,-68(s0)
80006d20:	000e0713          	mv	a4,t3
80006d24:	000e8793          	mv	a5,t4
80006d28:	00830313          	addi	t1,t1,8
80006d2c:	f0a42423          	sw	a0,-248(s0)
80006d30:	f0b42623          	sw	a1,-244(s0)
80006d34:	00090513          	mv	a0,s2
80006d38:	00098593          	mv	a1,s3
80006d3c:	fa642c23          	sw	t1,-72(s0)
80006d40:	030050ef          	jal	ra,8000bd70 <fma>
80006d44:	e9442783          	lw	a5,-364(s0)
80006d48:	fa042703          	lw	a4,-96(s0)
80006d4c:	fa842683          	lw	a3,-88(s0)
80006d50:	00058e93          	mv	t4,a1
80006d54:	fb042583          	lw	a1,-80(s0)
80006d58:	00f484b3          	add	s1,s1,a5
80006d5c:	00870793          	addi	a5,a4,8
80006d60:	faf42023          	sw	a5,-96(s0)
80006d64:	00868793          	addi	a5,a3,8
80006d68:	faf42423          	sw	a5,-88(s0)
80006d6c:	00858793          	addi	a5,a1,8
80006d70:	faf42823          	sw	a5,-80(s0)
80006d74:	e6842783          	lw	a5,-408(s0)
80006d78:	fb842303          	lw	t1,-72(s0)
80006d7c:	00050e13          	mv	t3,a0
80006d80:	f9842803          	lw	a6,-104(s0)
80006d84:	f9c42883          	lw	a7,-100(s0)
80006d88:	c6f36ce3          	bltu	t1,a5,80006a00 <mm_cb+0x5654>
80006d8c:	ef042283          	lw	t0,-272(s0)
80006d90:	f6842783          	lw	a5,-152(s0)
80006d94:	0102a023          	sw	a6,0(t0)
80006d98:	f6c42803          	lw	a6,-148(s0)
80006d9c:	00f2a423          	sw	a5,8(t0)
80006da0:	f9042783          	lw	a5,-112(s0)
80006da4:	0102a623          	sw	a6,12(t0)
80006da8:	f9442803          	lw	a6,-108(s0)
80006dac:	00f2a823          	sw	a5,16(t0)
80006db0:	f7842783          	lw	a5,-136(s0)
80006db4:	0102aa23          	sw	a6,20(t0)
80006db8:	f7c42803          	lw	a6,-132(s0)
80006dbc:	00f2ac23          	sw	a5,24(t0)
80006dc0:	f6042783          	lw	a5,-160(s0)
80006dc4:	0102ae23          	sw	a6,28(t0)
80006dc8:	f6442803          	lw	a6,-156(s0)
80006dcc:	02f2a023          	sw	a5,32(t0)
80006dd0:	f5842783          	lw	a5,-168(s0)
80006dd4:	0302a223          	sw	a6,36(t0)
80006dd8:	f5c42803          	lw	a6,-164(s0)
80006ddc:	0cf2a423          	sw	a5,200(t0)
80006de0:	f7042783          	lw	a5,-144(s0)
80006de4:	0d02a623          	sw	a6,204(t0)
80006de8:	f7442803          	lw	a6,-140(s0)
80006dec:	0cf2a823          	sw	a5,208(t0)
80006df0:	f8842783          	lw	a5,-120(s0)
80006df4:	0d02aa23          	sw	a6,212(t0)
80006df8:	f8c42803          	lw	a6,-116(s0)
80006dfc:	0cf2ac23          	sw	a5,216(t0)
80006e00:	f8042783          	lw	a5,-128(s0)
80006e04:	0d02ae23          	sw	a6,220(t0)
80006e08:	f8442803          	lw	a6,-124(s0)
80006e0c:	0112a223          	sw	a7,4(t0)
80006e10:	0ef2a023          	sw	a5,224(t0)
80006e14:	f5042783          	lw	a5,-176(s0)
80006e18:	0f02a223          	sw	a6,228(t0)
80006e1c:	f5442803          	lw	a6,-172(s0)
80006e20:	0ef2a423          	sw	a5,232(t0)
80006e24:	f4842783          	lw	a5,-184(s0)
80006e28:	0f02a623          	sw	a6,236(t0)
80006e2c:	f4c42803          	lw	a6,-180(s0)
80006e30:	18f2a823          	sw	a5,400(t0)
80006e34:	f4042783          	lw	a5,-192(s0)
80006e38:	1902aa23          	sw	a6,404(t0)
80006e3c:	f4442803          	lw	a6,-188(s0)
80006e40:	18f2ac23          	sw	a5,408(t0)
80006e44:	f3842783          	lw	a5,-200(s0)
80006e48:	1902ae23          	sw	a6,412(t0)
80006e4c:	f3c42803          	lw	a6,-196(s0)
80006e50:	1af2a023          	sw	a5,416(t0)
80006e54:	f3042783          	lw	a5,-208(s0)
80006e58:	1b02a223          	sw	a6,420(t0)
80006e5c:	f3442803          	lw	a6,-204(s0)
80006e60:	1af2a423          	sw	a5,424(t0)
80006e64:	f2842783          	lw	a5,-216(s0)
80006e68:	1b02a623          	sw	a6,428(t0)
80006e6c:	f2c42803          	lw	a6,-212(s0)
80006e70:	1af2a823          	sw	a5,432(t0)
80006e74:	f2042783          	lw	a5,-224(s0)
80006e78:	1b02aa23          	sw	a6,436(t0)
80006e7c:	f2442803          	lw	a6,-220(s0)
80006e80:	24f2ac23          	sw	a5,600(t0)
80006e84:	f1842783          	lw	a5,-232(s0)
80006e88:	2502ae23          	sw	a6,604(t0)
80006e8c:	f1c42803          	lw	a6,-228(s0)
80006e90:	26f2a023          	sw	a5,608(t0)
80006e94:	02828293          	addi	t0,t0,40
80006e98:	2302ae23          	sw	a6,572(t0)
80006e9c:	f1042783          	lw	a5,-240(s0)
80006ea0:	f1442803          	lw	a6,-236(s0)
80006ea4:	e4842703          	lw	a4,-440(s0)
80006ea8:	24f2a023          	sw	a5,576(t0)
80006eac:	f0842783          	lw	a5,-248(s0)
80006eb0:	2502a223          	sw	a6,580(t0)
80006eb4:	f0c42803          	lw	a6,-244(s0)
80006eb8:	24f2a423          	sw	a5,584(t0)
80006ebc:	e6042783          	lw	a5,-416(s0)
80006ec0:	2502a623          	sw	a6,588(t0)
80006ec4:	25c2a823          	sw	t3,592(t0)
80006ec8:	02878793          	addi	a5,a5,40
80006ecc:	25d2aa23          	sw	t4,596(t0)
80006ed0:	e6f42023          	sw	a5,-416(s0)
80006ed4:	00f70463          	beq	a4,a5,80006edc <mm_cb+0x5b30>
80006ed8:	d1cfe06f          	j	800053f4 <mm_cb+0x4048>
80006edc:	e4042303          	lw	t1,-448(s0)
80006ee0:	e4c42903          	lw	s2,-436(s0)
80006ee4:	01900793          	li	a5,25
80006ee8:	00f12023          	sw	a5,0(sp)
80006eec:	e2c42803          	lw	a6,-468(s0)
80006ef0:	00070793          	mv	a5,a4
80006ef4:	dcc42603          	lw	a2,-564(s0)
80006ef8:	e2442703          	lw	a4,-476(s0)
80006efc:	32030493          	addi	s1,t1,800
80006f00:	00030893          	mv	a7,t1
80006f04:	00090693          	mv	a3,s2
80006f08:	00000593          	li	a1,0
80006f0c:	00400513          	li	a0,4
80006f10:	e4942023          	sw	s1,-448(s0)
80006f14:	934fa0ef          	jal	ra,80001048 <mm_naive>
80006f18:	de442783          	lw	a5,-540(s0)
80006f1c:	00f90733          	add	a4,s2,a5
80006f20:	e4e42623          	sw	a4,-436(s0)
80006f24:	e5442703          	lw	a4,-428(s0)
80006f28:	00f70733          	add	a4,a4,a5
80006f2c:	e4e42a23          	sw	a4,-428(s0)
80006f30:	e5842703          	lw	a4,-424(s0)
80006f34:	00f70733          	add	a4,a4,a5
80006f38:	e4e42c23          	sw	a4,-424(s0)
80006f3c:	e5c42703          	lw	a4,-420(s0)
80006f40:	00f707b3          	add	a5,a4,a5
80006f44:	e4f42e23          	sw	a5,-420(s0)
80006f48:	e0c42783          	lw	a5,-500(s0)
80006f4c:	00978463          	beq	a5,s1,80006f54 <mm_cb+0x5ba8>
80006f50:	c78fe06f          	j	800053c8 <mm_cb+0x401c>
80006f54:	01900793          	li	a5,25
80006f58:	00f12023          	sw	a5,0(sp)
80006f5c:	e0842783          	lw	a5,-504(s0)
80006f60:	00001737          	lui	a4,0x1
80006f64:	2c070713          	addi	a4,a4,704 # 12c0 <_tbss_end+0x123c>
80006f68:	00e788b3          	add	a7,a5,a4
80006f6c:	e2c42803          	lw	a6,-468(s0)
80006f70:	e3842783          	lw	a5,-456(s0)
80006f74:	e2442703          	lw	a4,-476(s0)
80006f78:	db042683          	lw	a3,-592(s0)
80006f7c:	dcc42603          	lw	a2,-564(s0)
80006f80:	01900593          	li	a1,25
80006f84:	00000513          	li	a0,0
80006f88:	8c0fa0ef          	jal	ra,80001048 <mm_naive>
80006f8c:	af8fc06f          	j	80003284 <mm_cb+0x1ed8>
80006f90:	e0442783          	lw	a5,-508(s0)
80006f94:	00079463          	bnez	a5,80006f9c <mm_cb+0x5bf0>
80006f98:	b2cfc06f          	j	800032c4 <mm_cb+0x1f18>
80006f9c:	d6c42783          	lw	a5,-660(s0)
80006fa0:	e3c42703          	lw	a4,-452(s0)
80006fa4:	dc042a23          	sw	zero,-556(s0)
80006fa8:	00e787b3          	add	a5,a5,a4
80006fac:	dcf42023          	sw	a5,-576(s0)
80006fb0:	d7442783          	lw	a5,-652(s0)
80006fb4:	def42023          	sw	a5,-544(s0)
80006fb8:	dd442703          	lw	a4,-556(s0)
80006fbc:	e0442783          	lw	a5,-508(s0)
80006fc0:	40e787b3          	sub	a5,a5,a4
80006fc4:	def42a23          	sw	a5,-524(s0)
80006fc8:	01800713          	li	a4,24
80006fcc:	00f77663          	bleu	a5,a4,80006fd8 <mm_cb+0x5c2c>
80006fd0:	01800793          	li	a5,24
80006fd4:	def42a23          	sw	a5,-524(s0)
80006fd8:	df442683          	lw	a3,-524(s0)
80006fdc:	00600793          	li	a5,6
80006fe0:	dac42703          	lw	a4,-596(s0)
80006fe4:	02f6d7b3          	divu	a5,a3,a5
80006fe8:	dc042583          	lw	a1,-576(s0)
80006fec:	00369693          	slli	a3,a3,0x3
80006ff0:	d8d42023          	sw	a3,-640(s0)
80006ff4:	00b70633          	add	a2,a4,a1
80006ff8:	e2c42c23          	sw	a2,-456(s0)
80006ffc:	00c70633          	add	a2,a4,a2
80007000:	00c70733          	add	a4,a4,a2
80007004:	e4e42023          	sw	a4,-448(s0)
80007008:	dc442703          	lw	a4,-572(s0)
8000700c:	dc842683          	lw	a3,-568(s0)
80007010:	de042503          	lw	a0,-544(s0)
80007014:	dee42823          	sw	a4,-528(s0)
80007018:	00600713          	li	a4,6
8000701c:	dce42e23          	sw	a4,-548(s0)
80007020:	00a686b3          	add	a3,a3,a0
80007024:	e2c42e23          	sw	a2,-452(s0)
80007028:	d8d42e23          	sw	a3,-612(s0)
8000702c:	e2b42823          	sw	a1,-464(s0)
80007030:	00179713          	slli	a4,a5,0x1
80007034:	00f70733          	add	a4,a4,a5
80007038:	00471713          	slli	a4,a4,0x4
8000703c:	e0e42423          	sw	a4,-504(s0)
80007040:	e9042703          	lw	a4,-368(s0)
80007044:	02f707b3          	mul	a5,a4,a5
80007048:	e0f42623          	sw	a5,-500(s0)
8000704c:	e1842783          	lw	a5,-488(s0)
80007050:	00079463          	bnez	a5,80007058 <mm_cb+0x5cac>
80007054:	3350106f          	j	80008b88 <mm_cb+0x77dc>
80007058:	d7c42783          	lw	a5,-644(s0)
8000705c:	df042683          	lw	a3,-528(s0)
80007060:	e3042603          	lw	a2,-464(s0)
80007064:	e0842583          	lw	a1,-504(s0)
80007068:	00d78733          	add	a4,a5,a3
8000706c:	e4e42423          	sw	a4,-440(s0)
80007070:	00c585b3          	add	a1,a1,a2
80007074:	00e78733          	add	a4,a5,a4
80007078:	00e787b3          	add	a5,a5,a4
8000707c:	e4b42e23          	sw	a1,-420(s0)
80007080:	d8042583          	lw	a1,-640(s0)
80007084:	e4f42823          	sw	a5,-432(s0)
80007088:	de042783          	lw	a5,-544(s0)
8000708c:	00c58633          	add	a2,a1,a2
80007090:	e4e42623          	sw	a4,-436(s0)
80007094:	e4c42c23          	sw	a2,-424(s0)
80007098:	e4f42a23          	sw	a5,-428(s0)
8000709c:	e4d42223          	sw	a3,-444(s0)
800070a0:	e2042a23          	sw	zero,-460(s0)
800070a4:	e4442783          	lw	a5,-444(s0)
800070a8:	e5442483          	lw	s1,-428(s0)
800070ac:	00c7a703          	lw	a4,12(a5)
800070b0:	0087a683          	lw	a3,8(a5)
800070b4:	0007a803          	lw	a6,0(a5)
800070b8:	f8e42e23          	sw	a4,-100(s0)
800070bc:	0147a703          	lw	a4,20(a5)
800070c0:	f8d42c23          	sw	a3,-104(s0)
800070c4:	0107a683          	lw	a3,16(a5)
800070c8:	f8e42a23          	sw	a4,-108(s0)
800070cc:	01c7a703          	lw	a4,28(a5)
800070d0:	0047a883          	lw	a7,4(a5)
800070d4:	f8d42823          	sw	a3,-112(s0)
800070d8:	f8e42623          	sw	a4,-116(s0)
800070dc:	0187a683          	lw	a3,24(a5)
800070e0:	0207a703          	lw	a4,32(a5)
800070e4:	0247a783          	lw	a5,36(a5)
800070e8:	f8d42423          	sw	a3,-120(s0)
800070ec:	f8e42023          	sw	a4,-128(s0)
800070f0:	f8f42223          	sw	a5,-124(s0)
800070f4:	e4842783          	lw	a5,-440(s0)
800070f8:	0007a683          	lw	a3,0(a5)
800070fc:	0047a703          	lw	a4,4(a5)
80007100:	f6d42c23          	sw	a3,-136(s0)
80007104:	0087a683          	lw	a3,8(a5)
80007108:	f6e42e23          	sw	a4,-132(s0)
8000710c:	00c7a703          	lw	a4,12(a5)
80007110:	f6d42823          	sw	a3,-144(s0)
80007114:	0107a683          	lw	a3,16(a5)
80007118:	f6e42a23          	sw	a4,-140(s0)
8000711c:	0147a703          	lw	a4,20(a5)
80007120:	f6d42423          	sw	a3,-152(s0)
80007124:	f6e42623          	sw	a4,-148(s0)
80007128:	01c7a703          	lw	a4,28(a5)
8000712c:	0187a683          	lw	a3,24(a5)
80007130:	f6e42223          	sw	a4,-156(s0)
80007134:	0207a703          	lw	a4,32(a5)
80007138:	0247a783          	lw	a5,36(a5)
8000713c:	f6d42023          	sw	a3,-160(s0)
80007140:	f4e42c23          	sw	a4,-168(s0)
80007144:	f4f42e23          	sw	a5,-164(s0)
80007148:	e4c42783          	lw	a5,-436(s0)
8000714c:	0047a703          	lw	a4,4(a5)
80007150:	0007a683          	lw	a3,0(a5)
80007154:	f4e42a23          	sw	a4,-172(s0)
80007158:	00c7a703          	lw	a4,12(a5)
8000715c:	f4d42823          	sw	a3,-176(s0)
80007160:	0087a683          	lw	a3,8(a5)
80007164:	f4e42623          	sw	a4,-180(s0)
80007168:	0147a703          	lw	a4,20(a5)
8000716c:	f4d42423          	sw	a3,-184(s0)
80007170:	0107a683          	lw	a3,16(a5)
80007174:	f4e42223          	sw	a4,-188(s0)
80007178:	01c7a703          	lw	a4,28(a5)
8000717c:	f4d42023          	sw	a3,-192(s0)
80007180:	0187a683          	lw	a3,24(a5)
80007184:	f2e42e23          	sw	a4,-196(s0)
80007188:	0207a703          	lw	a4,32(a5)
8000718c:	0247a783          	lw	a5,36(a5)
80007190:	f2d42c23          	sw	a3,-200(s0)
80007194:	f2e42823          	sw	a4,-208(s0)
80007198:	f2f42a23          	sw	a5,-204(s0)
8000719c:	e5042783          	lw	a5,-432(s0)
800071a0:	0047a703          	lw	a4,4(a5)
800071a4:	0007a683          	lw	a3,0(a5)
800071a8:	f2d42423          	sw	a3,-216(s0)
800071ac:	f2e42623          	sw	a4,-212(s0)
800071b0:	00c7a703          	lw	a4,12(a5)
800071b4:	0087a683          	lw	a3,8(a5)
800071b8:	0207ae03          	lw	t3,32(a5)
800071bc:	f2e42223          	sw	a4,-220(s0)
800071c0:	0147a703          	lw	a4,20(a5)
800071c4:	f2d42023          	sw	a3,-224(s0)
800071c8:	0107a683          	lw	a3,16(a5)
800071cc:	f0e42e23          	sw	a4,-228(s0)
800071d0:	01c7a703          	lw	a4,28(a5)
800071d4:	f0d42c23          	sw	a3,-232(s0)
800071d8:	0187a683          	lw	a3,24(a5)
800071dc:	f0e42a23          	sw	a4,-236(s0)
800071e0:	0247ae83          	lw	t4,36(a5)
800071e4:	e5c42703          	lw	a4,-420(s0)
800071e8:	e3042783          	lw	a5,-464(s0)
800071ec:	f0d42823          	sw	a3,-240(s0)
800071f0:	00e7e463          	bltu	a5,a4,800071f8 <mm_cb+0x5e4c>
800071f4:	4640106f          	j	80008658 <mm_cb+0x72ac>
800071f8:	e4042703          	lw	a4,-448(s0)
800071fc:	faf42c23          	sw	a5,-72(s0)
80007200:	fae42823          	sw	a4,-80(s0)
80007204:	e3c42703          	lw	a4,-452(s0)
80007208:	fae42423          	sw	a4,-88(s0)
8000720c:	e3842703          	lw	a4,-456(s0)
80007210:	fae42023          	sw	a4,-96(s0)
80007214:	fb842783          	lw	a5,-72(s0)
80007218:	0004ac03          	lw	s8,0(s1)
8000721c:	0044ac83          	lw	s9,4(s1)
80007220:	0007a903          	lw	s2,0(a5)
80007224:	0047a983          	lw	s3,4(a5)
80007228:	00080713          	mv	a4,a6
8000722c:	00088793          	mv	a5,a7
80007230:	000c0613          	mv	a2,s8
80007234:	000c8693          	mv	a3,s9
80007238:	00090513          	mv	a0,s2
8000723c:	00098593          	mv	a1,s3
80007240:	efc42c23          	sw	t3,-264(s0)
80007244:	efd42e23          	sw	t4,-260(s0)
80007248:	329040ef          	jal	ra,8000bd70 <fma>
8000724c:	0084ab03          	lw	s6,8(s1)
80007250:	00c4ab83          	lw	s7,12(s1)
80007254:	f9842703          	lw	a4,-104(s0)
80007258:	f9c42783          	lw	a5,-100(s0)
8000725c:	000b0613          	mv	a2,s6
80007260:	000b8693          	mv	a3,s7
80007264:	f0a42023          	sw	a0,-256(s0)
80007268:	f0b42223          	sw	a1,-252(s0)
8000726c:	00090513          	mv	a0,s2
80007270:	00098593          	mv	a1,s3
80007274:	2fd040ef          	jal	ra,8000bd70 <fma>
80007278:	0104aa03          	lw	s4,16(s1)
8000727c:	0144aa83          	lw	s5,20(s1)
80007280:	f9042703          	lw	a4,-112(s0)
80007284:	f9442783          	lw	a5,-108(s0)
80007288:	000a0613          	mv	a2,s4
8000728c:	000a8693          	mv	a3,s5
80007290:	f0a42423          	sw	a0,-248(s0)
80007294:	f0b42623          	sw	a1,-244(s0)
80007298:	00090513          	mv	a0,s2
8000729c:	00098593          	mv	a1,s3
800072a0:	2d1040ef          	jal	ra,8000bd70 <fma>
800072a4:	0184ad03          	lw	s10,24(s1)
800072a8:	01c4ad83          	lw	s11,28(s1)
800072ac:	f8842703          	lw	a4,-120(s0)
800072b0:	f8c42783          	lw	a5,-116(s0)
800072b4:	000d0613          	mv	a2,s10
800072b8:	000d8693          	mv	a3,s11
800072bc:	eea42823          	sw	a0,-272(s0)
800072c0:	eeb42a23          	sw	a1,-268(s0)
800072c4:	00090513          	mv	a0,s2
800072c8:	00098593          	mv	a1,s3
800072cc:	2a5040ef          	jal	ra,8000bd70 <fma>
800072d0:	0204a783          	lw	a5,32(s1)
800072d4:	0244a803          	lw	a6,36(s1)
800072d8:	f8042703          	lw	a4,-128(s0)
800072dc:	00078613          	mv	a2,a5
800072e0:	f8442783          	lw	a5,-124(s0)
800072e4:	00080693          	mv	a3,a6
800072e8:	f8a42823          	sw	a0,-112(s0)
800072ec:	f8b42a23          	sw	a1,-108(s0)
800072f0:	00090513          	mv	a0,s2
800072f4:	00098593          	mv	a1,s3
800072f8:	f9042e23          	sw	a6,-100(s0)
800072fc:	f8c42c23          	sw	a2,-104(s0)
80007300:	271040ef          	jal	ra,8000bd70 <fma>
80007304:	fa042683          	lw	a3,-96(s0)
80007308:	f7842703          	lw	a4,-136(s0)
8000730c:	f8a42423          	sw	a0,-120(s0)
80007310:	0006a903          	lw	s2,0(a3)
80007314:	0046a983          	lw	s3,4(a3)
80007318:	f8b42623          	sw	a1,-116(s0)
8000731c:	f7c42783          	lw	a5,-132(s0)
80007320:	000c0613          	mv	a2,s8
80007324:	000c8693          	mv	a3,s9
80007328:	00090513          	mv	a0,s2
8000732c:	00098593          	mv	a1,s3
80007330:	241040ef          	jal	ra,8000bd70 <fma>
80007334:	f7042703          	lw	a4,-144(s0)
80007338:	f7442783          	lw	a5,-140(s0)
8000733c:	000b0613          	mv	a2,s6
80007340:	000b8693          	mv	a3,s7
80007344:	f8a42023          	sw	a0,-128(s0)
80007348:	f8b42223          	sw	a1,-124(s0)
8000734c:	00090513          	mv	a0,s2
80007350:	00098593          	mv	a1,s3
80007354:	21d040ef          	jal	ra,8000bd70 <fma>
80007358:	f6842703          	lw	a4,-152(s0)
8000735c:	f6c42783          	lw	a5,-148(s0)
80007360:	000a0613          	mv	a2,s4
80007364:	000a8693          	mv	a3,s5
80007368:	f6a42c23          	sw	a0,-136(s0)
8000736c:	f6b42e23          	sw	a1,-132(s0)
80007370:	00090513          	mv	a0,s2
80007374:	00098593          	mv	a1,s3
80007378:	1f9040ef          	jal	ra,8000bd70 <fma>
8000737c:	f6042703          	lw	a4,-160(s0)
80007380:	f6442783          	lw	a5,-156(s0)
80007384:	000d0613          	mv	a2,s10
80007388:	000d8693          	mv	a3,s11
8000738c:	f6a42823          	sw	a0,-144(s0)
80007390:	f6b42a23          	sw	a1,-140(s0)
80007394:	00090513          	mv	a0,s2
80007398:	00098593          	mv	a1,s3
8000739c:	1d5040ef          	jal	ra,8000bd70 <fma>
800073a0:	f5842703          	lw	a4,-168(s0)
800073a4:	f5c42783          	lw	a5,-164(s0)
800073a8:	f9842603          	lw	a2,-104(s0)
800073ac:	f9c42683          	lw	a3,-100(s0)
800073b0:	f6a42423          	sw	a0,-152(s0)
800073b4:	f6b42623          	sw	a1,-148(s0)
800073b8:	00090513          	mv	a0,s2
800073bc:	00098593          	mv	a1,s3
800073c0:	1b1040ef          	jal	ra,8000bd70 <fma>
800073c4:	f6b42223          	sw	a1,-156(s0)
800073c8:	fa842583          	lw	a1,-88(s0)
800073cc:	f5042703          	lw	a4,-176(s0)
800073d0:	f5442783          	lw	a5,-172(s0)
800073d4:	0005a903          	lw	s2,0(a1)
800073d8:	0045a983          	lw	s3,4(a1)
800073dc:	000c0613          	mv	a2,s8
800073e0:	000c8693          	mv	a3,s9
800073e4:	f6a42023          	sw	a0,-160(s0)
800073e8:	00098593          	mv	a1,s3
800073ec:	00090513          	mv	a0,s2
800073f0:	181040ef          	jal	ra,8000bd70 <fma>
800073f4:	f4842703          	lw	a4,-184(s0)
800073f8:	f4c42783          	lw	a5,-180(s0)
800073fc:	000b0613          	mv	a2,s6
80007400:	000b8693          	mv	a3,s7
80007404:	f4a42c23          	sw	a0,-168(s0)
80007408:	f4b42e23          	sw	a1,-164(s0)
8000740c:	00090513          	mv	a0,s2
80007410:	00098593          	mv	a1,s3
80007414:	15d040ef          	jal	ra,8000bd70 <fma>
80007418:	f4042703          	lw	a4,-192(s0)
8000741c:	f4442783          	lw	a5,-188(s0)
80007420:	000a0613          	mv	a2,s4
80007424:	000a8693          	mv	a3,s5
80007428:	f4a42823          	sw	a0,-176(s0)
8000742c:	f4b42a23          	sw	a1,-172(s0)
80007430:	00090513          	mv	a0,s2
80007434:	00098593          	mv	a1,s3
80007438:	139040ef          	jal	ra,8000bd70 <fma>
8000743c:	f3842703          	lw	a4,-200(s0)
80007440:	f3c42783          	lw	a5,-196(s0)
80007444:	000d0613          	mv	a2,s10
80007448:	000d8693          	mv	a3,s11
8000744c:	f4a42423          	sw	a0,-184(s0)
80007450:	f4b42623          	sw	a1,-180(s0)
80007454:	00090513          	mv	a0,s2
80007458:	00098593          	mv	a1,s3
8000745c:	115040ef          	jal	ra,8000bd70 <fma>
80007460:	f3042703          	lw	a4,-208(s0)
80007464:	f3442783          	lw	a5,-204(s0)
80007468:	f9842603          	lw	a2,-104(s0)
8000746c:	f9c42683          	lw	a3,-100(s0)
80007470:	f4a42023          	sw	a0,-192(s0)
80007474:	f4b42223          	sw	a1,-188(s0)
80007478:	00090513          	mv	a0,s2
8000747c:	00098593          	mv	a1,s3
80007480:	0f1040ef          	jal	ra,8000bd70 <fma>
80007484:	fb042883          	lw	a7,-80(s0)
80007488:	f2842703          	lw	a4,-216(s0)
8000748c:	f2c42783          	lw	a5,-212(s0)
80007490:	0008a903          	lw	s2,0(a7)
80007494:	0048a983          	lw	s3,4(a7)
80007498:	000c0613          	mv	a2,s8
8000749c:	000c8693          	mv	a3,s9
800074a0:	f2a42c23          	sw	a0,-200(s0)
800074a4:	f2b42e23          	sw	a1,-196(s0)
800074a8:	00090513          	mv	a0,s2
800074ac:	00098593          	mv	a1,s3
800074b0:	0c1040ef          	jal	ra,8000bd70 <fma>
800074b4:	f2042703          	lw	a4,-224(s0)
800074b8:	f2442783          	lw	a5,-220(s0)
800074bc:	000b0613          	mv	a2,s6
800074c0:	000b8693          	mv	a3,s7
800074c4:	f2a42823          	sw	a0,-208(s0)
800074c8:	f2b42a23          	sw	a1,-204(s0)
800074cc:	00090513          	mv	a0,s2
800074d0:	00098593          	mv	a1,s3
800074d4:	09d040ef          	jal	ra,8000bd70 <fma>
800074d8:	f1842703          	lw	a4,-232(s0)
800074dc:	f1c42783          	lw	a5,-228(s0)
800074e0:	000a0613          	mv	a2,s4
800074e4:	000a8693          	mv	a3,s5
800074e8:	f2a42423          	sw	a0,-216(s0)
800074ec:	f2b42623          	sw	a1,-212(s0)
800074f0:	00090513          	mv	a0,s2
800074f4:	00098593          	mv	a1,s3
800074f8:	079040ef          	jal	ra,8000bd70 <fma>
800074fc:	e9442303          	lw	t1,-364(s0)
80007500:	f1042703          	lw	a4,-240(s0)
80007504:	f1442783          	lw	a5,-236(s0)
80007508:	000d0613          	mv	a2,s10
8000750c:	000d8693          	mv	a3,s11
80007510:	f2a42023          	sw	a0,-224(s0)
80007514:	f2b42223          	sw	a1,-220(s0)
80007518:	00090513          	mv	a0,s2
8000751c:	00098593          	mv	a1,s3
80007520:	00648c33          	add	s8,s1,t1
80007524:	04d040ef          	jal	ra,8000bd70 <fma>
80007528:	ef842e03          	lw	t3,-264(s0)
8000752c:	efc42e83          	lw	t4,-260(s0)
80007530:	f9842603          	lw	a2,-104(s0)
80007534:	f9c42683          	lw	a3,-100(s0)
80007538:	000e0713          	mv	a4,t3
8000753c:	000e8793          	mv	a5,t4
80007540:	f0a42c23          	sw	a0,-232(s0)
80007544:	f0b42e23          	sw	a1,-228(s0)
80007548:	00090513          	mv	a0,s2
8000754c:	00098593          	mv	a1,s3
80007550:	021040ef          	jal	ra,8000bd70 <fma>
80007554:	fb842783          	lw	a5,-72(s0)
80007558:	eea42c23          	sw	a0,-264(s0)
8000755c:	eeb42e23          	sw	a1,-260(s0)
80007560:	0087a903          	lw	s2,8(a5)
80007564:	00c7a983          	lw	s3,12(a5)
80007568:	000c2b03          	lw	s6,0(s8)
8000756c:	f0442883          	lw	a7,-252(s0)
80007570:	004c2b83          	lw	s7,4(s8)
80007574:	f0042803          	lw	a6,-256(s0)
80007578:	00088793          	mv	a5,a7
8000757c:	000b0613          	mv	a2,s6
80007580:	00080713          	mv	a4,a6
80007584:	000b8693          	mv	a3,s7
80007588:	00090513          	mv	a0,s2
8000758c:	00098593          	mv	a1,s3
80007590:	7e0040ef          	jal	ra,8000bd70 <fma>
80007594:	f0c42383          	lw	t2,-244(s0)
80007598:	f0842303          	lw	t1,-248(s0)
8000759c:	008c2a03          	lw	s4,8(s8)
800075a0:	00cc2a83          	lw	s5,12(s8)
800075a4:	00038793          	mv	a5,t2
800075a8:	00030713          	mv	a4,t1
800075ac:	000a0613          	mv	a2,s4
800075b0:	000a8693          	mv	a3,s5
800075b4:	f0a42023          	sw	a0,-256(s0)
800075b8:	f0b42223          	sw	a1,-252(s0)
800075bc:	00090513          	mv	a0,s2
800075c0:	00098593          	mv	a1,s3
800075c4:	7ac040ef          	jal	ra,8000bd70 <fma>
800075c8:	ef042f03          	lw	t5,-272(s0)
800075cc:	ef442f83          	lw	t6,-268(s0)
800075d0:	010c2d03          	lw	s10,16(s8)
800075d4:	014c2d83          	lw	s11,20(s8)
800075d8:	000f0713          	mv	a4,t5
800075dc:	000f8793          	mv	a5,t6
800075e0:	000d0613          	mv	a2,s10
800075e4:	000d8693          	mv	a3,s11
800075e8:	f0a42423          	sw	a0,-248(s0)
800075ec:	f0b42623          	sw	a1,-244(s0)
800075f0:	00090513          	mv	a0,s2
800075f4:	00098593          	mv	a1,s3
800075f8:	778040ef          	jal	ra,8000bd70 <fma>
800075fc:	018c2783          	lw	a5,24(s8)
80007600:	01cc2803          	lw	a6,28(s8)
80007604:	f9042703          	lw	a4,-112(s0)
80007608:	00078613          	mv	a2,a5
8000760c:	f9442783          	lw	a5,-108(s0)
80007610:	00080693          	mv	a3,a6
80007614:	f0a42823          	sw	a0,-240(s0)
80007618:	f0b42a23          	sw	a1,-236(s0)
8000761c:	00090513          	mv	a0,s2
80007620:	00098593          	mv	a1,s3
80007624:	f9042e23          	sw	a6,-100(s0)
80007628:	f8c42c23          	sw	a2,-104(s0)
8000762c:	744040ef          	jal	ra,8000bd70 <fma>
80007630:	024c2c83          	lw	s9,36(s8)
80007634:	020c2c03          	lw	s8,32(s8)
80007638:	f8842703          	lw	a4,-120(s0)
8000763c:	f8c42783          	lw	a5,-116(s0)
80007640:	000c0613          	mv	a2,s8
80007644:	000c8693          	mv	a3,s9
80007648:	f8a42823          	sw	a0,-112(s0)
8000764c:	f8b42a23          	sw	a1,-108(s0)
80007650:	00090513          	mv	a0,s2
80007654:	00098593          	mv	a1,s3
80007658:	718040ef          	jal	ra,8000bd70 <fma>
8000765c:	fa042683          	lw	a3,-96(s0)
80007660:	f8042703          	lw	a4,-128(s0)
80007664:	f8442783          	lw	a5,-124(s0)
80007668:	0086a903          	lw	s2,8(a3)
8000766c:	00c6a983          	lw	s3,12(a3)
80007670:	000b0613          	mv	a2,s6
80007674:	000b8693          	mv	a3,s7
80007678:	f8a42423          	sw	a0,-120(s0)
8000767c:	f8b42623          	sw	a1,-116(s0)
80007680:	00090513          	mv	a0,s2
80007684:	00098593          	mv	a1,s3
80007688:	6e8040ef          	jal	ra,8000bd70 <fma>
8000768c:	f7842703          	lw	a4,-136(s0)
80007690:	f7c42783          	lw	a5,-132(s0)
80007694:	000a0613          	mv	a2,s4
80007698:	000a8693          	mv	a3,s5
8000769c:	f8a42023          	sw	a0,-128(s0)
800076a0:	f8b42223          	sw	a1,-124(s0)
800076a4:	00090513          	mv	a0,s2
800076a8:	00098593          	mv	a1,s3
800076ac:	6c4040ef          	jal	ra,8000bd70 <fma>
800076b0:	f7042703          	lw	a4,-144(s0)
800076b4:	f7442783          	lw	a5,-140(s0)
800076b8:	000d0613          	mv	a2,s10
800076bc:	000d8693          	mv	a3,s11
800076c0:	f6a42c23          	sw	a0,-136(s0)
800076c4:	f6b42e23          	sw	a1,-132(s0)
800076c8:	00090513          	mv	a0,s2
800076cc:	00098593          	mv	a1,s3
800076d0:	6a0040ef          	jal	ra,8000bd70 <fma>
800076d4:	f6842703          	lw	a4,-152(s0)
800076d8:	f6c42783          	lw	a5,-148(s0)
800076dc:	f9842603          	lw	a2,-104(s0)
800076e0:	f9c42683          	lw	a3,-100(s0)
800076e4:	f6a42823          	sw	a0,-144(s0)
800076e8:	f6b42a23          	sw	a1,-140(s0)
800076ec:	00090513          	mv	a0,s2
800076f0:	00098593          	mv	a1,s3
800076f4:	67c040ef          	jal	ra,8000bd70 <fma>
800076f8:	f6042703          	lw	a4,-160(s0)
800076fc:	f6442783          	lw	a5,-156(s0)
80007700:	000c0613          	mv	a2,s8
80007704:	000c8693          	mv	a3,s9
80007708:	f6a42423          	sw	a0,-152(s0)
8000770c:	f6b42623          	sw	a1,-148(s0)
80007710:	00090513          	mv	a0,s2
80007714:	00098593          	mv	a1,s3
80007718:	658040ef          	jal	ra,8000bd70 <fma>
8000771c:	f6b42223          	sw	a1,-156(s0)
80007720:	fa842583          	lw	a1,-88(s0)
80007724:	f5842703          	lw	a4,-168(s0)
80007728:	f5c42783          	lw	a5,-164(s0)
8000772c:	0085a903          	lw	s2,8(a1)
80007730:	00c5a983          	lw	s3,12(a1)
80007734:	000b0613          	mv	a2,s6
80007738:	000b8693          	mv	a3,s7
8000773c:	f6a42023          	sw	a0,-160(s0)
80007740:	00098593          	mv	a1,s3
80007744:	00090513          	mv	a0,s2
80007748:	628040ef          	jal	ra,8000bd70 <fma>
8000774c:	f5042703          	lw	a4,-176(s0)
80007750:	f5442783          	lw	a5,-172(s0)
80007754:	000a0613          	mv	a2,s4
80007758:	000a8693          	mv	a3,s5
8000775c:	f4a42c23          	sw	a0,-168(s0)
80007760:	f4b42e23          	sw	a1,-164(s0)
80007764:	00090513          	mv	a0,s2
80007768:	00098593          	mv	a1,s3
8000776c:	604040ef          	jal	ra,8000bd70 <fma>
80007770:	f4842703          	lw	a4,-184(s0)
80007774:	f4c42783          	lw	a5,-180(s0)
80007778:	000d0613          	mv	a2,s10
8000777c:	000d8693          	mv	a3,s11
80007780:	f4a42823          	sw	a0,-176(s0)
80007784:	f4b42a23          	sw	a1,-172(s0)
80007788:	00090513          	mv	a0,s2
8000778c:	00098593          	mv	a1,s3
80007790:	5e0040ef          	jal	ra,8000bd70 <fma>
80007794:	f4042703          	lw	a4,-192(s0)
80007798:	f4442783          	lw	a5,-188(s0)
8000779c:	f9842603          	lw	a2,-104(s0)
800077a0:	f4a42423          	sw	a0,-184(s0)
800077a4:	f4b42623          	sw	a1,-180(s0)
800077a8:	f9c42683          	lw	a3,-100(s0)
800077ac:	00090513          	mv	a0,s2
800077b0:	00098593          	mv	a1,s3
800077b4:	5bc040ef          	jal	ra,8000bd70 <fma>
800077b8:	f3842703          	lw	a4,-200(s0)
800077bc:	f3c42783          	lw	a5,-196(s0)
800077c0:	000c0613          	mv	a2,s8
800077c4:	000c8693          	mv	a3,s9
800077c8:	f4a42023          	sw	a0,-192(s0)
800077cc:	f4b42223          	sw	a1,-188(s0)
800077d0:	00090513          	mv	a0,s2
800077d4:	00098593          	mv	a1,s3
800077d8:	598040ef          	jal	ra,8000bd70 <fma>
800077dc:	fb042883          	lw	a7,-80(s0)
800077e0:	f3042703          	lw	a4,-208(s0)
800077e4:	f3442783          	lw	a5,-204(s0)
800077e8:	0088a903          	lw	s2,8(a7)
800077ec:	00c8a983          	lw	s3,12(a7)
800077f0:	000b0613          	mv	a2,s6
800077f4:	000b8693          	mv	a3,s7
800077f8:	f2a42c23          	sw	a0,-200(s0)
800077fc:	f2b42e23          	sw	a1,-196(s0)
80007800:	00090513          	mv	a0,s2
80007804:	00098593          	mv	a1,s3
80007808:	568040ef          	jal	ra,8000bd70 <fma>
8000780c:	f2842703          	lw	a4,-216(s0)
80007810:	f2c42783          	lw	a5,-212(s0)
80007814:	000a0613          	mv	a2,s4
80007818:	000a8693          	mv	a3,s5
8000781c:	f2a42823          	sw	a0,-208(s0)
80007820:	f2b42a23          	sw	a1,-204(s0)
80007824:	00090513          	mv	a0,s2
80007828:	00098593          	mv	a1,s3
8000782c:	544040ef          	jal	ra,8000bd70 <fma>
80007830:	f2042703          	lw	a4,-224(s0)
80007834:	f2442783          	lw	a5,-220(s0)
80007838:	000d0613          	mv	a2,s10
8000783c:	000d8693          	mv	a3,s11
80007840:	f2a42423          	sw	a0,-216(s0)
80007844:	f2b42623          	sw	a1,-212(s0)
80007848:	00090513          	mv	a0,s2
8000784c:	00098593          	mv	a1,s3
80007850:	520040ef          	jal	ra,8000bd70 <fma>
80007854:	e7c42303          	lw	t1,-388(s0)
80007858:	f1842703          	lw	a4,-232(s0)
8000785c:	f1c42783          	lw	a5,-228(s0)
80007860:	f9842603          	lw	a2,-104(s0)
80007864:	f9c42683          	lw	a3,-100(s0)
80007868:	f2a42023          	sw	a0,-224(s0)
8000786c:	f2b42223          	sw	a1,-220(s0)
80007870:	00090513          	mv	a0,s2
80007874:	00098593          	mv	a1,s3
80007878:	00930d33          	add	s10,t1,s1
8000787c:	4f4040ef          	jal	ra,8000bd70 <fma>
80007880:	ef842e03          	lw	t3,-264(s0)
80007884:	efc42e83          	lw	t4,-260(s0)
80007888:	000c0613          	mv	a2,s8
8000788c:	000e0713          	mv	a4,t3
80007890:	000e8793          	mv	a5,t4
80007894:	000c8693          	mv	a3,s9
80007898:	f0a42c23          	sw	a0,-232(s0)
8000789c:	f0b42e23          	sw	a1,-228(s0)
800078a0:	00090513          	mv	a0,s2
800078a4:	00098593          	mv	a1,s3
800078a8:	4c8040ef          	jal	ra,8000bd70 <fma>
800078ac:	fb842783          	lw	a5,-72(s0)
800078b0:	000d2b03          	lw	s6,0(s10)
800078b4:	eea42c23          	sw	a0,-264(s0)
800078b8:	0107a903          	lw	s2,16(a5)
800078bc:	0147a983          	lw	s3,20(a5)
800078c0:	eeb42e23          	sw	a1,-260(s0)
800078c4:	004d2b83          	lw	s7,4(s10)
800078c8:	f0442883          	lw	a7,-252(s0)
800078cc:	f0042803          	lw	a6,-256(s0)
800078d0:	000b0613          	mv	a2,s6
800078d4:	00088793          	mv	a5,a7
800078d8:	00080713          	mv	a4,a6
800078dc:	000b8693          	mv	a3,s7
800078e0:	00090513          	mv	a0,s2
800078e4:	00098593          	mv	a1,s3
800078e8:	488040ef          	jal	ra,8000bd70 <fma>
800078ec:	f0c42383          	lw	t2,-244(s0)
800078f0:	f0842303          	lw	t1,-248(s0)
800078f4:	008d2a03          	lw	s4,8(s10)
800078f8:	00cd2a83          	lw	s5,12(s10)
800078fc:	00038793          	mv	a5,t2
80007900:	00030713          	mv	a4,t1
80007904:	000a0613          	mv	a2,s4
80007908:	000a8693          	mv	a3,s5
8000790c:	f0a42023          	sw	a0,-256(s0)
80007910:	f0b42223          	sw	a1,-252(s0)
80007914:	00090513          	mv	a0,s2
80007918:	00098593          	mv	a1,s3
8000791c:	454040ef          	jal	ra,8000bd70 <fma>
80007920:	f1042f03          	lw	t5,-240(s0)
80007924:	f1442f83          	lw	t6,-236(s0)
80007928:	010d2c03          	lw	s8,16(s10)
8000792c:	014d2c83          	lw	s9,20(s10)
80007930:	000f0713          	mv	a4,t5
80007934:	000f8793          	mv	a5,t6
80007938:	000c0613          	mv	a2,s8
8000793c:	000c8693          	mv	a3,s9
80007940:	f0a42423          	sw	a0,-248(s0)
80007944:	f0b42623          	sw	a1,-244(s0)
80007948:	00090513          	mv	a0,s2
8000794c:	00098593          	mv	a1,s3
80007950:	420040ef          	jal	ra,8000bd70 <fma>
80007954:	018d2783          	lw	a5,24(s10)
80007958:	01cd2803          	lw	a6,28(s10)
8000795c:	f9042703          	lw	a4,-112(s0)
80007960:	00078613          	mv	a2,a5
80007964:	f9442783          	lw	a5,-108(s0)
80007968:	00080693          	mv	a3,a6
8000796c:	f0a42823          	sw	a0,-240(s0)
80007970:	f0b42a23          	sw	a1,-236(s0)
80007974:	00090513          	mv	a0,s2
80007978:	00098593          	mv	a1,s3
8000797c:	f9042e23          	sw	a6,-100(s0)
80007980:	f8c42c23          	sw	a2,-104(s0)
80007984:	3ec040ef          	jal	ra,8000bd70 <fma>
80007988:	024d2d83          	lw	s11,36(s10)
8000798c:	020d2d03          	lw	s10,32(s10)
80007990:	f8842703          	lw	a4,-120(s0)
80007994:	f8c42783          	lw	a5,-116(s0)
80007998:	000d0613          	mv	a2,s10
8000799c:	000d8693          	mv	a3,s11
800079a0:	f8a42823          	sw	a0,-112(s0)
800079a4:	f8b42a23          	sw	a1,-108(s0)
800079a8:	00090513          	mv	a0,s2
800079ac:	00098593          	mv	a1,s3
800079b0:	3c0040ef          	jal	ra,8000bd70 <fma>
800079b4:	fa042683          	lw	a3,-96(s0)
800079b8:	f8442783          	lw	a5,-124(s0)
800079bc:	f8042703          	lw	a4,-128(s0)
800079c0:	0106a903          	lw	s2,16(a3)
800079c4:	0146a983          	lw	s3,20(a3)
800079c8:	000b0613          	mv	a2,s6
800079cc:	000b8693          	mv	a3,s7
800079d0:	f8a42423          	sw	a0,-120(s0)
800079d4:	f8b42623          	sw	a1,-116(s0)
800079d8:	00090513          	mv	a0,s2
800079dc:	00098593          	mv	a1,s3
800079e0:	390040ef          	jal	ra,8000bd70 <fma>
800079e4:	f8a42023          	sw	a0,-128(s0)
800079e8:	f8b42223          	sw	a1,-124(s0)
800079ec:	f7842703          	lw	a4,-136(s0)
800079f0:	f7c42783          	lw	a5,-132(s0)
800079f4:	000a0613          	mv	a2,s4
800079f8:	000a8693          	mv	a3,s5
800079fc:	00090513          	mv	a0,s2
80007a00:	00098593          	mv	a1,s3
80007a04:	36c040ef          	jal	ra,8000bd70 <fma>
80007a08:	f7042703          	lw	a4,-144(s0)
80007a0c:	f7442783          	lw	a5,-140(s0)
80007a10:	000c0613          	mv	a2,s8
80007a14:	000c8693          	mv	a3,s9
80007a18:	f6a42c23          	sw	a0,-136(s0)
80007a1c:	f6b42e23          	sw	a1,-132(s0)
80007a20:	00090513          	mv	a0,s2
80007a24:	00098593          	mv	a1,s3
80007a28:	348040ef          	jal	ra,8000bd70 <fma>
80007a2c:	f6842703          	lw	a4,-152(s0)
80007a30:	f6c42783          	lw	a5,-148(s0)
80007a34:	f9842603          	lw	a2,-104(s0)
80007a38:	f9c42683          	lw	a3,-100(s0)
80007a3c:	f6a42823          	sw	a0,-144(s0)
80007a40:	f6b42a23          	sw	a1,-140(s0)
80007a44:	00090513          	mv	a0,s2
80007a48:	00098593          	mv	a1,s3
80007a4c:	324040ef          	jal	ra,8000bd70 <fma>
80007a50:	f6042703          	lw	a4,-160(s0)
80007a54:	f6442783          	lw	a5,-156(s0)
80007a58:	000d0613          	mv	a2,s10
80007a5c:	000d8693          	mv	a3,s11
80007a60:	f6a42423          	sw	a0,-152(s0)
80007a64:	f6b42623          	sw	a1,-148(s0)
80007a68:	00090513          	mv	a0,s2
80007a6c:	00098593          	mv	a1,s3
80007a70:	300040ef          	jal	ra,8000bd70 <fma>
80007a74:	f6b42223          	sw	a1,-156(s0)
80007a78:	fa842583          	lw	a1,-88(s0)
80007a7c:	f5842703          	lw	a4,-168(s0)
80007a80:	f5c42783          	lw	a5,-164(s0)
80007a84:	0105a903          	lw	s2,16(a1)
80007a88:	0145a983          	lw	s3,20(a1)
80007a8c:	000b0613          	mv	a2,s6
80007a90:	000b8693          	mv	a3,s7
80007a94:	f6a42023          	sw	a0,-160(s0)
80007a98:	00098593          	mv	a1,s3
80007a9c:	00090513          	mv	a0,s2
80007aa0:	2d0040ef          	jal	ra,8000bd70 <fma>
80007aa4:	f5042703          	lw	a4,-176(s0)
80007aa8:	f5442783          	lw	a5,-172(s0)
80007aac:	000a0613          	mv	a2,s4
80007ab0:	000a8693          	mv	a3,s5
80007ab4:	f4a42c23          	sw	a0,-168(s0)
80007ab8:	f4b42e23          	sw	a1,-164(s0)
80007abc:	00090513          	mv	a0,s2
80007ac0:	00098593          	mv	a1,s3
80007ac4:	2ac040ef          	jal	ra,8000bd70 <fma>
80007ac8:	f4842703          	lw	a4,-184(s0)
80007acc:	f4c42783          	lw	a5,-180(s0)
80007ad0:	000c0613          	mv	a2,s8
80007ad4:	000c8693          	mv	a3,s9
80007ad8:	f4a42823          	sw	a0,-176(s0)
80007adc:	f4b42a23          	sw	a1,-172(s0)
80007ae0:	00090513          	mv	a0,s2
80007ae4:	00098593          	mv	a1,s3
80007ae8:	288040ef          	jal	ra,8000bd70 <fma>
80007aec:	f4042703          	lw	a4,-192(s0)
80007af0:	f4442783          	lw	a5,-188(s0)
80007af4:	f9842603          	lw	a2,-104(s0)
80007af8:	f9c42683          	lw	a3,-100(s0)
80007afc:	f4a42423          	sw	a0,-184(s0)
80007b00:	f4b42623          	sw	a1,-180(s0)
80007b04:	00090513          	mv	a0,s2
80007b08:	00098593          	mv	a1,s3
80007b0c:	264040ef          	jal	ra,8000bd70 <fma>
80007b10:	f3842703          	lw	a4,-200(s0)
80007b14:	f3c42783          	lw	a5,-196(s0)
80007b18:	000d0613          	mv	a2,s10
80007b1c:	000d8693          	mv	a3,s11
80007b20:	f4a42023          	sw	a0,-192(s0)
80007b24:	f4b42223          	sw	a1,-188(s0)
80007b28:	00090513          	mv	a0,s2
80007b2c:	00098593          	mv	a1,s3
80007b30:	240040ef          	jal	ra,8000bd70 <fma>
80007b34:	fb042883          	lw	a7,-80(s0)
80007b38:	f3042703          	lw	a4,-208(s0)
80007b3c:	f3442783          	lw	a5,-204(s0)
80007b40:	0108a903          	lw	s2,16(a7)
80007b44:	0148a983          	lw	s3,20(a7)
80007b48:	000b0613          	mv	a2,s6
80007b4c:	000b8693          	mv	a3,s7
80007b50:	f2a42c23          	sw	a0,-200(s0)
80007b54:	f2b42e23          	sw	a1,-196(s0)
80007b58:	00090513          	mv	a0,s2
80007b5c:	00098593          	mv	a1,s3
80007b60:	210040ef          	jal	ra,8000bd70 <fma>
80007b64:	f2842703          	lw	a4,-216(s0)
80007b68:	f2c42783          	lw	a5,-212(s0)
80007b6c:	000a0613          	mv	a2,s4
80007b70:	000a8693          	mv	a3,s5
80007b74:	f2a42823          	sw	a0,-208(s0)
80007b78:	f2b42a23          	sw	a1,-204(s0)
80007b7c:	00090513          	mv	a0,s2
80007b80:	00098593          	mv	a1,s3
80007b84:	1ec040ef          	jal	ra,8000bd70 <fma>
80007b88:	f2042703          	lw	a4,-224(s0)
80007b8c:	f2442783          	lw	a5,-220(s0)
80007b90:	000c0613          	mv	a2,s8
80007b94:	000c8693          	mv	a3,s9
80007b98:	f2a42423          	sw	a0,-216(s0)
80007b9c:	f2b42623          	sw	a1,-212(s0)
80007ba0:	00090513          	mv	a0,s2
80007ba4:	00098593          	mv	a1,s3
80007ba8:	1c8040ef          	jal	ra,8000bd70 <fma>
80007bac:	e7442303          	lw	t1,-396(s0)
80007bb0:	f1842703          	lw	a4,-232(s0)
80007bb4:	f1c42783          	lw	a5,-228(s0)
80007bb8:	f9842603          	lw	a2,-104(s0)
80007bbc:	f9c42683          	lw	a3,-100(s0)
80007bc0:	f2a42023          	sw	a0,-224(s0)
80007bc4:	f2b42223          	sw	a1,-220(s0)
80007bc8:	00090513          	mv	a0,s2
80007bcc:	00098593          	mv	a1,s3
80007bd0:	00648c33          	add	s8,s1,t1
80007bd4:	19c040ef          	jal	ra,8000bd70 <fma>
80007bd8:	ef842e03          	lw	t3,-264(s0)
80007bdc:	efc42e83          	lw	t4,-260(s0)
80007be0:	000d0613          	mv	a2,s10
80007be4:	000e0713          	mv	a4,t3
80007be8:	000e8793          	mv	a5,t4
80007bec:	000d8693          	mv	a3,s11
80007bf0:	f0a42c23          	sw	a0,-232(s0)
80007bf4:	f0b42e23          	sw	a1,-228(s0)
80007bf8:	00090513          	mv	a0,s2
80007bfc:	00098593          	mv	a1,s3
80007c00:	170040ef          	jal	ra,8000bd70 <fma>
80007c04:	fb842783          	lw	a5,-72(s0)
80007c08:	000c2b03          	lw	s6,0(s8)
80007c0c:	004c2b83          	lw	s7,4(s8)
80007c10:	0187a903          	lw	s2,24(a5)
80007c14:	01c7a983          	lw	s3,28(a5)
80007c18:	eea42c23          	sw	a0,-264(s0)
80007c1c:	eeb42e23          	sw	a1,-260(s0)
80007c20:	f0042803          	lw	a6,-256(s0)
80007c24:	f0442883          	lw	a7,-252(s0)
80007c28:	000b0613          	mv	a2,s6
80007c2c:	00080713          	mv	a4,a6
80007c30:	00088793          	mv	a5,a7
80007c34:	000b8693          	mv	a3,s7
80007c38:	00090513          	mv	a0,s2
80007c3c:	00098593          	mv	a1,s3
80007c40:	130040ef          	jal	ra,8000bd70 <fma>
80007c44:	f0c42383          	lw	t2,-244(s0)
80007c48:	f0842303          	lw	t1,-248(s0)
80007c4c:	008c2a03          	lw	s4,8(s8)
80007c50:	00cc2a83          	lw	s5,12(s8)
80007c54:	00038793          	mv	a5,t2
80007c58:	00030713          	mv	a4,t1
80007c5c:	000a0613          	mv	a2,s4
80007c60:	000a8693          	mv	a3,s5
80007c64:	f0a42023          	sw	a0,-256(s0)
80007c68:	f0b42223          	sw	a1,-252(s0)
80007c6c:	00090513          	mv	a0,s2
80007c70:	00098593          	mv	a1,s3
80007c74:	0fc040ef          	jal	ra,8000bd70 <fma>
80007c78:	f1042f03          	lw	t5,-240(s0)
80007c7c:	f1442f83          	lw	t6,-236(s0)
80007c80:	010c2d03          	lw	s10,16(s8)
80007c84:	014c2d83          	lw	s11,20(s8)
80007c88:	000f0713          	mv	a4,t5
80007c8c:	000f8793          	mv	a5,t6
80007c90:	000d0613          	mv	a2,s10
80007c94:	000d8693          	mv	a3,s11
80007c98:	f0a42423          	sw	a0,-248(s0)
80007c9c:	f0b42623          	sw	a1,-244(s0)
80007ca0:	00090513          	mv	a0,s2
80007ca4:	00098593          	mv	a1,s3
80007ca8:	0c8040ef          	jal	ra,8000bd70 <fma>
80007cac:	018c2783          	lw	a5,24(s8)
80007cb0:	01cc2803          	lw	a6,28(s8)
80007cb4:	f9042703          	lw	a4,-112(s0)
80007cb8:	00078613          	mv	a2,a5
80007cbc:	f9442783          	lw	a5,-108(s0)
80007cc0:	00080693          	mv	a3,a6
80007cc4:	f0a42823          	sw	a0,-240(s0)
80007cc8:	f0b42a23          	sw	a1,-236(s0)
80007ccc:	00090513          	mv	a0,s2
80007cd0:	00098593          	mv	a1,s3
80007cd4:	f9042e23          	sw	a6,-100(s0)
80007cd8:	f8c42c23          	sw	a2,-104(s0)
80007cdc:	094040ef          	jal	ra,8000bd70 <fma>
80007ce0:	024c2c83          	lw	s9,36(s8)
80007ce4:	020c2c03          	lw	s8,32(s8)
80007ce8:	f8842703          	lw	a4,-120(s0)
80007cec:	f8c42783          	lw	a5,-116(s0)
80007cf0:	000c0613          	mv	a2,s8
80007cf4:	000c8693          	mv	a3,s9
80007cf8:	f8a42823          	sw	a0,-112(s0)
80007cfc:	f8b42a23          	sw	a1,-108(s0)
80007d00:	00090513          	mv	a0,s2
80007d04:	00098593          	mv	a1,s3
80007d08:	068040ef          	jal	ra,8000bd70 <fma>
80007d0c:	fa042683          	lw	a3,-96(s0)
80007d10:	f8042703          	lw	a4,-128(s0)
80007d14:	f8442783          	lw	a5,-124(s0)
80007d18:	0186a903          	lw	s2,24(a3)
80007d1c:	01c6a983          	lw	s3,28(a3)
80007d20:	000b0613          	mv	a2,s6
80007d24:	000b8693          	mv	a3,s7
80007d28:	f8a42423          	sw	a0,-120(s0)
80007d2c:	f8b42623          	sw	a1,-116(s0)
80007d30:	00090513          	mv	a0,s2
80007d34:	00098593          	mv	a1,s3
80007d38:	038040ef          	jal	ra,8000bd70 <fma>
80007d3c:	f7842703          	lw	a4,-136(s0)
80007d40:	f8a42023          	sw	a0,-128(s0)
80007d44:	f8b42223          	sw	a1,-124(s0)
80007d48:	f7c42783          	lw	a5,-132(s0)
80007d4c:	000a0613          	mv	a2,s4
80007d50:	000a8693          	mv	a3,s5
80007d54:	00090513          	mv	a0,s2
80007d58:	00098593          	mv	a1,s3
80007d5c:	014040ef          	jal	ra,8000bd70 <fma>
80007d60:	f7042703          	lw	a4,-144(s0)
80007d64:	f7442783          	lw	a5,-140(s0)
80007d68:	000d0613          	mv	a2,s10
80007d6c:	000d8693          	mv	a3,s11
80007d70:	f6a42c23          	sw	a0,-136(s0)
80007d74:	f6b42e23          	sw	a1,-132(s0)
80007d78:	00090513          	mv	a0,s2
80007d7c:	00098593          	mv	a1,s3
80007d80:	7f1030ef          	jal	ra,8000bd70 <fma>
80007d84:	f6842703          	lw	a4,-152(s0)
80007d88:	f6c42783          	lw	a5,-148(s0)
80007d8c:	f9842603          	lw	a2,-104(s0)
80007d90:	f9c42683          	lw	a3,-100(s0)
80007d94:	f6a42823          	sw	a0,-144(s0)
80007d98:	f6b42a23          	sw	a1,-140(s0)
80007d9c:	00090513          	mv	a0,s2
80007da0:	00098593          	mv	a1,s3
80007da4:	7cd030ef          	jal	ra,8000bd70 <fma>
80007da8:	f6042703          	lw	a4,-160(s0)
80007dac:	f6442783          	lw	a5,-156(s0)
80007db0:	000c0613          	mv	a2,s8
80007db4:	000c8693          	mv	a3,s9
80007db8:	f6a42423          	sw	a0,-152(s0)
80007dbc:	f6b42623          	sw	a1,-148(s0)
80007dc0:	00090513          	mv	a0,s2
80007dc4:	00098593          	mv	a1,s3
80007dc8:	7a9030ef          	jal	ra,8000bd70 <fma>
80007dcc:	f6b42223          	sw	a1,-156(s0)
80007dd0:	fa842583          	lw	a1,-88(s0)
80007dd4:	f5842703          	lw	a4,-168(s0)
80007dd8:	f5c42783          	lw	a5,-164(s0)
80007ddc:	0185a903          	lw	s2,24(a1)
80007de0:	01c5a983          	lw	s3,28(a1)
80007de4:	000b0613          	mv	a2,s6
80007de8:	000b8693          	mv	a3,s7
80007dec:	f6a42023          	sw	a0,-160(s0)
80007df0:	00098593          	mv	a1,s3
80007df4:	00090513          	mv	a0,s2
80007df8:	779030ef          	jal	ra,8000bd70 <fma>
80007dfc:	f5042703          	lw	a4,-176(s0)
80007e00:	f5442783          	lw	a5,-172(s0)
80007e04:	000a0613          	mv	a2,s4
80007e08:	000a8693          	mv	a3,s5
80007e0c:	f4a42c23          	sw	a0,-168(s0)
80007e10:	f4b42e23          	sw	a1,-164(s0)
80007e14:	00090513          	mv	a0,s2
80007e18:	00098593          	mv	a1,s3
80007e1c:	755030ef          	jal	ra,8000bd70 <fma>
80007e20:	f4842703          	lw	a4,-184(s0)
80007e24:	f4c42783          	lw	a5,-180(s0)
80007e28:	000d0613          	mv	a2,s10
80007e2c:	000d8693          	mv	a3,s11
80007e30:	f4a42823          	sw	a0,-176(s0)
80007e34:	f4b42a23          	sw	a1,-172(s0)
80007e38:	00090513          	mv	a0,s2
80007e3c:	00098593          	mv	a1,s3
80007e40:	731030ef          	jal	ra,8000bd70 <fma>
80007e44:	f4442783          	lw	a5,-188(s0)
80007e48:	f4042703          	lw	a4,-192(s0)
80007e4c:	f9842603          	lw	a2,-104(s0)
80007e50:	f9c42683          	lw	a3,-100(s0)
80007e54:	f4a42423          	sw	a0,-184(s0)
80007e58:	f4b42623          	sw	a1,-180(s0)
80007e5c:	00090513          	mv	a0,s2
80007e60:	00098593          	mv	a1,s3
80007e64:	70d030ef          	jal	ra,8000bd70 <fma>
80007e68:	f4a42023          	sw	a0,-192(s0)
80007e6c:	f4b42223          	sw	a1,-188(s0)
80007e70:	f3842703          	lw	a4,-200(s0)
80007e74:	f3c42783          	lw	a5,-196(s0)
80007e78:	000c0613          	mv	a2,s8
80007e7c:	000c8693          	mv	a3,s9
80007e80:	00090513          	mv	a0,s2
80007e84:	00098593          	mv	a1,s3
80007e88:	6e9030ef          	jal	ra,8000bd70 <fma>
80007e8c:	fb042883          	lw	a7,-80(s0)
80007e90:	f3042703          	lw	a4,-208(s0)
80007e94:	f3442783          	lw	a5,-204(s0)
80007e98:	0188a903          	lw	s2,24(a7)
80007e9c:	01c8a983          	lw	s3,28(a7)
80007ea0:	000b0613          	mv	a2,s6
80007ea4:	000b8693          	mv	a3,s7
80007ea8:	f2a42c23          	sw	a0,-200(s0)
80007eac:	f2b42e23          	sw	a1,-196(s0)
80007eb0:	00090513          	mv	a0,s2
80007eb4:	00098593          	mv	a1,s3
80007eb8:	6b9030ef          	jal	ra,8000bd70 <fma>
80007ebc:	f2842703          	lw	a4,-216(s0)
80007ec0:	f2c42783          	lw	a5,-212(s0)
80007ec4:	000a0613          	mv	a2,s4
80007ec8:	000a8693          	mv	a3,s5
80007ecc:	f2a42823          	sw	a0,-208(s0)
80007ed0:	f2b42a23          	sw	a1,-204(s0)
80007ed4:	00090513          	mv	a0,s2
80007ed8:	00098593          	mv	a1,s3
80007edc:	695030ef          	jal	ra,8000bd70 <fma>
80007ee0:	f2042703          	lw	a4,-224(s0)
80007ee4:	f2442783          	lw	a5,-220(s0)
80007ee8:	000d0613          	mv	a2,s10
80007eec:	000d8693          	mv	a3,s11
80007ef0:	f2a42423          	sw	a0,-216(s0)
80007ef4:	f2b42623          	sw	a1,-212(s0)
80007ef8:	00090513          	mv	a0,s2
80007efc:	00098593          	mv	a1,s3
80007f00:	671030ef          	jal	ra,8000bd70 <fma>
80007f04:	e7842303          	lw	t1,-392(s0)
80007f08:	f1842703          	lw	a4,-232(s0)
80007f0c:	f1c42783          	lw	a5,-228(s0)
80007f10:	f9842603          	lw	a2,-104(s0)
80007f14:	f9c42683          	lw	a3,-100(s0)
80007f18:	f2a42023          	sw	a0,-224(s0)
80007f1c:	f2b42223          	sw	a1,-220(s0)
80007f20:	00090513          	mv	a0,s2
80007f24:	00098593          	mv	a1,s3
80007f28:	00930d33          	add	s10,t1,s1
80007f2c:	645030ef          	jal	ra,8000bd70 <fma>
80007f30:	ef842e03          	lw	t3,-264(s0)
80007f34:	efc42e83          	lw	t4,-260(s0)
80007f38:	000c0613          	mv	a2,s8
80007f3c:	000e0713          	mv	a4,t3
80007f40:	000e8793          	mv	a5,t4
80007f44:	000c8693          	mv	a3,s9
80007f48:	f0a42c23          	sw	a0,-232(s0)
80007f4c:	f0b42e23          	sw	a1,-228(s0)
80007f50:	00090513          	mv	a0,s2
80007f54:	00098593          	mv	a1,s3
80007f58:	619030ef          	jal	ra,8000bd70 <fma>
80007f5c:	fb842783          	lw	a5,-72(s0)
80007f60:	000d2b03          	lw	s6,0(s10)
80007f64:	004d2b83          	lw	s7,4(s10)
80007f68:	0207a903          	lw	s2,32(a5)
80007f6c:	0247a983          	lw	s3,36(a5)
80007f70:	f0042803          	lw	a6,-256(s0)
80007f74:	e8a42023          	sw	a0,-384(s0)
80007f78:	e8b42223          	sw	a1,-380(s0)
80007f7c:	f0442883          	lw	a7,-252(s0)
80007f80:	00080713          	mv	a4,a6
80007f84:	000b0613          	mv	a2,s6
80007f88:	00088793          	mv	a5,a7
80007f8c:	000b8693          	mv	a3,s7
80007f90:	00090513          	mv	a0,s2
80007f94:	00098593          	mv	a1,s3
80007f98:	5d9030ef          	jal	ra,8000bd70 <fma>
80007f9c:	f0c42383          	lw	t2,-244(s0)
80007fa0:	f0842303          	lw	t1,-248(s0)
80007fa4:	008d2a03          	lw	s4,8(s10)
80007fa8:	00cd2a83          	lw	s5,12(s10)
80007fac:	00038793          	mv	a5,t2
80007fb0:	00030713          	mv	a4,t1
80007fb4:	000a0613          	mv	a2,s4
80007fb8:	000a8693          	mv	a3,s5
80007fbc:	e8a42423          	sw	a0,-376(s0)
80007fc0:	e8b42623          	sw	a1,-372(s0)
80007fc4:	00090513          	mv	a0,s2
80007fc8:	00098593          	mv	a1,s3
80007fcc:	5a5030ef          	jal	ra,8000bd70 <fma>
80007fd0:	f1042f03          	lw	t5,-240(s0)
80007fd4:	f1442f83          	lw	t6,-236(s0)
80007fd8:	010d2c03          	lw	s8,16(s10)
80007fdc:	014d2c83          	lw	s9,20(s10)
80007fe0:	000f0713          	mv	a4,t5
80007fe4:	000f8793          	mv	a5,t6
80007fe8:	000c0613          	mv	a2,s8
80007fec:	000c8693          	mv	a3,s9
80007ff0:	e6a42023          	sw	a0,-416(s0)
80007ff4:	e6b42223          	sw	a1,-412(s0)
80007ff8:	00090513          	mv	a0,s2
80007ffc:	00098593          	mv	a1,s3
80008000:	571030ef          	jal	ra,8000bd70 <fma>
80008004:	018d2783          	lw	a5,24(s10)
80008008:	01cd2803          	lw	a6,28(s10)
8000800c:	f9042703          	lw	a4,-112(s0)
80008010:	00078613          	mv	a2,a5
80008014:	f9442783          	lw	a5,-108(s0)
80008018:	00080693          	mv	a3,a6
8000801c:	e6a42423          	sw	a0,-408(s0)
80008020:	e6b42623          	sw	a1,-404(s0)
80008024:	00090513          	mv	a0,s2
80008028:	00098593          	mv	a1,s3
8000802c:	f9042e23          	sw	a6,-100(s0)
80008030:	f8c42c23          	sw	a2,-104(s0)
80008034:	53d030ef          	jal	ra,8000bd70 <fma>
80008038:	024d2d83          	lw	s11,36(s10)
8000803c:	020d2d03          	lw	s10,32(s10)
80008040:	f8842703          	lw	a4,-120(s0)
80008044:	f8c42783          	lw	a5,-116(s0)
80008048:	000d0613          	mv	a2,s10
8000804c:	000d8693          	mv	a3,s11
80008050:	f0a42823          	sw	a0,-240(s0)
80008054:	f0b42a23          	sw	a1,-236(s0)
80008058:	00090513          	mv	a0,s2
8000805c:	00098593          	mv	a1,s3
80008060:	511030ef          	jal	ra,8000bd70 <fma>
80008064:	fa042683          	lw	a3,-96(s0)
80008068:	f8042703          	lw	a4,-128(s0)
8000806c:	f8442783          	lw	a5,-124(s0)
80008070:	0206a903          	lw	s2,32(a3)
80008074:	0246a983          	lw	s3,36(a3)
80008078:	000b0613          	mv	a2,s6
8000807c:	000b8693          	mv	a3,s7
80008080:	f0a42423          	sw	a0,-248(s0)
80008084:	f0b42623          	sw	a1,-244(s0)
80008088:	00090513          	mv	a0,s2
8000808c:	00098593          	mv	a1,s3
80008090:	4e1030ef          	jal	ra,8000bd70 <fma>
80008094:	f7842703          	lw	a4,-136(s0)
80008098:	f7c42783          	lw	a5,-132(s0)
8000809c:	000a0613          	mv	a2,s4
800080a0:	000a8693          	mv	a3,s5
800080a4:	f0a42023          	sw	a0,-256(s0)
800080a8:	f0b42223          	sw	a1,-252(s0)
800080ac:	00090513          	mv	a0,s2
800080b0:	00098593          	mv	a1,s3
800080b4:	4bd030ef          	jal	ra,8000bd70 <fma>
800080b8:	f7042703          	lw	a4,-144(s0)
800080bc:	f7442783          	lw	a5,-140(s0)
800080c0:	000c0613          	mv	a2,s8
800080c4:	000c8693          	mv	a3,s9
800080c8:	eea42c23          	sw	a0,-264(s0)
800080cc:	eeb42e23          	sw	a1,-260(s0)
800080d0:	00090513          	mv	a0,s2
800080d4:	00098593          	mv	a1,s3
800080d8:	499030ef          	jal	ra,8000bd70 <fma>
800080dc:	f6842703          	lw	a4,-152(s0)
800080e0:	f6c42783          	lw	a5,-148(s0)
800080e4:	f9842603          	lw	a2,-104(s0)
800080e8:	f9c42683          	lw	a3,-100(s0)
800080ec:	eea42823          	sw	a0,-272(s0)
800080f0:	eeb42a23          	sw	a1,-268(s0)
800080f4:	00090513          	mv	a0,s2
800080f8:	00098593          	mv	a1,s3
800080fc:	475030ef          	jal	ra,8000bd70 <fma>
80008100:	f6042703          	lw	a4,-160(s0)
80008104:	f6442783          	lw	a5,-156(s0)
80008108:	000d0613          	mv	a2,s10
8000810c:	000d8693          	mv	a3,s11
80008110:	eea42423          	sw	a0,-280(s0)
80008114:	eeb42623          	sw	a1,-276(s0)
80008118:	00090513          	mv	a0,s2
8000811c:	00098593          	mv	a1,s3
80008120:	451030ef          	jal	ra,8000bd70 <fma>
80008124:	eeb42223          	sw	a1,-284(s0)
80008128:	fa842583          	lw	a1,-88(s0)
8000812c:	f5842703          	lw	a4,-168(s0)
80008130:	f5c42783          	lw	a5,-164(s0)
80008134:	0205a903          	lw	s2,32(a1)
80008138:	0245a983          	lw	s3,36(a1)
8000813c:	000b0613          	mv	a2,s6
80008140:	000b8693          	mv	a3,s7
80008144:	eea42023          	sw	a0,-288(s0)
80008148:	00098593          	mv	a1,s3
8000814c:	00090513          	mv	a0,s2
80008150:	421030ef          	jal	ra,8000bd70 <fma>
80008154:	f5042703          	lw	a4,-176(s0)
80008158:	f5442783          	lw	a5,-172(s0)
8000815c:	000a0613          	mv	a2,s4
80008160:	000a8693          	mv	a3,s5
80008164:	eca42c23          	sw	a0,-296(s0)
80008168:	ecb42e23          	sw	a1,-292(s0)
8000816c:	00090513          	mv	a0,s2
80008170:	00098593          	mv	a1,s3
80008174:	3fd030ef          	jal	ra,8000bd70 <fma>
80008178:	f4842703          	lw	a4,-184(s0)
8000817c:	f4c42783          	lw	a5,-180(s0)
80008180:	000c0613          	mv	a2,s8
80008184:	000c8693          	mv	a3,s9
80008188:	eca42823          	sw	a0,-304(s0)
8000818c:	ecb42a23          	sw	a1,-300(s0)
80008190:	00090513          	mv	a0,s2
80008194:	00098593          	mv	a1,s3
80008198:	3d9030ef          	jal	ra,8000bd70 <fma>
8000819c:	f4042703          	lw	a4,-192(s0)
800081a0:	f9842603          	lw	a2,-104(s0)
800081a4:	f9c42683          	lw	a3,-100(s0)
800081a8:	f4442783          	lw	a5,-188(s0)
800081ac:	eca42423          	sw	a0,-312(s0)
800081b0:	ecb42623          	sw	a1,-308(s0)
800081b4:	00090513          	mv	a0,s2
800081b8:	00098593          	mv	a1,s3
800081bc:	3b5030ef          	jal	ra,8000bd70 <fma>
800081c0:	f3842703          	lw	a4,-200(s0)
800081c4:	eca42023          	sw	a0,-320(s0)
800081c8:	ecb42223          	sw	a1,-316(s0)
800081cc:	f3c42783          	lw	a5,-196(s0)
800081d0:	000d0613          	mv	a2,s10
800081d4:	000d8693          	mv	a3,s11
800081d8:	00090513          	mv	a0,s2
800081dc:	00098593          	mv	a1,s3
800081e0:	391030ef          	jal	ra,8000bd70 <fma>
800081e4:	fb042883          	lw	a7,-80(s0)
800081e8:	f3042703          	lw	a4,-208(s0)
800081ec:	f3442783          	lw	a5,-204(s0)
800081f0:	0208a903          	lw	s2,32(a7)
800081f4:	0248a983          	lw	s3,36(a7)
800081f8:	000b0613          	mv	a2,s6
800081fc:	000b8693          	mv	a3,s7
80008200:	eaa42c23          	sw	a0,-328(s0)
80008204:	eab42e23          	sw	a1,-324(s0)
80008208:	00090513          	mv	a0,s2
8000820c:	00098593          	mv	a1,s3
80008210:	361030ef          	jal	ra,8000bd70 <fma>
80008214:	f2842703          	lw	a4,-216(s0)
80008218:	f2c42783          	lw	a5,-212(s0)
8000821c:	000a0613          	mv	a2,s4
80008220:	000a8693          	mv	a3,s5
80008224:	eaa42823          	sw	a0,-336(s0)
80008228:	eab42a23          	sw	a1,-332(s0)
8000822c:	00090513          	mv	a0,s2
80008230:	00098593          	mv	a1,s3
80008234:	33d030ef          	jal	ra,8000bd70 <fma>
80008238:	f2042703          	lw	a4,-224(s0)
8000823c:	f2442783          	lw	a5,-220(s0)
80008240:	000c0613          	mv	a2,s8
80008244:	000c8693          	mv	a3,s9
80008248:	eaa42423          	sw	a0,-344(s0)
8000824c:	eab42623          	sw	a1,-340(s0)
80008250:	00090513          	mv	a0,s2
80008254:	00098593          	mv	a1,s3
80008258:	319030ef          	jal	ra,8000bd70 <fma>
8000825c:	e7042303          	lw	t1,-400(s0)
80008260:	f1842703          	lw	a4,-232(s0)
80008264:	f1c42783          	lw	a5,-228(s0)
80008268:	f9842603          	lw	a2,-104(s0)
8000826c:	f9c42683          	lw	a3,-100(s0)
80008270:	eaa42023          	sw	a0,-352(s0)
80008274:	eab42223          	sw	a1,-348(s0)
80008278:	00090513          	mv	a0,s2
8000827c:	00098593          	mv	a1,s3
80008280:	00648c33          	add	s8,s1,t1
80008284:	2ed030ef          	jal	ra,8000bd70 <fma>
80008288:	e8042e03          	lw	t3,-384(s0)
8000828c:	e8442e83          	lw	t4,-380(s0)
80008290:	000d0613          	mv	a2,s10
80008294:	000e0713          	mv	a4,t3
80008298:	000e8793          	mv	a5,t4
8000829c:	000d8693          	mv	a3,s11
800082a0:	e8a42c23          	sw	a0,-360(s0)
800082a4:	e8b42e23          	sw	a1,-356(s0)
800082a8:	00090513          	mv	a0,s2
800082ac:	00098593          	mv	a1,s3
800082b0:	2c1030ef          	jal	ra,8000bd70 <fma>
800082b4:	fb842783          	lw	a5,-72(s0)
800082b8:	e8c42883          	lw	a7,-372(s0)
800082bc:	000c2b03          	lw	s6,0(s8)
800082c0:	0287a903          	lw	s2,40(a5)
800082c4:	02c7a983          	lw	s3,44(a5)
800082c8:	004c2b83          	lw	s7,4(s8)
800082cc:	e8842803          	lw	a6,-376(s0)
800082d0:	00088793          	mv	a5,a7
800082d4:	e8a42023          	sw	a0,-384(s0)
800082d8:	00080713          	mv	a4,a6
800082dc:	e8b42223          	sw	a1,-380(s0)
800082e0:	00090513          	mv	a0,s2
800082e4:	00098593          	mv	a1,s3
800082e8:	000b0613          	mv	a2,s6
800082ec:	000b8693          	mv	a3,s7
800082f0:	281030ef          	jal	ra,8000bd70 <fma>
800082f4:	e6042303          	lw	t1,-416(s0)
800082f8:	e6442383          	lw	t2,-412(s0)
800082fc:	008c2a03          	lw	s4,8(s8)
80008300:	00cc2a83          	lw	s5,12(s8)
80008304:	00030713          	mv	a4,t1
80008308:	00038793          	mv	a5,t2
8000830c:	e8a42423          	sw	a0,-376(s0)
80008310:	e8b42623          	sw	a1,-372(s0)
80008314:	00090513          	mv	a0,s2
80008318:	00098593          	mv	a1,s3
8000831c:	000a0613          	mv	a2,s4
80008320:	000a8693          	mv	a3,s5
80008324:	24d030ef          	jal	ra,8000bd70 <fma>
80008328:	e6842f03          	lw	t5,-408(s0)
8000832c:	e6c42f83          	lw	t6,-404(s0)
80008330:	010c2d03          	lw	s10,16(s8)
80008334:	014c2d83          	lw	s11,20(s8)
80008338:	000f0713          	mv	a4,t5
8000833c:	000f8793          	mv	a5,t6
80008340:	f8a42c23          	sw	a0,-104(s0)
80008344:	f8b42e23          	sw	a1,-100(s0)
80008348:	00090513          	mv	a0,s2
8000834c:	00098593          	mv	a1,s3
80008350:	000d0613          	mv	a2,s10
80008354:	000d8693          	mv	a3,s11
80008358:	219030ef          	jal	ra,8000bd70 <fma>
8000835c:	018c2783          	lw	a5,24(s8)
80008360:	01cc2803          	lw	a6,28(s8)
80008364:	f1042703          	lw	a4,-240(s0)
80008368:	00078613          	mv	a2,a5
8000836c:	f1442783          	lw	a5,-236(s0)
80008370:	00080693          	mv	a3,a6
80008374:	f8a42823          	sw	a0,-112(s0)
80008378:	f8b42a23          	sw	a1,-108(s0)
8000837c:	00090513          	mv	a0,s2
80008380:	00098593          	mv	a1,s3
80008384:	f1042a23          	sw	a6,-236(s0)
80008388:	f0c42823          	sw	a2,-240(s0)
8000838c:	1e5030ef          	jal	ra,8000bd70 <fma>
80008390:	024c2c83          	lw	s9,36(s8)
80008394:	020c2c03          	lw	s8,32(s8)
80008398:	f0842703          	lw	a4,-248(s0)
8000839c:	f0c42783          	lw	a5,-244(s0)
800083a0:	f8a42423          	sw	a0,-120(s0)
800083a4:	f8b42623          	sw	a1,-116(s0)
800083a8:	00090513          	mv	a0,s2
800083ac:	00098593          	mv	a1,s3
800083b0:	000c0613          	mv	a2,s8
800083b4:	000c8693          	mv	a3,s9
800083b8:	1b9030ef          	jal	ra,8000bd70 <fma>
800083bc:	fa042683          	lw	a3,-96(s0)
800083c0:	f0042703          	lw	a4,-256(s0)
800083c4:	f0442783          	lw	a5,-252(s0)
800083c8:	0286a903          	lw	s2,40(a3)
800083cc:	02c6a983          	lw	s3,44(a3)
800083d0:	f8a42023          	sw	a0,-128(s0)
800083d4:	f8b42223          	sw	a1,-124(s0)
800083d8:	000b0613          	mv	a2,s6
800083dc:	000b8693          	mv	a3,s7
800083e0:	00090513          	mv	a0,s2
800083e4:	00098593          	mv	a1,s3
800083e8:	189030ef          	jal	ra,8000bd70 <fma>
800083ec:	efc42783          	lw	a5,-260(s0)
800083f0:	ef842703          	lw	a4,-264(s0)
800083f4:	f6a42c23          	sw	a0,-136(s0)
800083f8:	f6b42e23          	sw	a1,-132(s0)
800083fc:	000a0613          	mv	a2,s4
80008400:	000a8693          	mv	a3,s5
80008404:	00090513          	mv	a0,s2
80008408:	00098593          	mv	a1,s3
8000840c:	165030ef          	jal	ra,8000bd70 <fma>
80008410:	f6a42823          	sw	a0,-144(s0)
80008414:	f6b42a23          	sw	a1,-140(s0)
80008418:	ef042703          	lw	a4,-272(s0)
8000841c:	ef442783          	lw	a5,-268(s0)
80008420:	000d0613          	mv	a2,s10
80008424:	000d8693          	mv	a3,s11
80008428:	00090513          	mv	a0,s2
8000842c:	00098593          	mv	a1,s3
80008430:	141030ef          	jal	ra,8000bd70 <fma>
80008434:	ee842703          	lw	a4,-280(s0)
80008438:	eec42783          	lw	a5,-276(s0)
8000843c:	f1042603          	lw	a2,-240(s0)
80008440:	f1442683          	lw	a3,-236(s0)
80008444:	f6a42423          	sw	a0,-152(s0)
80008448:	f6b42623          	sw	a1,-148(s0)
8000844c:	00090513          	mv	a0,s2
80008450:	00098593          	mv	a1,s3
80008454:	11d030ef          	jal	ra,8000bd70 <fma>
80008458:	ee042703          	lw	a4,-288(s0)
8000845c:	ee442783          	lw	a5,-284(s0)
80008460:	f6a42023          	sw	a0,-160(s0)
80008464:	f6b42223          	sw	a1,-156(s0)
80008468:	000c0613          	mv	a2,s8
8000846c:	000c8693          	mv	a3,s9
80008470:	00090513          	mv	a0,s2
80008474:	00098593          	mv	a1,s3
80008478:	0f9030ef          	jal	ra,8000bd70 <fma>
8000847c:	f4b42e23          	sw	a1,-164(s0)
80008480:	fa842583          	lw	a1,-88(s0)
80008484:	ed842703          	lw	a4,-296(s0)
80008488:	edc42783          	lw	a5,-292(s0)
8000848c:	0285a903          	lw	s2,40(a1)
80008490:	02c5a983          	lw	s3,44(a1)
80008494:	f4a42c23          	sw	a0,-168(s0)
80008498:	000b0613          	mv	a2,s6
8000849c:	000b8693          	mv	a3,s7
800084a0:	00090513          	mv	a0,s2
800084a4:	00098593          	mv	a1,s3
800084a8:	0c9030ef          	jal	ra,8000bd70 <fma>
800084ac:	ed042703          	lw	a4,-304(s0)
800084b0:	ed442783          	lw	a5,-300(s0)
800084b4:	f4a42823          	sw	a0,-176(s0)
800084b8:	f4b42a23          	sw	a1,-172(s0)
800084bc:	000a0613          	mv	a2,s4
800084c0:	000a8693          	mv	a3,s5
800084c4:	00090513          	mv	a0,s2
800084c8:	00098593          	mv	a1,s3
800084cc:	0a5030ef          	jal	ra,8000bd70 <fma>
800084d0:	ec842703          	lw	a4,-312(s0)
800084d4:	ecc42783          	lw	a5,-308(s0)
800084d8:	f4a42423          	sw	a0,-184(s0)
800084dc:	f4b42623          	sw	a1,-180(s0)
800084e0:	000d0613          	mv	a2,s10
800084e4:	000d8693          	mv	a3,s11
800084e8:	00090513          	mv	a0,s2
800084ec:	00098593          	mv	a1,s3
800084f0:	081030ef          	jal	ra,8000bd70 <fma>
800084f4:	ec042703          	lw	a4,-320(s0)
800084f8:	ec442783          	lw	a5,-316(s0)
800084fc:	f1042603          	lw	a2,-240(s0)
80008500:	f1442683          	lw	a3,-236(s0)
80008504:	f4a42023          	sw	a0,-192(s0)
80008508:	f4b42223          	sw	a1,-188(s0)
8000850c:	00090513          	mv	a0,s2
80008510:	00098593          	mv	a1,s3
80008514:	05d030ef          	jal	ra,8000bd70 <fma>
80008518:	eb842703          	lw	a4,-328(s0)
8000851c:	ebc42783          	lw	a5,-324(s0)
80008520:	f2a42c23          	sw	a0,-200(s0)
80008524:	f2b42e23          	sw	a1,-196(s0)
80008528:	000c0613          	mv	a2,s8
8000852c:	000c8693          	mv	a3,s9
80008530:	00090513          	mv	a0,s2
80008534:	00098593          	mv	a1,s3
80008538:	039030ef          	jal	ra,8000bd70 <fma>
8000853c:	fb042883          	lw	a7,-80(s0)
80008540:	eb042703          	lw	a4,-336(s0)
80008544:	eb442783          	lw	a5,-332(s0)
80008548:	0288a903          	lw	s2,40(a7)
8000854c:	02c8a983          	lw	s3,44(a7)
80008550:	f2a42823          	sw	a0,-208(s0)
80008554:	f2b42a23          	sw	a1,-204(s0)
80008558:	000b0613          	mv	a2,s6
8000855c:	000b8693          	mv	a3,s7
80008560:	00090513          	mv	a0,s2
80008564:	00098593          	mv	a1,s3
80008568:	009030ef          	jal	ra,8000bd70 <fma>
8000856c:	ea842703          	lw	a4,-344(s0)
80008570:	eac42783          	lw	a5,-340(s0)
80008574:	f2a42423          	sw	a0,-216(s0)
80008578:	f2b42623          	sw	a1,-212(s0)
8000857c:	000a0613          	mv	a2,s4
80008580:	000a8693          	mv	a3,s5
80008584:	00090513          	mv	a0,s2
80008588:	00098593          	mv	a1,s3
8000858c:	7e4030ef          	jal	ra,8000bd70 <fma>
80008590:	ea042703          	lw	a4,-352(s0)
80008594:	ea442783          	lw	a5,-348(s0)
80008598:	f2a42023          	sw	a0,-224(s0)
8000859c:	f2b42223          	sw	a1,-220(s0)
800085a0:	000d0613          	mv	a2,s10
800085a4:	000d8693          	mv	a3,s11
800085a8:	00090513          	mv	a0,s2
800085ac:	00098593          	mv	a1,s3
800085b0:	7c0030ef          	jal	ra,8000bd70 <fma>
800085b4:	f1042603          	lw	a2,-240(s0)
800085b8:	f1442683          	lw	a3,-236(s0)
800085bc:	e9842703          	lw	a4,-360(s0)
800085c0:	e9c42783          	lw	a5,-356(s0)
800085c4:	f0a42c23          	sw	a0,-232(s0)
800085c8:	f0b42e23          	sw	a1,-228(s0)
800085cc:	00090513          	mv	a0,s2
800085d0:	00098593          	mv	a1,s3
800085d4:	79c030ef          	jal	ra,8000bd70 <fma>
800085d8:	fb842803          	lw	a6,-72(s0)
800085dc:	e8042e03          	lw	t3,-384(s0)
800085e0:	e8442e83          	lw	t4,-380(s0)
800085e4:	f0a42823          	sw	a0,-240(s0)
800085e8:	f0b42a23          	sw	a1,-236(s0)
800085ec:	000e8793          	mv	a5,t4
800085f0:	000e0713          	mv	a4,t3
800085f4:	000c8693          	mv	a3,s9
800085f8:	00090513          	mv	a0,s2
800085fc:	000c0613          	mv	a2,s8
80008600:	03080913          	addi	s2,a6,48
80008604:	00098593          	mv	a1,s3
80008608:	fb242c23          	sw	s2,-72(s0)
8000860c:	764030ef          	jal	ra,8000bd70 <fma>
80008610:	e9042783          	lw	a5,-368(s0)
80008614:	fa042683          	lw	a3,-96(s0)
80008618:	00058e93          	mv	t4,a1
8000861c:	fa842583          	lw	a1,-88(s0)
80008620:	fb042883          	lw	a7,-80(s0)
80008624:	00f484b3          	add	s1,s1,a5
80008628:	03068793          	addi	a5,a3,48
8000862c:	faf42023          	sw	a5,-96(s0)
80008630:	03058793          	addi	a5,a1,48
80008634:	faf42423          	sw	a5,-88(s0)
80008638:	03088793          	addi	a5,a7,48
8000863c:	faf42823          	sw	a5,-80(s0)
80008640:	e5c42783          	lw	a5,-420(s0)
80008644:	00050e13          	mv	t3,a0
80008648:	e8842803          	lw	a6,-376(s0)
8000864c:	e8c42883          	lw	a7,-372(s0)
80008650:	00f97463          	bleu	a5,s2,80008658 <mm_cb+0x72ac>
80008654:	bc1fe06f          	j	80007214 <mm_cb+0x5e68>
80008658:	e0c42783          	lw	a5,-500(s0)
8000865c:	e5442703          	lw	a4,-428(s0)
80008660:	e5c42303          	lw	t1,-420(s0)
80008664:	00e784b3          	add	s1,a5,a4
80008668:	e5842783          	lw	a5,-424(s0)
8000866c:	38f37c63          	bleu	a5,t1,80008a04 <mm_cb+0x7658>
80008670:	e0842783          	lw	a5,-504(s0)
80008674:	e3842703          	lw	a4,-456(s0)
80008678:	00030b93          	mv	s7,t1
8000867c:	00e78b33          	add	s6,a5,a4
80008680:	e3c42703          	lw	a4,-452(s0)
80008684:	00e78ab3          	add	s5,a5,a4
80008688:	e4042703          	lw	a4,-448(s0)
8000868c:	00e78a33          	add	s4,a5,a4
80008690:	000ba903          	lw	s2,0(s7)
80008694:	004ba983          	lw	s3,4(s7)
80008698:	0004ac03          	lw	s8,0(s1)
8000869c:	0044ac83          	lw	s9,4(s1)
800086a0:	00088793          	mv	a5,a7
800086a4:	00080713          	mv	a4,a6
800086a8:	00090513          	mv	a0,s2
800086ac:	00098593          	mv	a1,s3
800086b0:	000c0613          	mv	a2,s8
800086b4:	000c8693          	mv	a3,s9
800086b8:	f1c42423          	sw	t3,-248(s0)
800086bc:	f1d42623          	sw	t4,-244(s0)
800086c0:	6b0030ef          	jal	ra,8000bd70 <fma>
800086c4:	0084ad03          	lw	s10,8(s1)
800086c8:	00c4ad83          	lw	s11,12(s1)
800086cc:	f9842703          	lw	a4,-104(s0)
800086d0:	f9c42783          	lw	a5,-100(s0)
800086d4:	faa42023          	sw	a0,-96(s0)
800086d8:	fab42223          	sw	a1,-92(s0)
800086dc:	00090513          	mv	a0,s2
800086e0:	00098593          	mv	a1,s3
800086e4:	000d0613          	mv	a2,s10
800086e8:	000d8693          	mv	a3,s11
800086ec:	684030ef          	jal	ra,8000bd70 <fma>
800086f0:	0104a783          	lw	a5,16(s1)
800086f4:	0144a803          	lw	a6,20(s1)
800086f8:	f9042703          	lw	a4,-112(s0)
800086fc:	00078613          	mv	a2,a5
80008700:	f9442783          	lw	a5,-108(s0)
80008704:	00080693          	mv	a3,a6
80008708:	f8a42c23          	sw	a0,-104(s0)
8000870c:	f8b42e23          	sw	a1,-100(s0)
80008710:	00090513          	mv	a0,s2
80008714:	00098593          	mv	a1,s3
80008718:	fac42c23          	sw	a2,-72(s0)
8000871c:	fb042e23          	sw	a6,-68(s0)
80008720:	650030ef          	jal	ra,8000bd70 <fma>
80008724:	0184a703          	lw	a4,24(s1)
80008728:	01c4a783          	lw	a5,28(s1)
8000872c:	f8a42823          	sw	a0,-112(s0)
80008730:	00070813          	mv	a6,a4
80008734:	00078893          	mv	a7,a5
80008738:	f8842703          	lw	a4,-120(s0)
8000873c:	f8c42783          	lw	a5,-116(s0)
80008740:	00080613          	mv	a2,a6
80008744:	00088693          	mv	a3,a7
80008748:	f8b42a23          	sw	a1,-108(s0)
8000874c:	00090513          	mv	a0,s2
80008750:	00098593          	mv	a1,s3
80008754:	fb042823          	sw	a6,-80(s0)
80008758:	fb142a23          	sw	a7,-76(s0)
8000875c:	614030ef          	jal	ra,8000bd70 <fma>
80008760:	0244a703          	lw	a4,36(s1)
80008764:	0204a683          	lw	a3,32(s1)
80008768:	f8442783          	lw	a5,-124(s0)
8000876c:	00070393          	mv	t2,a4
80008770:	f8042703          	lw	a4,-128(s0)
80008774:	00068613          	mv	a2,a3
80008778:	f8a42423          	sw	a0,-120(s0)
8000877c:	f8b42623          	sw	a1,-116(s0)
80008780:	00090513          	mv	a0,s2
80008784:	00098593          	mv	a1,s3
80008788:	fad42423          	sw	a3,-88(s0)
8000878c:	00038693          	mv	a3,t2
80008790:	fa742623          	sw	t2,-84(s0)
80008794:	5dc030ef          	jal	ra,8000bd70 <fma>
80008798:	000b2903          	lw	s2,0(s6)
8000879c:	004b2983          	lw	s3,4(s6)
800087a0:	f7c42783          	lw	a5,-132(s0)
800087a4:	f7842703          	lw	a4,-136(s0)
800087a8:	f8a42023          	sw	a0,-128(s0)
800087ac:	f8b42223          	sw	a1,-124(s0)
800087b0:	000c0613          	mv	a2,s8
800087b4:	000c8693          	mv	a3,s9
800087b8:	00090513          	mv	a0,s2
800087bc:	00098593          	mv	a1,s3
800087c0:	5b0030ef          	jal	ra,8000bd70 <fma>
800087c4:	f6a42c23          	sw	a0,-136(s0)
800087c8:	f6b42e23          	sw	a1,-132(s0)
800087cc:	f7042703          	lw	a4,-144(s0)
800087d0:	f7442783          	lw	a5,-140(s0)
800087d4:	000d0613          	mv	a2,s10
800087d8:	000d8693          	mv	a3,s11
800087dc:	00090513          	mv	a0,s2
800087e0:	00098593          	mv	a1,s3
800087e4:	58c030ef          	jal	ra,8000bd70 <fma>
800087e8:	f6842703          	lw	a4,-152(s0)
800087ec:	f6c42783          	lw	a5,-148(s0)
800087f0:	fb842603          	lw	a2,-72(s0)
800087f4:	fbc42683          	lw	a3,-68(s0)
800087f8:	f6a42823          	sw	a0,-144(s0)
800087fc:	f6b42a23          	sw	a1,-140(s0)
80008800:	00090513          	mv	a0,s2
80008804:	00098593          	mv	a1,s3
80008808:	568030ef          	jal	ra,8000bd70 <fma>
8000880c:	f6042703          	lw	a4,-160(s0)
80008810:	f6442783          	lw	a5,-156(s0)
80008814:	fb042603          	lw	a2,-80(s0)
80008818:	fb442683          	lw	a3,-76(s0)
8000881c:	f6a42423          	sw	a0,-152(s0)
80008820:	f6b42623          	sw	a1,-148(s0)
80008824:	00090513          	mv	a0,s2
80008828:	00098593          	mv	a1,s3
8000882c:	544030ef          	jal	ra,8000bd70 <fma>
80008830:	f5842703          	lw	a4,-168(s0)
80008834:	f5c42783          	lw	a5,-164(s0)
80008838:	fa842603          	lw	a2,-88(s0)
8000883c:	fac42683          	lw	a3,-84(s0)
80008840:	f6a42023          	sw	a0,-160(s0)
80008844:	f6b42223          	sw	a1,-156(s0)
80008848:	00090513          	mv	a0,s2
8000884c:	00098593          	mv	a1,s3
80008850:	520030ef          	jal	ra,8000bd70 <fma>
80008854:	000aa903          	lw	s2,0(s5)
80008858:	004aa983          	lw	s3,4(s5)
8000885c:	f5042703          	lw	a4,-176(s0)
80008860:	f5442783          	lw	a5,-172(s0)
80008864:	f4a42c23          	sw	a0,-168(s0)
80008868:	f4b42e23          	sw	a1,-164(s0)
8000886c:	000c0613          	mv	a2,s8
80008870:	000c8693          	mv	a3,s9
80008874:	00090513          	mv	a0,s2
80008878:	00098593          	mv	a1,s3
8000887c:	4f4030ef          	jal	ra,8000bd70 <fma>
80008880:	f4842703          	lw	a4,-184(s0)
80008884:	f4c42783          	lw	a5,-180(s0)
80008888:	f4a42823          	sw	a0,-176(s0)
8000888c:	f4b42a23          	sw	a1,-172(s0)
80008890:	000d0613          	mv	a2,s10
80008894:	000d8693          	mv	a3,s11
80008898:	00090513          	mv	a0,s2
8000889c:	00098593          	mv	a1,s3
800088a0:	4d0030ef          	jal	ra,8000bd70 <fma>
800088a4:	f4042703          	lw	a4,-192(s0)
800088a8:	f4442783          	lw	a5,-188(s0)
800088ac:	fb842603          	lw	a2,-72(s0)
800088b0:	fbc42683          	lw	a3,-68(s0)
800088b4:	f4a42423          	sw	a0,-184(s0)
800088b8:	f4b42623          	sw	a1,-180(s0)
800088bc:	00090513          	mv	a0,s2
800088c0:	00098593          	mv	a1,s3
800088c4:	4ac030ef          	jal	ra,8000bd70 <fma>
800088c8:	f3842703          	lw	a4,-200(s0)
800088cc:	f3c42783          	lw	a5,-196(s0)
800088d0:	fb042603          	lw	a2,-80(s0)
800088d4:	fb442683          	lw	a3,-76(s0)
800088d8:	f4a42023          	sw	a0,-192(s0)
800088dc:	f4b42223          	sw	a1,-188(s0)
800088e0:	00090513          	mv	a0,s2
800088e4:	00098593          	mv	a1,s3
800088e8:	488030ef          	jal	ra,8000bd70 <fma>
800088ec:	f3042703          	lw	a4,-208(s0)
800088f0:	f3442783          	lw	a5,-204(s0)
800088f4:	fa842603          	lw	a2,-88(s0)
800088f8:	fac42683          	lw	a3,-84(s0)
800088fc:	f2a42c23          	sw	a0,-200(s0)
80008900:	f2b42e23          	sw	a1,-196(s0)
80008904:	00090513          	mv	a0,s2
80008908:	00098593          	mv	a1,s3
8000890c:	464030ef          	jal	ra,8000bd70 <fma>
80008910:	000a2903          	lw	s2,0(s4)
80008914:	004a2983          	lw	s3,4(s4)
80008918:	f2842703          	lw	a4,-216(s0)
8000891c:	f2c42783          	lw	a5,-212(s0)
80008920:	f2a42823          	sw	a0,-208(s0)
80008924:	f2b42a23          	sw	a1,-204(s0)
80008928:	000c0613          	mv	a2,s8
8000892c:	000c8693          	mv	a3,s9
80008930:	00090513          	mv	a0,s2
80008934:	00098593          	mv	a1,s3
80008938:	438030ef          	jal	ra,8000bd70 <fma>
8000893c:	f2042703          	lw	a4,-224(s0)
80008940:	f2442783          	lw	a5,-220(s0)
80008944:	f2a42423          	sw	a0,-216(s0)
80008948:	f2b42623          	sw	a1,-212(s0)
8000894c:	000d0613          	mv	a2,s10
80008950:	000d8693          	mv	a3,s11
80008954:	00090513          	mv	a0,s2
80008958:	00098593          	mv	a1,s3
8000895c:	414030ef          	jal	ra,8000bd70 <fma>
80008960:	f1842703          	lw	a4,-232(s0)
80008964:	f1c42783          	lw	a5,-228(s0)
80008968:	fb842603          	lw	a2,-72(s0)
8000896c:	fbc42683          	lw	a3,-68(s0)
80008970:	f2a42023          	sw	a0,-224(s0)
80008974:	f2b42223          	sw	a1,-220(s0)
80008978:	00090513          	mv	a0,s2
8000897c:	00098593          	mv	a1,s3
80008980:	3f0030ef          	jal	ra,8000bd70 <fma>
80008984:	f1042703          	lw	a4,-240(s0)
80008988:	f1442783          	lw	a5,-236(s0)
8000898c:	fb042603          	lw	a2,-80(s0)
80008990:	fb442683          	lw	a3,-76(s0)
80008994:	f0a42c23          	sw	a0,-232(s0)
80008998:	f0b42e23          	sw	a1,-228(s0)
8000899c:	00090513          	mv	a0,s2
800089a0:	00098593          	mv	a1,s3
800089a4:	3cc030ef          	jal	ra,8000bd70 <fma>
800089a8:	f0842e03          	lw	t3,-248(s0)
800089ac:	f0a42823          	sw	a0,-240(s0)
800089b0:	f0b42a23          	sw	a1,-236(s0)
800089b4:	f0c42e83          	lw	t4,-244(s0)
800089b8:	fa842603          	lw	a2,-88(s0)
800089bc:	fac42683          	lw	a3,-84(s0)
800089c0:	000e8793          	mv	a5,t4
800089c4:	000e0713          	mv	a4,t3
800089c8:	00090513          	mv	a0,s2
800089cc:	00098593          	mv	a1,s3
800089d0:	3a0030ef          	jal	ra,8000bd70 <fma>
800089d4:	e9442783          	lw	a5,-364(s0)
800089d8:	008b8b93          	addi	s7,s7,8
800089dc:	00050e13          	mv	t3,a0
800089e0:	00f484b3          	add	s1,s1,a5
800089e4:	e5842783          	lw	a5,-424(s0)
800089e8:	00058e93          	mv	t4,a1
800089ec:	008b0b13          	addi	s6,s6,8
800089f0:	008a8a93          	addi	s5,s5,8
800089f4:	008a0a13          	addi	s4,s4,8
800089f8:	fa042803          	lw	a6,-96(s0)
800089fc:	fa442883          	lw	a7,-92(s0)
80008a00:	c8fbe8e3          	bltu	s7,a5,80008690 <mm_cb+0x72e4>
80008a04:	e4442783          	lw	a5,-444(s0)
80008a08:	f9842683          	lw	a3,-104(s0)
80008a0c:	f9c42703          	lw	a4,-100(s0)
80008a10:	f7842603          	lw	a2,-136(s0)
80008a14:	00d7a423          	sw	a3,8(a5)
80008a18:	00e7a623          	sw	a4,12(a5)
80008a1c:	f9042683          	lw	a3,-112(s0)
80008a20:	f9442703          	lw	a4,-108(s0)
80008a24:	0107a023          	sw	a6,0(a5)
80008a28:	00d7a823          	sw	a3,16(a5)
80008a2c:	00e7aa23          	sw	a4,20(a5)
80008a30:	f8842683          	lw	a3,-120(s0)
80008a34:	f8c42703          	lw	a4,-116(s0)
80008a38:	0117a223          	sw	a7,4(a5)
80008a3c:	00d7ac23          	sw	a3,24(a5)
80008a40:	00e7ae23          	sw	a4,28(a5)
80008a44:	f8042683          	lw	a3,-128(s0)
80008a48:	f8442703          	lw	a4,-124(s0)
80008a4c:	02878793          	addi	a5,a5,40
80008a50:	fed7ac23          	sw	a3,-8(a5)
80008a54:	fee7ae23          	sw	a4,-4(a5)
80008a58:	f7c42683          	lw	a3,-132(s0)
80008a5c:	e4842703          	lw	a4,-440(s0)
80008a60:	00c72023          	sw	a2,0(a4)
80008a64:	00d72223          	sw	a3,4(a4)
80008a68:	f7042603          	lw	a2,-144(s0)
80008a6c:	f7442683          	lw	a3,-140(s0)
80008a70:	00c72423          	sw	a2,8(a4)
80008a74:	00d72623          	sw	a3,12(a4)
80008a78:	f6842603          	lw	a2,-152(s0)
80008a7c:	f6c42683          	lw	a3,-148(s0)
80008a80:	00c72823          	sw	a2,16(a4)
80008a84:	00d72a23          	sw	a3,20(a4)
80008a88:	f6042603          	lw	a2,-160(s0)
80008a8c:	f6442683          	lw	a3,-156(s0)
80008a90:	f5042583          	lw	a1,-176(s0)
80008a94:	00c72c23          	sw	a2,24(a4)
80008a98:	00d72e23          	sw	a3,28(a4)
80008a9c:	f5842603          	lw	a2,-168(s0)
80008aa0:	f5c42683          	lw	a3,-164(s0)
80008aa4:	f2842503          	lw	a0,-216(s0)
80008aa8:	02c72023          	sw	a2,32(a4)
80008aac:	02d72223          	sw	a3,36(a4)
80008ab0:	f5442603          	lw	a2,-172(s0)
80008ab4:	e4c42683          	lw	a3,-436(s0)
80008ab8:	00b6a023          	sw	a1,0(a3)
80008abc:	00c6a223          	sw	a2,4(a3)
80008ac0:	f4842583          	lw	a1,-184(s0)
80008ac4:	f4c42603          	lw	a2,-180(s0)
80008ac8:	00b6a423          	sw	a1,8(a3)
80008acc:	00c6a623          	sw	a2,12(a3)
80008ad0:	f4042583          	lw	a1,-192(s0)
80008ad4:	f4442603          	lw	a2,-188(s0)
80008ad8:	00b6a823          	sw	a1,16(a3)
80008adc:	00c6aa23          	sw	a2,20(a3)
80008ae0:	f3842583          	lw	a1,-200(s0)
80008ae4:	f3c42603          	lw	a2,-196(s0)
80008ae8:	00b6ac23          	sw	a1,24(a3)
80008aec:	00c6ae23          	sw	a2,28(a3)
80008af0:	f3042583          	lw	a1,-208(s0)
80008af4:	f3442603          	lw	a2,-204(s0)
80008af8:	02b6a023          	sw	a1,32(a3)
80008afc:	02c6a223          	sw	a2,36(a3)
80008b00:	f2c42583          	lw	a1,-212(s0)
80008b04:	e5042603          	lw	a2,-432(s0)
80008b08:	00a62023          	sw	a0,0(a2)
80008b0c:	00b62223          	sw	a1,4(a2)
80008b10:	f2442583          	lw	a1,-220(s0)
80008b14:	f2042503          	lw	a0,-224(s0)
80008b18:	e4f42223          	sw	a5,-444(s0)
80008b1c:	00b62623          	sw	a1,12(a2)
80008b20:	f1c42583          	lw	a1,-228(s0)
80008b24:	02870793          	addi	a5,a4,40
80008b28:	e4f42423          	sw	a5,-440(s0)
80008b2c:	02868793          	addi	a5,a3,40
80008b30:	00b62a23          	sw	a1,20(a2)
80008b34:	e4f42623          	sw	a5,-436(s0)
80008b38:	f1442583          	lw	a1,-236(s0)
80008b3c:	02860793          	addi	a5,a2,40
80008b40:	00a62423          	sw	a0,8(a2)
80008b44:	e4f42823          	sw	a5,-432(s0)
80008b48:	f1842503          	lw	a0,-232(s0)
80008b4c:	e5442783          	lw	a5,-428(s0)
80008b50:	00b62e23          	sw	a1,28(a2)
80008b54:	e3442583          	lw	a1,-460(s0)
80008b58:	02878793          	addi	a5,a5,40
80008b5c:	00a62823          	sw	a0,16(a2)
80008b60:	f1042503          	lw	a0,-240(s0)
80008b64:	e4f42a23          	sw	a5,-428(s0)
80008b68:	e1842783          	lw	a5,-488(s0)
80008b6c:	00558593          	addi	a1,a1,5
80008b70:	00a62c23          	sw	a0,24(a2)
80008b74:	03c62023          	sw	t3,32(a2)
80008b78:	03d62223          	sw	t4,36(a2)
80008b7c:	e2b42a23          	sw	a1,-460(s0)
80008b80:	00f5f463          	bleu	a5,a1,80008b88 <mm_cb+0x77dc>
80008b84:	d20fe06f          	j	800070a4 <mm_cb+0x5cf8>
80008b88:	dc842783          	lw	a5,-568(s0)
80008b8c:	df042483          	lw	s1,-528(s0)
80008b90:	e3042983          	lw	s3,-464(s0)
80008b94:	ddc42303          	lw	t1,-548(s0)
80008b98:	009788b3          	add	a7,a5,s1
80008b9c:	00042783          	lw	a5,0(s0)
80008ba0:	e2442703          	lw	a4,-476(s0)
80008ba4:	e2c42803          	lw	a6,-468(s0)
80008ba8:	00f12023          	sw	a5,0(sp)
80008bac:	df442603          	lw	a2,-524(s0)
80008bb0:	d9c42783          	lw	a5,-612(s0)
80008bb4:	da042583          	lw	a1,-608(s0)
80008bb8:	fff30913          	addi	s2,t1,-1
80008bbc:	00098693          	mv	a3,s3
80008bc0:	00400513          	li	a0,4
80008bc4:	dd242e23          	sw	s2,-548(s0)
80008bc8:	c80f80ef          	jal	ra,80001048 <mm_naive>
80008bcc:	de442783          	lw	a5,-540(s0)
80008bd0:	00f98733          	add	a4,s3,a5
80008bd4:	e2e42823          	sw	a4,-464(s0)
80008bd8:	d9842703          	lw	a4,-616(s0)
80008bdc:	00e48733          	add	a4,s1,a4
80008be0:	dee42823          	sw	a4,-528(s0)
80008be4:	e3842703          	lw	a4,-456(s0)
80008be8:	00f70733          	add	a4,a4,a5
80008bec:	e2e42c23          	sw	a4,-456(s0)
80008bf0:	e3c42703          	lw	a4,-452(s0)
80008bf4:	00f70733          	add	a4,a4,a5
80008bf8:	e2e42e23          	sw	a4,-452(s0)
80008bfc:	e4042703          	lw	a4,-448(s0)
80008c00:	00f707b3          	add	a5,a4,a5
80008c04:	e4f42023          	sw	a5,-448(s0)
80008c08:	00090463          	beqz	s2,80008c10 <mm_cb+0x7864>
80008c0c:	c40fe06f          	j	8000704c <mm_cb+0x5ca0>
80008c10:	db442703          	lw	a4,-588(s0)
80008c14:	dc042483          	lw	s1,-576(s0)
80008c18:	de042983          	lw	s3,-544(s0)
80008c1c:	dd442303          	lw	t1,-556(s0)
80008c20:	009706b3          	add	a3,a4,s1
80008c24:	00042703          	lw	a4,0(s0)
80008c28:	d8c42883          	lw	a7,-628(s0)
80008c2c:	e2c42803          	lw	a6,-468(s0)
80008c30:	00e12023          	sw	a4,0(sp)
80008c34:	df442603          	lw	a2,-524(s0)
80008c38:	e2442703          	lw	a4,-476(s0)
80008c3c:	d8442583          	lw	a1,-636(s0)
80008c40:	00098793          	mv	a5,s3
80008c44:	01830913          	addi	s2,t1,24
80008c48:	00000513          	li	a0,0
80008c4c:	dd242a23          	sw	s2,-556(s0)
80008c50:	bf8f80ef          	jal	ra,80001048 <mm_naive>
80008c54:	d7042783          	lw	a5,-656(s0)
80008c58:	00f987b3          	add	a5,s3,a5
80008c5c:	def42023          	sw	a5,-544(s0)
80008c60:	0c048793          	addi	a5,s1,192
80008c64:	dcf42023          	sw	a5,-576(s0)
80008c68:	e0442783          	lw	a5,-508(s0)
80008c6c:	00f97463          	bleu	a5,s2,80008c74 <mm_cb+0x78c8>
80008c70:	b48fe06f          	j	80006fb8 <mm_cb+0x5c0c>
80008c74:	e50fa06f          	j	800032c4 <mm_cb+0x1f18>
80008c78:	e3c42783          	lw	a5,-452(s0)
80008c7c:	db442703          	lw	a4,-588(s0)
80008c80:	00e787b3          	add	a5,a5,a4
80008c84:	daf42823          	sw	a5,-592(s0)
80008c88:	e1cfa06f          	j	800032a4 <mm_cb+0x1ef8>

80008c8c <mm>:
80008c8c:	db010113          	addi	sp,sp,-592
80008c90:	25012e83          	lw	t4,592(sp)
80008c94:	24112623          	sw	ra,588(sp)
80008c98:	24812423          	sw	s0,584(sp)
80008c9c:	24912223          	sw	s1,580(sp)
80008ca0:	25212023          	sw	s2,576(sp)
80008ca4:	23312e23          	sw	s3,572(sp)
80008ca8:	23412c23          	sw	s4,568(sp)
80008cac:	23512a23          	sw	s5,564(sp)
80008cb0:	23612823          	sw	s6,560(sp)
80008cb4:	23712623          	sw	s7,556(sp)
80008cb8:	23812423          	sw	s8,552(sp)
80008cbc:	23912223          	sw	s9,548(sp)
80008cc0:	23a12023          	sw	s10,544(sp)
80008cc4:	21b12e23          	sw	s11,540(sp)
80008cc8:	03000313          	li	t1,48
80008ccc:	1bd12e23          	sw	t4,444(sp)
80008cd0:	00a37463          	bleu	a0,t1,80008cd8 <mm+0x4c>
80008cd4:	5f90106f          	j	8000aacc <mm+0x1e40>
80008cd8:	03200e13          	li	t3,50
80008cdc:	00be7463          	bleu	a1,t3,80008ce4 <mm+0x58>
80008ce0:	5ed0106f          	j	8000aacc <mm+0x1e40>
80008ce4:	00c37463          	bleu	a2,t1,80008cec <mm+0x60>
80008ce8:	5e50106f          	j	8000aacc <mm+0x1e40>
80008cec:	00068413          	mv	s0,a3
80008cf0:	20d12423          	sw	a3,520(sp)
80008cf4:	20a12023          	sw	a0,512(sp)
80008cf8:	00050693          	mv	a3,a0
80008cfc:	00500513          	li	a0,5
80008d00:	00078993          	mv	s3,a5
80008d04:	1ef12023          	sw	a5,480(sp)
80008d08:	02a5d7b3          	divu	a5,a1,a0
80008d0c:	00070f93          	mv	t6,a4
80008d10:	1ce12423          	sw	a4,456(sp)
80008d14:	00058f13          	mv	t5,a1
80008d18:	20b12223          	sw	a1,516(sp)
80008d1c:	00371593          	slli	a1,a4,0x3
80008d20:	ffc6f693          	andi	a3,a3,-4
80008d24:	003e9493          	slli	s1,t4,0x3
80008d28:	21112623          	sw	a7,524(sp)
80008d2c:	1d012623          	sw	a6,460(sp)
80008d30:	1cc12223          	sw	a2,452(sp)
80008d34:	1cd12023          	sw	a3,448(sp)
80008d38:	1e912c23          	sw	s1,504(sp)
80008d3c:	1eb12e23          	sw	a1,508(sp)
80008d40:	00088a13          	mv	s4,a7
80008d44:	00080313          	mv	t1,a6
80008d48:	00060393          	mv	t2,a2
80008d4c:	000e8e13          	mv	t3,t4
80008d50:	00279713          	slli	a4,a5,0x2
80008d54:	00f702b3          	add	t0,a4,a5
80008d58:	1a512423          	sw	t0,424(sp)
80008d5c:	00069463          	bnez	a3,80008d64 <mm+0xd8>
80008d60:	4e90106f          	j	8000aa48 <mm+0x1dbc>
80008d64:	00600613          	li	a2,6
80008d68:	02c3d633          	divu	a2,t2,a2
80008d6c:	00181693          	slli	a3,a6,0x1
80008d70:	010686b3          	add	a3,a3,a6
80008d74:	00281893          	slli	a7,a6,0x2
80008d78:	00040093          	mv	ra,s0
80008d7c:	00b40833          	add	a6,s0,a1
80008d80:	00469413          	slli	s0,a3,0x4
80008d84:	00369693          	slli	a3,a3,0x3
80008d88:	006888b3          	add	a7,a7,t1
80008d8c:	16d12a23          	sw	a3,372(sp)
80008d90:	00531693          	slli	a3,t1,0x5
80008d94:	16d12823          	sw	a3,368(sp)
80008d98:	00389693          	slli	a3,a7,0x3
80008d9c:	00329793          	slli	a5,t0,0x3
80008da0:	16d12c23          	sw	a3,376(sp)
80008da4:	00339693          	slli	a3,t2,0x3
80008da8:	1ed12223          	sw	a3,484(sp)
80008dac:	00f986b3          	add	a3,s3,a5
80008db0:	1cd12a23          	sw	a3,468(sp)
80008db4:	005f9693          	slli	a3,t6,0x5
80008db8:	001e9713          	slli	a4,t4,0x1
80008dbc:	1cd12e23          	sw	a3,476(sp)
80008dc0:	005e1693          	slli	a3,t3,0x5
80008dc4:	00b80933          	add	s2,a6,a1
80008dc8:	01d70733          	add	a4,a4,t4
80008dcc:	1cd12c23          	sw	a3,472(sp)
80008dd0:	00058e93          	mv	t4,a1
80008dd4:	00fa06b3          	add	a3,s4,a5
80008dd8:	1b012023          	sw	a6,416(sp)
80008ddc:	1ad12a23          	sw	a3,436(sp)
80008de0:	40500833          	neg	a6,t0
80008de4:	01d906b3          	add	a3,s2,t4
80008de8:	18d12c23          	sw	a3,408(sp)
80008dec:	00381693          	slli	a3,a6,0x3
80008df0:	004e1593          	slli	a1,t3,0x4
80008df4:	00371713          	slli	a4,a4,0x3
80008df8:	1ed12a23          	sw	a3,500(sp)
80008dfc:	40f486b3          	sub	a3,s1,a5
80008e00:	1ed12823          	sw	a3,496(sp)
80008e04:	40f586b3          	sub	a3,a1,a5
80008e08:	40f707b3          	sub	a5,a4,a5
80008e0c:	1ef12423          	sw	a5,488(sp)
80008e10:	00161793          	slli	a5,a2,0x1
80008e14:	00c787b3          	add	a5,a5,a2
80008e18:	00479793          	slli	a5,a5,0x4
80008e1c:	1af12823          	sw	a5,432(sp)
80008e20:	02c407b3          	mul	a5,s0,a2
80008e24:	00331293          	slli	t0,t1,0x3
80008e28:	16512023          	sw	t0,352(sp)
80008e2c:	00431293          	slli	t0,t1,0x4
80008e30:	16812e23          	sw	s0,380(sp)
80008e34:	19212e23          	sw	s2,412(sp)
80008e38:	16512623          	sw	t0,364(sp)
80008e3c:	1a112223          	sw	ra,420(sp)
80008e40:	1ed12623          	sw	a3,492(sp)
80008e44:	1a012c23          	sw	zero,440(sp)
80008e48:	1af12623          	sw	a5,428(sp)
80008e4c:	02af77b3          	remu	a5,t5,a0
80008e50:	1cf12823          	sw	a5,464(sp)
80008e54:	1a812783          	lw	a5,424(sp)
80008e58:	00079463          	bnez	a5,80008e60 <mm+0x1d4>
80008e5c:	3650106f          	j	8000a9c0 <mm+0x1d34>
80008e60:	1a412783          	lw	a5,420(sp)
80008e64:	1b012703          	lw	a4,432(sp)
80008e68:	18012a23          	sw	zero,404(sp)
80008e6c:	00f70733          	add	a4,a4,a5
80008e70:	16e12223          	sw	a4,356(sp)
80008e74:	1e412703          	lw	a4,484(sp)
80008e78:	00f707b3          	add	a5,a4,a5
80008e7c:	16f12423          	sw	a5,360(sp)
80008e80:	1f412703          	lw	a4,500(sp)
80008e84:	1b412783          	lw	a5,436(sp)
80008e88:	00f70733          	add	a4,a4,a5
80008e8c:	18e12823          	sw	a4,400(sp)
80008e90:	1f012703          	lw	a4,496(sp)
80008e94:	00f70733          	add	a4,a4,a5
80008e98:	18e12623          	sw	a4,396(sp)
80008e9c:	1ec12703          	lw	a4,492(sp)
80008ea0:	00f70733          	add	a4,a4,a5
80008ea4:	18e12423          	sw	a4,392(sp)
80008ea8:	1e812703          	lw	a4,488(sp)
80008eac:	00f707b3          	add	a5,a4,a5
80008eb0:	18f12223          	sw	a5,388(sp)
80008eb4:	1e012783          	lw	a5,480(sp)
80008eb8:	18f12023          	sw	a5,384(sp)
80008ebc:	18012783          	lw	a5,384(sp)
80008ec0:	0cf12023          	sw	a5,192(sp)
80008ec4:	19012783          	lw	a5,400(sp)
80008ec8:	00c7a703          	lw	a4,12(a5)
80008ecc:	0087a683          	lw	a3,8(a5)
80008ed0:	0007a803          	lw	a6,0(a5)
80008ed4:	02e12a23          	sw	a4,52(sp)
80008ed8:	0147a703          	lw	a4,20(a5)
80008edc:	02d12823          	sw	a3,48(sp)
80008ee0:	0107a683          	lw	a3,16(a5)
80008ee4:	02e12e23          	sw	a4,60(sp)
80008ee8:	01c7a703          	lw	a4,28(a5)
80008eec:	0047a883          	lw	a7,4(a5)
80008ef0:	02d12c23          	sw	a3,56(sp)
80008ef4:	04e12223          	sw	a4,68(sp)
80008ef8:	0187a683          	lw	a3,24(a5)
80008efc:	0207a703          	lw	a4,32(a5)
80008f00:	0247a783          	lw	a5,36(a5)
80008f04:	04d12023          	sw	a3,64(sp)
80008f08:	04e12423          	sw	a4,72(sp)
80008f0c:	04f12623          	sw	a5,76(sp)
80008f10:	18c12783          	lw	a5,396(sp)
80008f14:	0007a683          	lw	a3,0(a5)
80008f18:	0047a703          	lw	a4,4(a5)
80008f1c:	04d12823          	sw	a3,80(sp)
80008f20:	04e12a23          	sw	a4,84(sp)
80008f24:	0087a683          	lw	a3,8(a5)
80008f28:	00c7a703          	lw	a4,12(a5)
80008f2c:	04d12c23          	sw	a3,88(sp)
80008f30:	04e12e23          	sw	a4,92(sp)
80008f34:	0107a683          	lw	a3,16(a5)
80008f38:	0147a703          	lw	a4,20(a5)
80008f3c:	06d12023          	sw	a3,96(sp)
80008f40:	06e12223          	sw	a4,100(sp)
80008f44:	01c7a703          	lw	a4,28(a5)
80008f48:	0187a683          	lw	a3,24(a5)
80008f4c:	06e12623          	sw	a4,108(sp)
80008f50:	0207a703          	lw	a4,32(a5)
80008f54:	0247a783          	lw	a5,36(a5)
80008f58:	06d12423          	sw	a3,104(sp)
80008f5c:	06e12823          	sw	a4,112(sp)
80008f60:	06f12a23          	sw	a5,116(sp)
80008f64:	18812783          	lw	a5,392(sp)
80008f68:	0047a703          	lw	a4,4(a5)
80008f6c:	0007a683          	lw	a3,0(a5)
80008f70:	06e12e23          	sw	a4,124(sp)
80008f74:	00c7a703          	lw	a4,12(a5)
80008f78:	06d12c23          	sw	a3,120(sp)
80008f7c:	0087a683          	lw	a3,8(a5)
80008f80:	08e12223          	sw	a4,132(sp)
80008f84:	0147a703          	lw	a4,20(a5)
80008f88:	08d12023          	sw	a3,128(sp)
80008f8c:	0107a683          	lw	a3,16(a5)
80008f90:	08e12623          	sw	a4,140(sp)
80008f94:	01c7a703          	lw	a4,28(a5)
80008f98:	08d12423          	sw	a3,136(sp)
80008f9c:	0187a683          	lw	a3,24(a5)
80008fa0:	08e12a23          	sw	a4,148(sp)
80008fa4:	0207a703          	lw	a4,32(a5)
80008fa8:	0247a783          	lw	a5,36(a5)
80008fac:	08d12823          	sw	a3,144(sp)
80008fb0:	08e12c23          	sw	a4,152(sp)
80008fb4:	08f12e23          	sw	a5,156(sp)
80008fb8:	18412783          	lw	a5,388(sp)
80008fbc:	0007a683          	lw	a3,0(a5)
80008fc0:	0047a703          	lw	a4,4(a5)
80008fc4:	0207ae03          	lw	t3,32(a5)
80008fc8:	0ad12023          	sw	a3,160(sp)
80008fcc:	0ae12223          	sw	a4,164(sp)
80008fd0:	00c7a703          	lw	a4,12(a5)
80008fd4:	0087a683          	lw	a3,8(a5)
80008fd8:	0247ae83          	lw	t4,36(a5)
80008fdc:	0ae12623          	sw	a4,172(sp)
80008fe0:	0147a703          	lw	a4,20(a5)
80008fe4:	0ad12423          	sw	a3,168(sp)
80008fe8:	0107a683          	lw	a3,16(a5)
80008fec:	0ae12a23          	sw	a4,180(sp)
80008ff0:	01c7a703          	lw	a4,28(a5)
80008ff4:	0ad12823          	sw	a3,176(sp)
80008ff8:	0187a683          	lw	a3,24(a5)
80008ffc:	0ae12e23          	sw	a4,188(sp)
80009000:	1a412783          	lw	a5,420(sp)
80009004:	16412703          	lw	a4,356(sp)
80009008:	0ad12c23          	sw	a3,184(sp)
8000900c:	00e7e463          	bltu	a5,a4,80009014 <mm+0x388>
80009010:	47c0106f          	j	8000a48c <mm+0x1800>
80009014:	19812703          	lw	a4,408(sp)
80009018:	00f12823          	sw	a5,16(sp)
8000901c:	00e12c23          	sw	a4,24(sp)
80009020:	19c12703          	lw	a4,412(sp)
80009024:	02e12223          	sw	a4,36(sp)
80009028:	1a012703          	lw	a4,416(sp)
8000902c:	02e12423          	sw	a4,40(sp)
80009030:	0c012983          	lw	s3,192(sp)
80009034:	01012783          	lw	a5,16(sp)
80009038:	00080713          	mv	a4,a6
8000903c:	0009ac03          	lw	s8,0(s3)
80009040:	0007a403          	lw	s0,0(a5)
80009044:	0047a483          	lw	s1,4(a5)
80009048:	0049ac83          	lw	s9,4(s3)
8000904c:	00088793          	mv	a5,a7
80009050:	000c0613          	mv	a2,s8
80009054:	000c8693          	mv	a3,s9
80009058:	00040513          	mv	a0,s0
8000905c:	00048593          	mv	a1,s1
80009060:	0dc12823          	sw	t3,208(sp)
80009064:	0dd12a23          	sw	t4,212(sp)
80009068:	509020ef          	jal	ra,8000bd70 <fma>
8000906c:	0089ad03          	lw	s10,8(s3)
80009070:	00c9ad83          	lw	s11,12(s3)
80009074:	03012703          	lw	a4,48(sp)
80009078:	03412783          	lw	a5,52(sp)
8000907c:	000d0613          	mv	a2,s10
80009080:	000d8693          	mv	a3,s11
80009084:	0ca12423          	sw	a0,200(sp)
80009088:	0cb12623          	sw	a1,204(sp)
8000908c:	00040513          	mv	a0,s0
80009090:	00048593          	mv	a1,s1
80009094:	4dd020ef          	jal	ra,8000bd70 <fma>
80009098:	0109ab03          	lw	s6,16(s3)
8000909c:	0149ab83          	lw	s7,20(s3)
800090a0:	03812703          	lw	a4,56(sp)
800090a4:	03c12783          	lw	a5,60(sp)
800090a8:	000b0613          	mv	a2,s6
800090ac:	000b8693          	mv	a3,s7
800090b0:	0ca12023          	sw	a0,192(sp)
800090b4:	0cb12223          	sw	a1,196(sp)
800090b8:	00040513          	mv	a0,s0
800090bc:	00048593          	mv	a1,s1
800090c0:	4b1020ef          	jal	ra,8000bd70 <fma>
800090c4:	0189aa03          	lw	s4,24(s3)
800090c8:	01c9aa83          	lw	s5,28(s3)
800090cc:	04012703          	lw	a4,64(sp)
800090d0:	04412783          	lw	a5,68(sp)
800090d4:	000a0613          	mv	a2,s4
800090d8:	000a8693          	mv	a3,s5
800090dc:	0ca12c23          	sw	a0,216(sp)
800090e0:	0cb12e23          	sw	a1,220(sp)
800090e4:	00040513          	mv	a0,s0
800090e8:	00048593          	mv	a1,s1
800090ec:	485020ef          	jal	ra,8000bd70 <fma>
800090f0:	0209a783          	lw	a5,32(s3)
800090f4:	0249a803          	lw	a6,36(s3)
800090f8:	04812703          	lw	a4,72(sp)
800090fc:	00078613          	mv	a2,a5
80009100:	04c12783          	lw	a5,76(sp)
80009104:	00080693          	mv	a3,a6
80009108:	02a12c23          	sw	a0,56(sp)
8000910c:	02b12e23          	sw	a1,60(sp)
80009110:	00040513          	mv	a0,s0
80009114:	00048593          	mv	a1,s1
80009118:	03012a23          	sw	a6,52(sp)
8000911c:	02c12823          	sw	a2,48(sp)
80009120:	451020ef          	jal	ra,8000bd70 <fma>
80009124:	02812683          	lw	a3,40(sp)
80009128:	04a12023          	sw	a0,64(sp)
8000912c:	04b12223          	sw	a1,68(sp)
80009130:	0006a403          	lw	s0,0(a3)
80009134:	0046a483          	lw	s1,4(a3)
80009138:	05012703          	lw	a4,80(sp)
8000913c:	05412783          	lw	a5,84(sp)
80009140:	000c0613          	mv	a2,s8
80009144:	000c8693          	mv	a3,s9
80009148:	00040513          	mv	a0,s0
8000914c:	00048593          	mv	a1,s1
80009150:	421020ef          	jal	ra,8000bd70 <fma>
80009154:	05812703          	lw	a4,88(sp)
80009158:	05c12783          	lw	a5,92(sp)
8000915c:	000d0613          	mv	a2,s10
80009160:	000d8693          	mv	a3,s11
80009164:	04a12423          	sw	a0,72(sp)
80009168:	04b12623          	sw	a1,76(sp)
8000916c:	00040513          	mv	a0,s0
80009170:	00048593          	mv	a1,s1
80009174:	3fd020ef          	jal	ra,8000bd70 <fma>
80009178:	06012703          	lw	a4,96(sp)
8000917c:	06412783          	lw	a5,100(sp)
80009180:	000b0613          	mv	a2,s6
80009184:	000b8693          	mv	a3,s7
80009188:	04a12823          	sw	a0,80(sp)
8000918c:	04b12a23          	sw	a1,84(sp)
80009190:	00040513          	mv	a0,s0
80009194:	00048593          	mv	a1,s1
80009198:	3d9020ef          	jal	ra,8000bd70 <fma>
8000919c:	06812703          	lw	a4,104(sp)
800091a0:	06c12783          	lw	a5,108(sp)
800091a4:	000a0613          	mv	a2,s4
800091a8:	000a8693          	mv	a3,s5
800091ac:	04a12c23          	sw	a0,88(sp)
800091b0:	04b12e23          	sw	a1,92(sp)
800091b4:	00040513          	mv	a0,s0
800091b8:	00048593          	mv	a1,s1
800091bc:	3b5020ef          	jal	ra,8000bd70 <fma>
800091c0:	07012703          	lw	a4,112(sp)
800091c4:	07412783          	lw	a5,116(sp)
800091c8:	03012603          	lw	a2,48(sp)
800091cc:	03412683          	lw	a3,52(sp)
800091d0:	06a12023          	sw	a0,96(sp)
800091d4:	06b12223          	sw	a1,100(sp)
800091d8:	00040513          	mv	a0,s0
800091dc:	00048593          	mv	a1,s1
800091e0:	391020ef          	jal	ra,8000bd70 <fma>
800091e4:	02412603          	lw	a2,36(sp)
800091e8:	07812703          	lw	a4,120(sp)
800091ec:	07c12783          	lw	a5,124(sp)
800091f0:	00062403          	lw	s0,0(a2)
800091f4:	00462483          	lw	s1,4(a2)
800091f8:	000c8693          	mv	a3,s9
800091fc:	000c0613          	mv	a2,s8
80009200:	06a12423          	sw	a0,104(sp)
80009204:	06b12623          	sw	a1,108(sp)
80009208:	00040513          	mv	a0,s0
8000920c:	00048593          	mv	a1,s1
80009210:	361020ef          	jal	ra,8000bd70 <fma>
80009214:	08012703          	lw	a4,128(sp)
80009218:	08412783          	lw	a5,132(sp)
8000921c:	000d0613          	mv	a2,s10
80009220:	000d8693          	mv	a3,s11
80009224:	06a12823          	sw	a0,112(sp)
80009228:	06b12a23          	sw	a1,116(sp)
8000922c:	00040513          	mv	a0,s0
80009230:	00048593          	mv	a1,s1
80009234:	33d020ef          	jal	ra,8000bd70 <fma>
80009238:	08812703          	lw	a4,136(sp)
8000923c:	08c12783          	lw	a5,140(sp)
80009240:	000b0613          	mv	a2,s6
80009244:	000b8693          	mv	a3,s7
80009248:	06a12c23          	sw	a0,120(sp)
8000924c:	06b12e23          	sw	a1,124(sp)
80009250:	00040513          	mv	a0,s0
80009254:	00048593          	mv	a1,s1
80009258:	319020ef          	jal	ra,8000bd70 <fma>
8000925c:	09012703          	lw	a4,144(sp)
80009260:	08a12023          	sw	a0,128(sp)
80009264:	08b12223          	sw	a1,132(sp)
80009268:	09412783          	lw	a5,148(sp)
8000926c:	000a0613          	mv	a2,s4
80009270:	000a8693          	mv	a3,s5
80009274:	00040513          	mv	a0,s0
80009278:	00048593          	mv	a1,s1
8000927c:	2f5020ef          	jal	ra,8000bd70 <fma>
80009280:	09812703          	lw	a4,152(sp)
80009284:	09c12783          	lw	a5,156(sp)
80009288:	03012603          	lw	a2,48(sp)
8000928c:	03412683          	lw	a3,52(sp)
80009290:	08a12423          	sw	a0,136(sp)
80009294:	08b12623          	sw	a1,140(sp)
80009298:	00040513          	mv	a0,s0
8000929c:	00048593          	mv	a1,s1
800092a0:	2d1020ef          	jal	ra,8000bd70 <fma>
800092a4:	08b12a23          	sw	a1,148(sp)
800092a8:	01812583          	lw	a1,24(sp)
800092ac:	0a012703          	lw	a4,160(sp)
800092b0:	0a412783          	lw	a5,164(sp)
800092b4:	0005a403          	lw	s0,0(a1)
800092b8:	0045a483          	lw	s1,4(a1)
800092bc:	000c0613          	mv	a2,s8
800092c0:	000c8693          	mv	a3,s9
800092c4:	08a12823          	sw	a0,144(sp)
800092c8:	00048593          	mv	a1,s1
800092cc:	00040513          	mv	a0,s0
800092d0:	2a1020ef          	jal	ra,8000bd70 <fma>
800092d4:	0a812703          	lw	a4,168(sp)
800092d8:	0ac12783          	lw	a5,172(sp)
800092dc:	000d0613          	mv	a2,s10
800092e0:	000d8693          	mv	a3,s11
800092e4:	08a12c23          	sw	a0,152(sp)
800092e8:	08b12e23          	sw	a1,156(sp)
800092ec:	00040513          	mv	a0,s0
800092f0:	00048593          	mv	a1,s1
800092f4:	27d020ef          	jal	ra,8000bd70 <fma>
800092f8:	0b012703          	lw	a4,176(sp)
800092fc:	0b412783          	lw	a5,180(sp)
80009300:	000b0613          	mv	a2,s6
80009304:	000b8693          	mv	a3,s7
80009308:	0aa12023          	sw	a0,160(sp)
8000930c:	0ab12223          	sw	a1,164(sp)
80009310:	00040513          	mv	a0,s0
80009314:	00048593          	mv	a1,s1
80009318:	259020ef          	jal	ra,8000bd70 <fma>
8000931c:	16012883          	lw	a7,352(sp)
80009320:	0b812703          	lw	a4,184(sp)
80009324:	0bc12783          	lw	a5,188(sp)
80009328:	000a0613          	mv	a2,s4
8000932c:	000a8693          	mv	a3,s5
80009330:	0aa12423          	sw	a0,168(sp)
80009334:	0ab12623          	sw	a1,172(sp)
80009338:	00040513          	mv	a0,s0
8000933c:	00048593          	mv	a1,s1
80009340:	01388933          	add	s2,a7,s3
80009344:	22d020ef          	jal	ra,8000bd70 <fma>
80009348:	0d012e03          	lw	t3,208(sp)
8000934c:	0d412e83          	lw	t4,212(sp)
80009350:	03012603          	lw	a2,48(sp)
80009354:	03412683          	lw	a3,52(sp)
80009358:	000e0713          	mv	a4,t3
8000935c:	000e8793          	mv	a5,t4
80009360:	0aa12823          	sw	a0,176(sp)
80009364:	0ab12a23          	sw	a1,180(sp)
80009368:	00040513          	mv	a0,s0
8000936c:	00048593          	mv	a1,s1
80009370:	201020ef          	jal	ra,8000bd70 <fma>
80009374:	01012783          	lw	a5,16(sp)
80009378:	0ca12823          	sw	a0,208(sp)
8000937c:	0cb12a23          	sw	a1,212(sp)
80009380:	0087a403          	lw	s0,8(a5)
80009384:	00c7a483          	lw	s1,12(a5)
80009388:	0cc12883          	lw	a7,204(sp)
8000938c:	0c812803          	lw	a6,200(sp)
80009390:	00092c03          	lw	s8,0(s2)
80009394:	00492c83          	lw	s9,4(s2)
80009398:	00088793          	mv	a5,a7
8000939c:	00080713          	mv	a4,a6
800093a0:	000c0613          	mv	a2,s8
800093a4:	000c8693          	mv	a3,s9
800093a8:	00040513          	mv	a0,s0
800093ac:	00048593          	mv	a1,s1
800093b0:	1c1020ef          	jal	ra,8000bd70 <fma>
800093b4:	0c412383          	lw	t2,196(sp)
800093b8:	00892d03          	lw	s10,8(s2)
800093bc:	00c92d83          	lw	s11,12(s2)
800093c0:	0c012303          	lw	t1,192(sp)
800093c4:	00038793          	mv	a5,t2
800093c8:	000d0613          	mv	a2,s10
800093cc:	00030713          	mv	a4,t1
800093d0:	000d8693          	mv	a3,s11
800093d4:	0ca12423          	sw	a0,200(sp)
800093d8:	0cb12623          	sw	a1,204(sp)
800093dc:	00040513          	mv	a0,s0
800093e0:	00048593          	mv	a1,s1
800093e4:	18d020ef          	jal	ra,8000bd70 <fma>
800093e8:	0d812f03          	lw	t5,216(sp)
800093ec:	0dc12f83          	lw	t6,220(sp)
800093f0:	01092b03          	lw	s6,16(s2)
800093f4:	01492b83          	lw	s7,20(s2)
800093f8:	000f0713          	mv	a4,t5
800093fc:	000f8793          	mv	a5,t6
80009400:	000b0613          	mv	a2,s6
80009404:	000b8693          	mv	a3,s7
80009408:	0ca12023          	sw	a0,192(sp)
8000940c:	0cb12223          	sw	a1,196(sp)
80009410:	00040513          	mv	a0,s0
80009414:	00048593          	mv	a1,s1
80009418:	159020ef          	jal	ra,8000bd70 <fma>
8000941c:	01892a03          	lw	s4,24(s2)
80009420:	01c92a83          	lw	s5,28(s2)
80009424:	03812703          	lw	a4,56(sp)
80009428:	03c12783          	lw	a5,60(sp)
8000942c:	000a0613          	mv	a2,s4
80009430:	000a8693          	mv	a3,s5
80009434:	0aa12c23          	sw	a0,184(sp)
80009438:	0ab12e23          	sw	a1,188(sp)
8000943c:	00040513          	mv	a0,s0
80009440:	00048593          	mv	a1,s1
80009444:	12d020ef          	jal	ra,8000bd70 <fma>
80009448:	02092783          	lw	a5,32(s2)
8000944c:	02492803          	lw	a6,36(s2)
80009450:	04012703          	lw	a4,64(sp)
80009454:	00078313          	mv	t1,a5
80009458:	04412783          	lw	a5,68(sp)
8000945c:	00030613          	mv	a2,t1
80009460:	00080693          	mv	a3,a6
80009464:	02a12c23          	sw	a0,56(sp)
80009468:	02b12e23          	sw	a1,60(sp)
8000946c:	00040513          	mv	a0,s0
80009470:	00048593          	mv	a1,s1
80009474:	02612823          	sw	t1,48(sp)
80009478:	03012a23          	sw	a6,52(sp)
8000947c:	0f5020ef          	jal	ra,8000bd70 <fma>
80009480:	02812683          	lw	a3,40(sp)
80009484:	04812703          	lw	a4,72(sp)
80009488:	04a12023          	sw	a0,64(sp)
8000948c:	0086a403          	lw	s0,8(a3)
80009490:	00c6a483          	lw	s1,12(a3)
80009494:	04b12223          	sw	a1,68(sp)
80009498:	04c12783          	lw	a5,76(sp)
8000949c:	000c0613          	mv	a2,s8
800094a0:	000c8693          	mv	a3,s9
800094a4:	00040513          	mv	a0,s0
800094a8:	00048593          	mv	a1,s1
800094ac:	0c5020ef          	jal	ra,8000bd70 <fma>
800094b0:	05012703          	lw	a4,80(sp)
800094b4:	05412783          	lw	a5,84(sp)
800094b8:	000d0613          	mv	a2,s10
800094bc:	000d8693          	mv	a3,s11
800094c0:	04a12423          	sw	a0,72(sp)
800094c4:	04b12623          	sw	a1,76(sp)
800094c8:	00040513          	mv	a0,s0
800094cc:	00048593          	mv	a1,s1
800094d0:	0a1020ef          	jal	ra,8000bd70 <fma>
800094d4:	05812703          	lw	a4,88(sp)
800094d8:	05c12783          	lw	a5,92(sp)
800094dc:	000b0613          	mv	a2,s6
800094e0:	000b8693          	mv	a3,s7
800094e4:	04a12823          	sw	a0,80(sp)
800094e8:	04b12a23          	sw	a1,84(sp)
800094ec:	00040513          	mv	a0,s0
800094f0:	00048593          	mv	a1,s1
800094f4:	07d020ef          	jal	ra,8000bd70 <fma>
800094f8:	06012703          	lw	a4,96(sp)
800094fc:	06412783          	lw	a5,100(sp)
80009500:	000a0613          	mv	a2,s4
80009504:	000a8693          	mv	a3,s5
80009508:	04a12c23          	sw	a0,88(sp)
8000950c:	04b12e23          	sw	a1,92(sp)
80009510:	00040513          	mv	a0,s0
80009514:	00048593          	mv	a1,s1
80009518:	059020ef          	jal	ra,8000bd70 <fma>
8000951c:	06812703          	lw	a4,104(sp)
80009520:	06c12783          	lw	a5,108(sp)
80009524:	03012603          	lw	a2,48(sp)
80009528:	03412683          	lw	a3,52(sp)
8000952c:	06a12023          	sw	a0,96(sp)
80009530:	06b12223          	sw	a1,100(sp)
80009534:	00040513          	mv	a0,s0
80009538:	00048593          	mv	a1,s1
8000953c:	035020ef          	jal	ra,8000bd70 <fma>
80009540:	02412603          	lw	a2,36(sp)
80009544:	07012703          	lw	a4,112(sp)
80009548:	07412783          	lw	a5,116(sp)
8000954c:	00862403          	lw	s0,8(a2)
80009550:	00c62483          	lw	s1,12(a2)
80009554:	000c8693          	mv	a3,s9
80009558:	000c0613          	mv	a2,s8
8000955c:	06a12423          	sw	a0,104(sp)
80009560:	06b12623          	sw	a1,108(sp)
80009564:	00040513          	mv	a0,s0
80009568:	00048593          	mv	a1,s1
8000956c:	005020ef          	jal	ra,8000bd70 <fma>
80009570:	07812703          	lw	a4,120(sp)
80009574:	07c12783          	lw	a5,124(sp)
80009578:	000d0613          	mv	a2,s10
8000957c:	000d8693          	mv	a3,s11
80009580:	06a12823          	sw	a0,112(sp)
80009584:	06b12a23          	sw	a1,116(sp)
80009588:	00040513          	mv	a0,s0
8000958c:	00048593          	mv	a1,s1
80009590:	7e0020ef          	jal	ra,8000bd70 <fma>
80009594:	08012703          	lw	a4,128(sp)
80009598:	08412783          	lw	a5,132(sp)
8000959c:	000b0613          	mv	a2,s6
800095a0:	000b8693          	mv	a3,s7
800095a4:	06a12c23          	sw	a0,120(sp)
800095a8:	06b12e23          	sw	a1,124(sp)
800095ac:	00040513          	mv	a0,s0
800095b0:	00048593          	mv	a1,s1
800095b4:	7bc020ef          	jal	ra,8000bd70 <fma>
800095b8:	08812703          	lw	a4,136(sp)
800095bc:	08c12783          	lw	a5,140(sp)
800095c0:	000a0613          	mv	a2,s4
800095c4:	000a8693          	mv	a3,s5
800095c8:	08a12023          	sw	a0,128(sp)
800095cc:	08b12223          	sw	a1,132(sp)
800095d0:	00040513          	mv	a0,s0
800095d4:	00048593          	mv	a1,s1
800095d8:	798020ef          	jal	ra,8000bd70 <fma>
800095dc:	09012703          	lw	a4,144(sp)
800095e0:	09412783          	lw	a5,148(sp)
800095e4:	03012603          	lw	a2,48(sp)
800095e8:	03412683          	lw	a3,52(sp)
800095ec:	08a12423          	sw	a0,136(sp)
800095f0:	08b12623          	sw	a1,140(sp)
800095f4:	00040513          	mv	a0,s0
800095f8:	00048593          	mv	a1,s1
800095fc:	774020ef          	jal	ra,8000bd70 <fma>
80009600:	08b12a23          	sw	a1,148(sp)
80009604:	01812583          	lw	a1,24(sp)
80009608:	09812703          	lw	a4,152(sp)
8000960c:	09c12783          	lw	a5,156(sp)
80009610:	0085a403          	lw	s0,8(a1)
80009614:	00c5a483          	lw	s1,12(a1)
80009618:	000c0613          	mv	a2,s8
8000961c:	000c8693          	mv	a3,s9
80009620:	08a12823          	sw	a0,144(sp)
80009624:	00048593          	mv	a1,s1
80009628:	00040513          	mv	a0,s0
8000962c:	744020ef          	jal	ra,8000bd70 <fma>
80009630:	0a012703          	lw	a4,160(sp)
80009634:	0a412783          	lw	a5,164(sp)
80009638:	000d0613          	mv	a2,s10
8000963c:	000d8693          	mv	a3,s11
80009640:	08a12c23          	sw	a0,152(sp)
80009644:	08b12e23          	sw	a1,156(sp)
80009648:	00040513          	mv	a0,s0
8000964c:	00048593          	mv	a1,s1
80009650:	720020ef          	jal	ra,8000bd70 <fma>
80009654:	0a812703          	lw	a4,168(sp)
80009658:	0ac12783          	lw	a5,172(sp)
8000965c:	000b0613          	mv	a2,s6
80009660:	000b8693          	mv	a3,s7
80009664:	0aa12023          	sw	a0,160(sp)
80009668:	0ab12223          	sw	a1,164(sp)
8000966c:	00040513          	mv	a0,s0
80009670:	00048593          	mv	a1,s1
80009674:	6fc020ef          	jal	ra,8000bd70 <fma>
80009678:	16c12883          	lw	a7,364(sp)
8000967c:	0b012703          	lw	a4,176(sp)
80009680:	0b412783          	lw	a5,180(sp)
80009684:	000a0613          	mv	a2,s4
80009688:	000a8693          	mv	a3,s5
8000968c:	0aa12423          	sw	a0,168(sp)
80009690:	0ab12623          	sw	a1,172(sp)
80009694:	00040513          	mv	a0,s0
80009698:	00048593          	mv	a1,s1
8000969c:	01388933          	add	s2,a7,s3
800096a0:	6d0020ef          	jal	ra,8000bd70 <fma>
800096a4:	0d012e03          	lw	t3,208(sp)
800096a8:	0d412e83          	lw	t4,212(sp)
800096ac:	03012603          	lw	a2,48(sp)
800096b0:	03412683          	lw	a3,52(sp)
800096b4:	000e0713          	mv	a4,t3
800096b8:	000e8793          	mv	a5,t4
800096bc:	0aa12823          	sw	a0,176(sp)
800096c0:	0ab12a23          	sw	a1,180(sp)
800096c4:	00040513          	mv	a0,s0
800096c8:	00048593          	mv	a1,s1
800096cc:	6a4020ef          	jal	ra,8000bd70 <fma>
800096d0:	01012783          	lw	a5,16(sp)
800096d4:	0ca12823          	sw	a0,208(sp)
800096d8:	0cb12a23          	sw	a1,212(sp)
800096dc:	0107a403          	lw	s0,16(a5)
800096e0:	0147a483          	lw	s1,20(a5)
800096e4:	00092c03          	lw	s8,0(s2)
800096e8:	0cc12883          	lw	a7,204(sp)
800096ec:	0c812803          	lw	a6,200(sp)
800096f0:	00492c83          	lw	s9,4(s2)
800096f4:	00088793          	mv	a5,a7
800096f8:	00080713          	mv	a4,a6
800096fc:	000c0613          	mv	a2,s8
80009700:	000c8693          	mv	a3,s9
80009704:	00040513          	mv	a0,s0
80009708:	00048593          	mv	a1,s1
8000970c:	664020ef          	jal	ra,8000bd70 <fma>
80009710:	0c412383          	lw	t2,196(sp)
80009714:	00892d03          	lw	s10,8(s2)
80009718:	00c92d83          	lw	s11,12(s2)
8000971c:	0c012303          	lw	t1,192(sp)
80009720:	00038793          	mv	a5,t2
80009724:	000d0613          	mv	a2,s10
80009728:	00030713          	mv	a4,t1
8000972c:	000d8693          	mv	a3,s11
80009730:	0ca12423          	sw	a0,200(sp)
80009734:	0cb12623          	sw	a1,204(sp)
80009738:	00040513          	mv	a0,s0
8000973c:	00048593          	mv	a1,s1
80009740:	630020ef          	jal	ra,8000bd70 <fma>
80009744:	0b812f03          	lw	t5,184(sp)
80009748:	0bc12f83          	lw	t6,188(sp)
8000974c:	01092b03          	lw	s6,16(s2)
80009750:	01492b83          	lw	s7,20(s2)
80009754:	000f0713          	mv	a4,t5
80009758:	000f8793          	mv	a5,t6
8000975c:	000b0613          	mv	a2,s6
80009760:	000b8693          	mv	a3,s7
80009764:	0ca12023          	sw	a0,192(sp)
80009768:	0cb12223          	sw	a1,196(sp)
8000976c:	00040513          	mv	a0,s0
80009770:	00048593          	mv	a1,s1
80009774:	5fc020ef          	jal	ra,8000bd70 <fma>
80009778:	01892a03          	lw	s4,24(s2)
8000977c:	01c92a83          	lw	s5,28(s2)
80009780:	03812703          	lw	a4,56(sp)
80009784:	03c12783          	lw	a5,60(sp)
80009788:	000a0613          	mv	a2,s4
8000978c:	000a8693          	mv	a3,s5
80009790:	0aa12c23          	sw	a0,184(sp)
80009794:	0ab12e23          	sw	a1,188(sp)
80009798:	00040513          	mv	a0,s0
8000979c:	00048593          	mv	a1,s1
800097a0:	5d0020ef          	jal	ra,8000bd70 <fma>
800097a4:	02092783          	lw	a5,32(s2)
800097a8:	02492803          	lw	a6,36(s2)
800097ac:	04012703          	lw	a4,64(sp)
800097b0:	00078313          	mv	t1,a5
800097b4:	04412783          	lw	a5,68(sp)
800097b8:	00030613          	mv	a2,t1
800097bc:	00080693          	mv	a3,a6
800097c0:	02a12c23          	sw	a0,56(sp)
800097c4:	02b12e23          	sw	a1,60(sp)
800097c8:	00040513          	mv	a0,s0
800097cc:	00048593          	mv	a1,s1
800097d0:	02612823          	sw	t1,48(sp)
800097d4:	03012a23          	sw	a6,52(sp)
800097d8:	598020ef          	jal	ra,8000bd70 <fma>
800097dc:	02812683          	lw	a3,40(sp)
800097e0:	04812703          	lw	a4,72(sp)
800097e4:	04c12783          	lw	a5,76(sp)
800097e8:	0106a403          	lw	s0,16(a3)
800097ec:	0146a483          	lw	s1,20(a3)
800097f0:	000c0613          	mv	a2,s8
800097f4:	000c8693          	mv	a3,s9
800097f8:	04a12023          	sw	a0,64(sp)
800097fc:	04b12223          	sw	a1,68(sp)
80009800:	00040513          	mv	a0,s0
80009804:	00048593          	mv	a1,s1
80009808:	568020ef          	jal	ra,8000bd70 <fma>
8000980c:	05012703          	lw	a4,80(sp)
80009810:	05412783          	lw	a5,84(sp)
80009814:	000d0613          	mv	a2,s10
80009818:	000d8693          	mv	a3,s11
8000981c:	04a12423          	sw	a0,72(sp)
80009820:	04b12623          	sw	a1,76(sp)
80009824:	00040513          	mv	a0,s0
80009828:	00048593          	mv	a1,s1
8000982c:	544020ef          	jal	ra,8000bd70 <fma>
80009830:	05812703          	lw	a4,88(sp)
80009834:	05c12783          	lw	a5,92(sp)
80009838:	000b0613          	mv	a2,s6
8000983c:	000b8693          	mv	a3,s7
80009840:	04a12823          	sw	a0,80(sp)
80009844:	04b12a23          	sw	a1,84(sp)
80009848:	00040513          	mv	a0,s0
8000984c:	00048593          	mv	a1,s1
80009850:	520020ef          	jal	ra,8000bd70 <fma>
80009854:	06012703          	lw	a4,96(sp)
80009858:	06412783          	lw	a5,100(sp)
8000985c:	000a0613          	mv	a2,s4
80009860:	000a8693          	mv	a3,s5
80009864:	04a12c23          	sw	a0,88(sp)
80009868:	04b12e23          	sw	a1,92(sp)
8000986c:	00040513          	mv	a0,s0
80009870:	00048593          	mv	a1,s1
80009874:	4fc020ef          	jal	ra,8000bd70 <fma>
80009878:	06812703          	lw	a4,104(sp)
8000987c:	06c12783          	lw	a5,108(sp)
80009880:	03012603          	lw	a2,48(sp)
80009884:	03412683          	lw	a3,52(sp)
80009888:	06a12023          	sw	a0,96(sp)
8000988c:	06b12223          	sw	a1,100(sp)
80009890:	00040513          	mv	a0,s0
80009894:	00048593          	mv	a1,s1
80009898:	4d8020ef          	jal	ra,8000bd70 <fma>
8000989c:	02412603          	lw	a2,36(sp)
800098a0:	07012703          	lw	a4,112(sp)
800098a4:	07412783          	lw	a5,116(sp)
800098a8:	01062403          	lw	s0,16(a2)
800098ac:	01462483          	lw	s1,20(a2)
800098b0:	000c8693          	mv	a3,s9
800098b4:	000c0613          	mv	a2,s8
800098b8:	06a12423          	sw	a0,104(sp)
800098bc:	06b12623          	sw	a1,108(sp)
800098c0:	00040513          	mv	a0,s0
800098c4:	00048593          	mv	a1,s1
800098c8:	4a8020ef          	jal	ra,8000bd70 <fma>
800098cc:	07812703          	lw	a4,120(sp)
800098d0:	07c12783          	lw	a5,124(sp)
800098d4:	000d0613          	mv	a2,s10
800098d8:	000d8693          	mv	a3,s11
800098dc:	06a12823          	sw	a0,112(sp)
800098e0:	06b12a23          	sw	a1,116(sp)
800098e4:	00040513          	mv	a0,s0
800098e8:	00048593          	mv	a1,s1
800098ec:	484020ef          	jal	ra,8000bd70 <fma>
800098f0:	08012703          	lw	a4,128(sp)
800098f4:	08412783          	lw	a5,132(sp)
800098f8:	000b0613          	mv	a2,s6
800098fc:	000b8693          	mv	a3,s7
80009900:	06a12c23          	sw	a0,120(sp)
80009904:	06b12e23          	sw	a1,124(sp)
80009908:	00040513          	mv	a0,s0
8000990c:	00048593          	mv	a1,s1
80009910:	460020ef          	jal	ra,8000bd70 <fma>
80009914:	08c12783          	lw	a5,140(sp)
80009918:	08812703          	lw	a4,136(sp)
8000991c:	000a0613          	mv	a2,s4
80009920:	000a8693          	mv	a3,s5
80009924:	08a12023          	sw	a0,128(sp)
80009928:	08b12223          	sw	a1,132(sp)
8000992c:	00040513          	mv	a0,s0
80009930:	00048593          	mv	a1,s1
80009934:	43c020ef          	jal	ra,8000bd70 <fma>
80009938:	08a12423          	sw	a0,136(sp)
8000993c:	08b12623          	sw	a1,140(sp)
80009940:	09012703          	lw	a4,144(sp)
80009944:	09412783          	lw	a5,148(sp)
80009948:	03012603          	lw	a2,48(sp)
8000994c:	03412683          	lw	a3,52(sp)
80009950:	00040513          	mv	a0,s0
80009954:	00048593          	mv	a1,s1
80009958:	418020ef          	jal	ra,8000bd70 <fma>
8000995c:	08b12a23          	sw	a1,148(sp)
80009960:	01812583          	lw	a1,24(sp)
80009964:	09812703          	lw	a4,152(sp)
80009968:	09c12783          	lw	a5,156(sp)
8000996c:	0105a403          	lw	s0,16(a1)
80009970:	0145a483          	lw	s1,20(a1)
80009974:	000c0613          	mv	a2,s8
80009978:	000c8693          	mv	a3,s9
8000997c:	08a12823          	sw	a0,144(sp)
80009980:	00048593          	mv	a1,s1
80009984:	00040513          	mv	a0,s0
80009988:	3e8020ef          	jal	ra,8000bd70 <fma>
8000998c:	0a012703          	lw	a4,160(sp)
80009990:	0a412783          	lw	a5,164(sp)
80009994:	000d0613          	mv	a2,s10
80009998:	000d8693          	mv	a3,s11
8000999c:	08a12c23          	sw	a0,152(sp)
800099a0:	08b12e23          	sw	a1,156(sp)
800099a4:	00040513          	mv	a0,s0
800099a8:	00048593          	mv	a1,s1
800099ac:	3c4020ef          	jal	ra,8000bd70 <fma>
800099b0:	0a812703          	lw	a4,168(sp)
800099b4:	0ac12783          	lw	a5,172(sp)
800099b8:	000b0613          	mv	a2,s6
800099bc:	000b8693          	mv	a3,s7
800099c0:	0aa12023          	sw	a0,160(sp)
800099c4:	0ab12223          	sw	a1,164(sp)
800099c8:	00040513          	mv	a0,s0
800099cc:	00048593          	mv	a1,s1
800099d0:	3a0020ef          	jal	ra,8000bd70 <fma>
800099d4:	17412883          	lw	a7,372(sp)
800099d8:	0b012703          	lw	a4,176(sp)
800099dc:	0b412783          	lw	a5,180(sp)
800099e0:	000a0613          	mv	a2,s4
800099e4:	000a8693          	mv	a3,s5
800099e8:	0aa12423          	sw	a0,168(sp)
800099ec:	0ab12623          	sw	a1,172(sp)
800099f0:	00040513          	mv	a0,s0
800099f4:	00048593          	mv	a1,s1
800099f8:	01198933          	add	s2,s3,a7
800099fc:	374020ef          	jal	ra,8000bd70 <fma>
80009a00:	0d012e03          	lw	t3,208(sp)
80009a04:	0d412e83          	lw	t4,212(sp)
80009a08:	03012603          	lw	a2,48(sp)
80009a0c:	03412683          	lw	a3,52(sp)
80009a10:	000e0713          	mv	a4,t3
80009a14:	000e8793          	mv	a5,t4
80009a18:	0aa12823          	sw	a0,176(sp)
80009a1c:	0ab12a23          	sw	a1,180(sp)
80009a20:	00040513          	mv	a0,s0
80009a24:	00048593          	mv	a1,s1
80009a28:	348020ef          	jal	ra,8000bd70 <fma>
80009a2c:	01012783          	lw	a5,16(sp)
80009a30:	00092c03          	lw	s8,0(s2)
80009a34:	0ca12823          	sw	a0,208(sp)
80009a38:	0187a403          	lw	s0,24(a5)
80009a3c:	01c7a483          	lw	s1,28(a5)
80009a40:	0cb12a23          	sw	a1,212(sp)
80009a44:	00492c83          	lw	s9,4(s2)
80009a48:	0cc12883          	lw	a7,204(sp)
80009a4c:	0c812803          	lw	a6,200(sp)
80009a50:	000c0613          	mv	a2,s8
80009a54:	00088793          	mv	a5,a7
80009a58:	00080713          	mv	a4,a6
80009a5c:	000c8693          	mv	a3,s9
80009a60:	00040513          	mv	a0,s0
80009a64:	00048593          	mv	a1,s1
80009a68:	308020ef          	jal	ra,8000bd70 <fma>
80009a6c:	0c412383          	lw	t2,196(sp)
80009a70:	00892d03          	lw	s10,8(s2)
80009a74:	00c92d83          	lw	s11,12(s2)
80009a78:	0c012303          	lw	t1,192(sp)
80009a7c:	00038793          	mv	a5,t2
80009a80:	000d0613          	mv	a2,s10
80009a84:	00030713          	mv	a4,t1
80009a88:	000d8693          	mv	a3,s11
80009a8c:	0ca12423          	sw	a0,200(sp)
80009a90:	0cb12623          	sw	a1,204(sp)
80009a94:	00040513          	mv	a0,s0
80009a98:	00048593          	mv	a1,s1
80009a9c:	2d4020ef          	jal	ra,8000bd70 <fma>
80009aa0:	0b812f03          	lw	t5,184(sp)
80009aa4:	0bc12f83          	lw	t6,188(sp)
80009aa8:	01092b03          	lw	s6,16(s2)
80009aac:	01492b83          	lw	s7,20(s2)
80009ab0:	000f0713          	mv	a4,t5
80009ab4:	000f8793          	mv	a5,t6
80009ab8:	000b0613          	mv	a2,s6
80009abc:	000b8693          	mv	a3,s7
80009ac0:	0ca12023          	sw	a0,192(sp)
80009ac4:	0cb12223          	sw	a1,196(sp)
80009ac8:	00040513          	mv	a0,s0
80009acc:	00048593          	mv	a1,s1
80009ad0:	2a0020ef          	jal	ra,8000bd70 <fma>
80009ad4:	01892a03          	lw	s4,24(s2)
80009ad8:	01c92a83          	lw	s5,28(s2)
80009adc:	03812703          	lw	a4,56(sp)
80009ae0:	03c12783          	lw	a5,60(sp)
80009ae4:	000a0613          	mv	a2,s4
80009ae8:	000a8693          	mv	a3,s5
80009aec:	0aa12c23          	sw	a0,184(sp)
80009af0:	0ab12e23          	sw	a1,188(sp)
80009af4:	00040513          	mv	a0,s0
80009af8:	00048593          	mv	a1,s1
80009afc:	274020ef          	jal	ra,8000bd70 <fma>
80009b00:	02092783          	lw	a5,32(s2)
80009b04:	02492803          	lw	a6,36(s2)
80009b08:	04012703          	lw	a4,64(sp)
80009b0c:	00078313          	mv	t1,a5
80009b10:	04412783          	lw	a5,68(sp)
80009b14:	00030613          	mv	a2,t1
80009b18:	00080693          	mv	a3,a6
80009b1c:	02a12c23          	sw	a0,56(sp)
80009b20:	02b12e23          	sw	a1,60(sp)
80009b24:	00040513          	mv	a0,s0
80009b28:	00048593          	mv	a1,s1
80009b2c:	02612823          	sw	t1,48(sp)
80009b30:	03012a23          	sw	a6,52(sp)
80009b34:	23c020ef          	jal	ra,8000bd70 <fma>
80009b38:	02812683          	lw	a3,40(sp)
80009b3c:	04c12783          	lw	a5,76(sp)
80009b40:	04812703          	lw	a4,72(sp)
80009b44:	0186a403          	lw	s0,24(a3)
80009b48:	01c6a483          	lw	s1,28(a3)
80009b4c:	000c0613          	mv	a2,s8
80009b50:	000c8693          	mv	a3,s9
80009b54:	04a12023          	sw	a0,64(sp)
80009b58:	04b12223          	sw	a1,68(sp)
80009b5c:	00040513          	mv	a0,s0
80009b60:	00048593          	mv	a1,s1
80009b64:	20c020ef          	jal	ra,8000bd70 <fma>
80009b68:	04a12423          	sw	a0,72(sp)
80009b6c:	04b12623          	sw	a1,76(sp)
80009b70:	05012703          	lw	a4,80(sp)
80009b74:	05412783          	lw	a5,84(sp)
80009b78:	000d0613          	mv	a2,s10
80009b7c:	000d8693          	mv	a3,s11
80009b80:	00040513          	mv	a0,s0
80009b84:	00048593          	mv	a1,s1
80009b88:	1e8020ef          	jal	ra,8000bd70 <fma>
80009b8c:	05812703          	lw	a4,88(sp)
80009b90:	05c12783          	lw	a5,92(sp)
80009b94:	000b0613          	mv	a2,s6
80009b98:	000b8693          	mv	a3,s7
80009b9c:	04a12823          	sw	a0,80(sp)
80009ba0:	04b12a23          	sw	a1,84(sp)
80009ba4:	00040513          	mv	a0,s0
80009ba8:	00048593          	mv	a1,s1
80009bac:	1c4020ef          	jal	ra,8000bd70 <fma>
80009bb0:	06012703          	lw	a4,96(sp)
80009bb4:	06412783          	lw	a5,100(sp)
80009bb8:	000a0613          	mv	a2,s4
80009bbc:	000a8693          	mv	a3,s5
80009bc0:	04a12c23          	sw	a0,88(sp)
80009bc4:	04b12e23          	sw	a1,92(sp)
80009bc8:	00040513          	mv	a0,s0
80009bcc:	00048593          	mv	a1,s1
80009bd0:	1a0020ef          	jal	ra,8000bd70 <fma>
80009bd4:	06812703          	lw	a4,104(sp)
80009bd8:	06c12783          	lw	a5,108(sp)
80009bdc:	03012603          	lw	a2,48(sp)
80009be0:	03412683          	lw	a3,52(sp)
80009be4:	06a12023          	sw	a0,96(sp)
80009be8:	06b12223          	sw	a1,100(sp)
80009bec:	00040513          	mv	a0,s0
80009bf0:	00048593          	mv	a1,s1
80009bf4:	17c020ef          	jal	ra,8000bd70 <fma>
80009bf8:	02412603          	lw	a2,36(sp)
80009bfc:	07012703          	lw	a4,112(sp)
80009c00:	07412783          	lw	a5,116(sp)
80009c04:	01862403          	lw	s0,24(a2)
80009c08:	01c62483          	lw	s1,28(a2)
80009c0c:	000c8693          	mv	a3,s9
80009c10:	000c0613          	mv	a2,s8
80009c14:	06a12423          	sw	a0,104(sp)
80009c18:	06b12623          	sw	a1,108(sp)
80009c1c:	00040513          	mv	a0,s0
80009c20:	00048593          	mv	a1,s1
80009c24:	14c020ef          	jal	ra,8000bd70 <fma>
80009c28:	07812703          	lw	a4,120(sp)
80009c2c:	07c12783          	lw	a5,124(sp)
80009c30:	000d0613          	mv	a2,s10
80009c34:	000d8693          	mv	a3,s11
80009c38:	06a12823          	sw	a0,112(sp)
80009c3c:	06b12a23          	sw	a1,116(sp)
80009c40:	00040513          	mv	a0,s0
80009c44:	00048593          	mv	a1,s1
80009c48:	128020ef          	jal	ra,8000bd70 <fma>
80009c4c:	08012703          	lw	a4,128(sp)
80009c50:	08412783          	lw	a5,132(sp)
80009c54:	000b0613          	mv	a2,s6
80009c58:	000b8693          	mv	a3,s7
80009c5c:	06a12c23          	sw	a0,120(sp)
80009c60:	06b12e23          	sw	a1,124(sp)
80009c64:	00040513          	mv	a0,s0
80009c68:	00048593          	mv	a1,s1
80009c6c:	104020ef          	jal	ra,8000bd70 <fma>
80009c70:	08812703          	lw	a4,136(sp)
80009c74:	08c12783          	lw	a5,140(sp)
80009c78:	000a0613          	mv	a2,s4
80009c7c:	000a8693          	mv	a3,s5
80009c80:	08a12023          	sw	a0,128(sp)
80009c84:	08b12223          	sw	a1,132(sp)
80009c88:	00040513          	mv	a0,s0
80009c8c:	00048593          	mv	a1,s1
80009c90:	0e0020ef          	jal	ra,8000bd70 <fma>
80009c94:	09012703          	lw	a4,144(sp)
80009c98:	08a12423          	sw	a0,136(sp)
80009c9c:	08b12623          	sw	a1,140(sp)
80009ca0:	09412783          	lw	a5,148(sp)
80009ca4:	03012603          	lw	a2,48(sp)
80009ca8:	03412683          	lw	a3,52(sp)
80009cac:	00040513          	mv	a0,s0
80009cb0:	00048593          	mv	a1,s1
80009cb4:	0bc020ef          	jal	ra,8000bd70 <fma>
80009cb8:	08b12a23          	sw	a1,148(sp)
80009cbc:	01812583          	lw	a1,24(sp)
80009cc0:	09812703          	lw	a4,152(sp)
80009cc4:	09c12783          	lw	a5,156(sp)
80009cc8:	0185a403          	lw	s0,24(a1)
80009ccc:	01c5a483          	lw	s1,28(a1)
80009cd0:	000c0613          	mv	a2,s8
80009cd4:	000c8693          	mv	a3,s9
80009cd8:	08a12823          	sw	a0,144(sp)
80009cdc:	00048593          	mv	a1,s1
80009ce0:	00040513          	mv	a0,s0
80009ce4:	08c020ef          	jal	ra,8000bd70 <fma>
80009ce8:	0a012703          	lw	a4,160(sp)
80009cec:	0a412783          	lw	a5,164(sp)
80009cf0:	000d0613          	mv	a2,s10
80009cf4:	000d8693          	mv	a3,s11
80009cf8:	08a12c23          	sw	a0,152(sp)
80009cfc:	08b12e23          	sw	a1,156(sp)
80009d00:	00040513          	mv	a0,s0
80009d04:	00048593          	mv	a1,s1
80009d08:	068020ef          	jal	ra,8000bd70 <fma>
80009d0c:	0a812703          	lw	a4,168(sp)
80009d10:	0ac12783          	lw	a5,172(sp)
80009d14:	000b0613          	mv	a2,s6
80009d18:	000b8693          	mv	a3,s7
80009d1c:	0aa12023          	sw	a0,160(sp)
80009d20:	0ab12223          	sw	a1,164(sp)
80009d24:	00040513          	mv	a0,s0
80009d28:	00048593          	mv	a1,s1
80009d2c:	044020ef          	jal	ra,8000bd70 <fma>
80009d30:	17012883          	lw	a7,368(sp)
80009d34:	0b012703          	lw	a4,176(sp)
80009d38:	0b412783          	lw	a5,180(sp)
80009d3c:	000a0613          	mv	a2,s4
80009d40:	000a8693          	mv	a3,s5
80009d44:	0aa12423          	sw	a0,168(sp)
80009d48:	0ab12623          	sw	a1,172(sp)
80009d4c:	00040513          	mv	a0,s0
80009d50:	00048593          	mv	a1,s1
80009d54:	01388933          	add	s2,a7,s3
80009d58:	018020ef          	jal	ra,8000bd70 <fma>
80009d5c:	0d012e03          	lw	t3,208(sp)
80009d60:	0d412e83          	lw	t4,212(sp)
80009d64:	03012603          	lw	a2,48(sp)
80009d68:	03412683          	lw	a3,52(sp)
80009d6c:	000e0713          	mv	a4,t3
80009d70:	000e8793          	mv	a5,t4
80009d74:	0aa12823          	sw	a0,176(sp)
80009d78:	0ab12a23          	sw	a1,180(sp)
80009d7c:	00040513          	mv	a0,s0
80009d80:	00048593          	mv	a1,s1
80009d84:	7ed010ef          	jal	ra,8000bd70 <fma>
80009d88:	01012783          	lw	a5,16(sp)
80009d8c:	00092c03          	lw	s8,0(s2)
80009d90:	00492c83          	lw	s9,4(s2)
80009d94:	0207a403          	lw	s0,32(a5)
80009d98:	0247a483          	lw	s1,36(a5)
80009d9c:	14a12423          	sw	a0,328(sp)
80009da0:	14b12623          	sw	a1,332(sp)
80009da4:	0c812803          	lw	a6,200(sp)
80009da8:	0cc12883          	lw	a7,204(sp)
80009dac:	000c0613          	mv	a2,s8
80009db0:	00080713          	mv	a4,a6
80009db4:	00088793          	mv	a5,a7
80009db8:	000c8693          	mv	a3,s9
80009dbc:	00040513          	mv	a0,s0
80009dc0:	00048593          	mv	a1,s1
80009dc4:	7ad010ef          	jal	ra,8000bd70 <fma>
80009dc8:	0c412383          	lw	t2,196(sp)
80009dcc:	00892d03          	lw	s10,8(s2)
80009dd0:	00c92d83          	lw	s11,12(s2)
80009dd4:	0c012303          	lw	t1,192(sp)
80009dd8:	00038793          	mv	a5,t2
80009ddc:	000d0613          	mv	a2,s10
80009de0:	00030713          	mv	a4,t1
80009de4:	000d8693          	mv	a3,s11
80009de8:	14a12023          	sw	a0,320(sp)
80009dec:	14b12223          	sw	a1,324(sp)
80009df0:	00040513          	mv	a0,s0
80009df4:	00048593          	mv	a1,s1
80009df8:	779010ef          	jal	ra,8000bd70 <fma>
80009dfc:	0b812f03          	lw	t5,184(sp)
80009e00:	0bc12f83          	lw	t6,188(sp)
80009e04:	01092b03          	lw	s6,16(s2)
80009e08:	01492b83          	lw	s7,20(s2)
80009e0c:	000f0713          	mv	a4,t5
80009e10:	000f8793          	mv	a5,t6
80009e14:	000b0613          	mv	a2,s6
80009e18:	000b8693          	mv	a3,s7
80009e1c:	14a12c23          	sw	a0,344(sp)
80009e20:	14b12e23          	sw	a1,348(sp)
80009e24:	00040513          	mv	a0,s0
80009e28:	00048593          	mv	a1,s1
80009e2c:	745010ef          	jal	ra,8000bd70 <fma>
80009e30:	01892a03          	lw	s4,24(s2)
80009e34:	01c92a83          	lw	s5,28(s2)
80009e38:	03812703          	lw	a4,56(sp)
80009e3c:	03c12783          	lw	a5,60(sp)
80009e40:	000a0613          	mv	a2,s4
80009e44:	000a8693          	mv	a3,s5
80009e48:	14a12823          	sw	a0,336(sp)
80009e4c:	14b12a23          	sw	a1,340(sp)
80009e50:	00040513          	mv	a0,s0
80009e54:	00048593          	mv	a1,s1
80009e58:	719010ef          	jal	ra,8000bd70 <fma>
80009e5c:	02092783          	lw	a5,32(s2)
80009e60:	02492803          	lw	a6,36(s2)
80009e64:	04012703          	lw	a4,64(sp)
80009e68:	00078313          	mv	t1,a5
80009e6c:	04412783          	lw	a5,68(sp)
80009e70:	00030613          	mv	a2,t1
80009e74:	00080693          	mv	a3,a6
80009e78:	0aa12c23          	sw	a0,184(sp)
80009e7c:	0ab12e23          	sw	a1,188(sp)
80009e80:	00040513          	mv	a0,s0
80009e84:	00048593          	mv	a1,s1
80009e88:	02612823          	sw	t1,48(sp)
80009e8c:	03012a23          	sw	a6,52(sp)
80009e90:	6e1010ef          	jal	ra,8000bd70 <fma>
80009e94:	02812683          	lw	a3,40(sp)
80009e98:	04812703          	lw	a4,72(sp)
80009e9c:	04c12783          	lw	a5,76(sp)
80009ea0:	0206a403          	lw	s0,32(a3)
80009ea4:	0246a483          	lw	s1,36(a3)
80009ea8:	000c0613          	mv	a2,s8
80009eac:	000c8693          	mv	a3,s9
80009eb0:	0ca12423          	sw	a0,200(sp)
80009eb4:	0cb12623          	sw	a1,204(sp)
80009eb8:	00040513          	mv	a0,s0
80009ebc:	00048593          	mv	a1,s1
80009ec0:	6b1010ef          	jal	ra,8000bd70 <fma>
80009ec4:	05012703          	lw	a4,80(sp)
80009ec8:	0ca12823          	sw	a0,208(sp)
80009ecc:	0cb12a23          	sw	a1,212(sp)
80009ed0:	05412783          	lw	a5,84(sp)
80009ed4:	000d0613          	mv	a2,s10
80009ed8:	000d8693          	mv	a3,s11
80009edc:	00040513          	mv	a0,s0
80009ee0:	00048593          	mv	a1,s1
80009ee4:	68d010ef          	jal	ra,8000bd70 <fma>
80009ee8:	05812703          	lw	a4,88(sp)
80009eec:	05c12783          	lw	a5,92(sp)
80009ef0:	000b0613          	mv	a2,s6
80009ef4:	000b8693          	mv	a3,s7
80009ef8:	0ca12c23          	sw	a0,216(sp)
80009efc:	0cb12e23          	sw	a1,220(sp)
80009f00:	00040513          	mv	a0,s0
80009f04:	00048593          	mv	a1,s1
80009f08:	669010ef          	jal	ra,8000bd70 <fma>
80009f0c:	06012703          	lw	a4,96(sp)
80009f10:	06412783          	lw	a5,100(sp)
80009f14:	000a0613          	mv	a2,s4
80009f18:	000a8693          	mv	a3,s5
80009f1c:	0ea12023          	sw	a0,224(sp)
80009f20:	0eb12223          	sw	a1,228(sp)
80009f24:	00040513          	mv	a0,s0
80009f28:	00048593          	mv	a1,s1
80009f2c:	645010ef          	jal	ra,8000bd70 <fma>
80009f30:	06812703          	lw	a4,104(sp)
80009f34:	06c12783          	lw	a5,108(sp)
80009f38:	03012603          	lw	a2,48(sp)
80009f3c:	03412683          	lw	a3,52(sp)
80009f40:	0ea12423          	sw	a0,232(sp)
80009f44:	0eb12623          	sw	a1,236(sp)
80009f48:	00040513          	mv	a0,s0
80009f4c:	00048593          	mv	a1,s1
80009f50:	621010ef          	jal	ra,8000bd70 <fma>
80009f54:	02412603          	lw	a2,36(sp)
80009f58:	07012703          	lw	a4,112(sp)
80009f5c:	07412783          	lw	a5,116(sp)
80009f60:	02062403          	lw	s0,32(a2)
80009f64:	02462483          	lw	s1,36(a2)
80009f68:	000c8693          	mv	a3,s9
80009f6c:	000c0613          	mv	a2,s8
80009f70:	0ea12823          	sw	a0,240(sp)
80009f74:	0eb12a23          	sw	a1,244(sp)
80009f78:	00040513          	mv	a0,s0
80009f7c:	00048593          	mv	a1,s1
80009f80:	5f1010ef          	jal	ra,8000bd70 <fma>
80009f84:	07812703          	lw	a4,120(sp)
80009f88:	07c12783          	lw	a5,124(sp)
80009f8c:	000d0613          	mv	a2,s10
80009f90:	000d8693          	mv	a3,s11
80009f94:	0ea12c23          	sw	a0,248(sp)
80009f98:	0eb12e23          	sw	a1,252(sp)
80009f9c:	00040513          	mv	a0,s0
80009fa0:	00048593          	mv	a1,s1
80009fa4:	5cd010ef          	jal	ra,8000bd70 <fma>
80009fa8:	08012703          	lw	a4,128(sp)
80009fac:	08412783          	lw	a5,132(sp)
80009fb0:	000b0613          	mv	a2,s6
80009fb4:	000b8693          	mv	a3,s7
80009fb8:	10a12023          	sw	a0,256(sp)
80009fbc:	10b12223          	sw	a1,260(sp)
80009fc0:	00040513          	mv	a0,s0
80009fc4:	00048593          	mv	a1,s1
80009fc8:	5a9010ef          	jal	ra,8000bd70 <fma>
80009fcc:	08812703          	lw	a4,136(sp)
80009fd0:	08c12783          	lw	a5,140(sp)
80009fd4:	000a0613          	mv	a2,s4
80009fd8:	000a8693          	mv	a3,s5
80009fdc:	10a12423          	sw	a0,264(sp)
80009fe0:	10b12623          	sw	a1,268(sp)
80009fe4:	00040513          	mv	a0,s0
80009fe8:	00048593          	mv	a1,s1
80009fec:	585010ef          	jal	ra,8000bd70 <fma>
80009ff0:	09012703          	lw	a4,144(sp)
80009ff4:	09412783          	lw	a5,148(sp)
80009ff8:	10a12823          	sw	a0,272(sp)
80009ffc:	10b12a23          	sw	a1,276(sp)
8000a000:	03012603          	lw	a2,48(sp)
8000a004:	03412683          	lw	a3,52(sp)
8000a008:	00040513          	mv	a0,s0
8000a00c:	00048593          	mv	a1,s1
8000a010:	561010ef          	jal	ra,8000bd70 <fma>
8000a014:	10b12e23          	sw	a1,284(sp)
8000a018:	01812583          	lw	a1,24(sp)
8000a01c:	09812703          	lw	a4,152(sp)
8000a020:	09c12783          	lw	a5,156(sp)
8000a024:	0205a403          	lw	s0,32(a1)
8000a028:	0245a483          	lw	s1,36(a1)
8000a02c:	000c0613          	mv	a2,s8
8000a030:	000c8693          	mv	a3,s9
8000a034:	10a12c23          	sw	a0,280(sp)
8000a038:	00048593          	mv	a1,s1
8000a03c:	00040513          	mv	a0,s0
8000a040:	531010ef          	jal	ra,8000bd70 <fma>
8000a044:	0a012703          	lw	a4,160(sp)
8000a048:	0a412783          	lw	a5,164(sp)
8000a04c:	000d0613          	mv	a2,s10
8000a050:	000d8693          	mv	a3,s11
8000a054:	12a12023          	sw	a0,288(sp)
8000a058:	12b12223          	sw	a1,292(sp)
8000a05c:	00040513          	mv	a0,s0
8000a060:	00048593          	mv	a1,s1
8000a064:	50d010ef          	jal	ra,8000bd70 <fma>
8000a068:	0a812703          	lw	a4,168(sp)
8000a06c:	0ac12783          	lw	a5,172(sp)
8000a070:	000b0613          	mv	a2,s6
8000a074:	000b8693          	mv	a3,s7
8000a078:	12a12423          	sw	a0,296(sp)
8000a07c:	12b12623          	sw	a1,300(sp)
8000a080:	00040513          	mv	a0,s0
8000a084:	00048593          	mv	a1,s1
8000a088:	4e9010ef          	jal	ra,8000bd70 <fma>
8000a08c:	17812883          	lw	a7,376(sp)
8000a090:	0b012703          	lw	a4,176(sp)
8000a094:	0b412783          	lw	a5,180(sp)
8000a098:	000a0613          	mv	a2,s4
8000a09c:	000a8693          	mv	a3,s5
8000a0a0:	12a12823          	sw	a0,304(sp)
8000a0a4:	12b12a23          	sw	a1,308(sp)
8000a0a8:	00040513          	mv	a0,s0
8000a0ac:	00048593          	mv	a1,s1
8000a0b0:	01198933          	add	s2,s3,a7
8000a0b4:	0d312023          	sw	s3,192(sp)
8000a0b8:	4b9010ef          	jal	ra,8000bd70 <fma>
8000a0bc:	14812e03          	lw	t3,328(sp)
8000a0c0:	14c12e83          	lw	t4,332(sp)
8000a0c4:	03012603          	lw	a2,48(sp)
8000a0c8:	03412683          	lw	a3,52(sp)
8000a0cc:	000e0713          	mv	a4,t3
8000a0d0:	000e8793          	mv	a5,t4
8000a0d4:	12a12c23          	sw	a0,312(sp)
8000a0d8:	12b12e23          	sw	a1,316(sp)
8000a0dc:	00040513          	mv	a0,s0
8000a0e0:	00048593          	mv	a1,s1
8000a0e4:	48d010ef          	jal	ra,8000bd70 <fma>
8000a0e8:	01012783          	lw	a5,16(sp)
8000a0ec:	14012803          	lw	a6,320(sp)
8000a0f0:	00092c03          	lw	s8,0(s2)
8000a0f4:	0287a403          	lw	s0,40(a5)
8000a0f8:	02c7a483          	lw	s1,44(a5)
8000a0fc:	00492c83          	lw	s9,4(s2)
8000a100:	14a12423          	sw	a0,328(sp)
8000a104:	14b12623          	sw	a1,332(sp)
8000a108:	14412883          	lw	a7,324(sp)
8000a10c:	00080713          	mv	a4,a6
8000a110:	00040513          	mv	a0,s0
8000a114:	00088793          	mv	a5,a7
8000a118:	00048593          	mv	a1,s1
8000a11c:	000c0613          	mv	a2,s8
8000a120:	000c8693          	mv	a3,s9
8000a124:	44d010ef          	jal	ra,8000bd70 <fma>
8000a128:	15812303          	lw	t1,344(sp)
8000a12c:	15c12383          	lw	t2,348(sp)
8000a130:	00892d03          	lw	s10,8(s2)
8000a134:	00c92d83          	lw	s11,12(s2)
8000a138:	00030713          	mv	a4,t1
8000a13c:	00038793          	mv	a5,t2
8000a140:	14a12023          	sw	a0,320(sp)
8000a144:	14b12223          	sw	a1,324(sp)
8000a148:	00040513          	mv	a0,s0
8000a14c:	00048593          	mv	a1,s1
8000a150:	000d0613          	mv	a2,s10
8000a154:	000d8693          	mv	a3,s11
8000a158:	419010ef          	jal	ra,8000bd70 <fma>
8000a15c:	15012f03          	lw	t5,336(sp)
8000a160:	15412f83          	lw	t6,340(sp)
8000a164:	01092b03          	lw	s6,16(s2)
8000a168:	01492b83          	lw	s7,20(s2)
8000a16c:	000f0713          	mv	a4,t5
8000a170:	000f8793          	mv	a5,t6
8000a174:	02a12823          	sw	a0,48(sp)
8000a178:	02b12a23          	sw	a1,52(sp)
8000a17c:	00040513          	mv	a0,s0
8000a180:	00048593          	mv	a1,s1
8000a184:	000b0613          	mv	a2,s6
8000a188:	000b8693          	mv	a3,s7
8000a18c:	3e5010ef          	jal	ra,8000bd70 <fma>
8000a190:	01892a03          	lw	s4,24(s2)
8000a194:	01c92a83          	lw	s5,28(s2)
8000a198:	0b812703          	lw	a4,184(sp)
8000a19c:	0bc12783          	lw	a5,188(sp)
8000a1a0:	02a12c23          	sw	a0,56(sp)
8000a1a4:	02b12e23          	sw	a1,60(sp)
8000a1a8:	00040513          	mv	a0,s0
8000a1ac:	00048593          	mv	a1,s1
8000a1b0:	000a0613          	mv	a2,s4
8000a1b4:	000a8693          	mv	a3,s5
8000a1b8:	3b9010ef          	jal	ra,8000bd70 <fma>
8000a1bc:	02492983          	lw	s3,36(s2)
8000a1c0:	02092903          	lw	s2,32(s2)
8000a1c4:	0c812703          	lw	a4,200(sp)
8000a1c8:	0cc12783          	lw	a5,204(sp)
8000a1cc:	00098693          	mv	a3,s3
8000a1d0:	04a12023          	sw	a0,64(sp)
8000a1d4:	04b12223          	sw	a1,68(sp)
8000a1d8:	00040513          	mv	a0,s0
8000a1dc:	00048593          	mv	a1,s1
8000a1e0:	00090613          	mv	a2,s2
8000a1e4:	38d010ef          	jal	ra,8000bd70 <fma>
8000a1e8:	02812683          	lw	a3,40(sp)
8000a1ec:	0d012703          	lw	a4,208(sp)
8000a1f0:	0d412783          	lw	a5,212(sp)
8000a1f4:	0286a403          	lw	s0,40(a3)
8000a1f8:	02c6a483          	lw	s1,44(a3)
8000a1fc:	04a12423          	sw	a0,72(sp)
8000a200:	04b12623          	sw	a1,76(sp)
8000a204:	000c0613          	mv	a2,s8
8000a208:	000c8693          	mv	a3,s9
8000a20c:	00040513          	mv	a0,s0
8000a210:	00048593          	mv	a1,s1
8000a214:	35d010ef          	jal	ra,8000bd70 <fma>
8000a218:	0d812703          	lw	a4,216(sp)
8000a21c:	0dc12783          	lw	a5,220(sp)
8000a220:	04a12823          	sw	a0,80(sp)
8000a224:	04b12a23          	sw	a1,84(sp)
8000a228:	000d0613          	mv	a2,s10
8000a22c:	000d8693          	mv	a3,s11
8000a230:	00040513          	mv	a0,s0
8000a234:	00048593          	mv	a1,s1
8000a238:	339010ef          	jal	ra,8000bd70 <fma>
8000a23c:	0e012703          	lw	a4,224(sp)
8000a240:	0e412783          	lw	a5,228(sp)
8000a244:	04a12c23          	sw	a0,88(sp)
8000a248:	04b12e23          	sw	a1,92(sp)
8000a24c:	000b0613          	mv	a2,s6
8000a250:	000b8693          	mv	a3,s7
8000a254:	00040513          	mv	a0,s0
8000a258:	00048593          	mv	a1,s1
8000a25c:	315010ef          	jal	ra,8000bd70 <fma>
8000a260:	0e812703          	lw	a4,232(sp)
8000a264:	0ec12783          	lw	a5,236(sp)
8000a268:	06a12023          	sw	a0,96(sp)
8000a26c:	06b12223          	sw	a1,100(sp)
8000a270:	000a0613          	mv	a2,s4
8000a274:	000a8693          	mv	a3,s5
8000a278:	00040513          	mv	a0,s0
8000a27c:	00048593          	mv	a1,s1
8000a280:	2f1010ef          	jal	ra,8000bd70 <fma>
8000a284:	0f012703          	lw	a4,240(sp)
8000a288:	0f412783          	lw	a5,244(sp)
8000a28c:	00098693          	mv	a3,s3
8000a290:	06a12423          	sw	a0,104(sp)
8000a294:	06b12623          	sw	a1,108(sp)
8000a298:	00090613          	mv	a2,s2
8000a29c:	00040513          	mv	a0,s0
8000a2a0:	00048593          	mv	a1,s1
8000a2a4:	2cd010ef          	jal	ra,8000bd70 <fma>
8000a2a8:	02412603          	lw	a2,36(sp)
8000a2ac:	0f812703          	lw	a4,248(sp)
8000a2b0:	0fc12783          	lw	a5,252(sp)
8000a2b4:	02862403          	lw	s0,40(a2)
8000a2b8:	02c62483          	lw	s1,44(a2)
8000a2bc:	06a12823          	sw	a0,112(sp)
8000a2c0:	06b12a23          	sw	a1,116(sp)
8000a2c4:	000c0613          	mv	a2,s8
8000a2c8:	000c8693          	mv	a3,s9
8000a2cc:	00040513          	mv	a0,s0
8000a2d0:	00048593          	mv	a1,s1
8000a2d4:	29d010ef          	jal	ra,8000bd70 <fma>
8000a2d8:	10012703          	lw	a4,256(sp)
8000a2dc:	10412783          	lw	a5,260(sp)
8000a2e0:	06a12c23          	sw	a0,120(sp)
8000a2e4:	06b12e23          	sw	a1,124(sp)
8000a2e8:	000d0613          	mv	a2,s10
8000a2ec:	000d8693          	mv	a3,s11
8000a2f0:	00040513          	mv	a0,s0
8000a2f4:	00048593          	mv	a1,s1
8000a2f8:	279010ef          	jal	ra,8000bd70 <fma>
8000a2fc:	10812703          	lw	a4,264(sp)
8000a300:	10c12783          	lw	a5,268(sp)
8000a304:	08a12023          	sw	a0,128(sp)
8000a308:	08b12223          	sw	a1,132(sp)
8000a30c:	000b0613          	mv	a2,s6
8000a310:	000b8693          	mv	a3,s7
8000a314:	00040513          	mv	a0,s0
8000a318:	00048593          	mv	a1,s1
8000a31c:	255010ef          	jal	ra,8000bd70 <fma>
8000a320:	11012703          	lw	a4,272(sp)
8000a324:	11412783          	lw	a5,276(sp)
8000a328:	08a12423          	sw	a0,136(sp)
8000a32c:	08b12623          	sw	a1,140(sp)
8000a330:	000a0613          	mv	a2,s4
8000a334:	000a8693          	mv	a3,s5
8000a338:	00040513          	mv	a0,s0
8000a33c:	00048593          	mv	a1,s1
8000a340:	231010ef          	jal	ra,8000bd70 <fma>
8000a344:	11812703          	lw	a4,280(sp)
8000a348:	11c12783          	lw	a5,284(sp)
8000a34c:	00098693          	mv	a3,s3
8000a350:	08a12823          	sw	a0,144(sp)
8000a354:	08b12a23          	sw	a1,148(sp)
8000a358:	00090613          	mv	a2,s2
8000a35c:	00040513          	mv	a0,s0
8000a360:	00048593          	mv	a1,s1
8000a364:	20d010ef          	jal	ra,8000bd70 <fma>
8000a368:	08b12e23          	sw	a1,156(sp)
8000a36c:	01812583          	lw	a1,24(sp)
8000a370:	08a12c23          	sw	a0,152(sp)
8000a374:	000c0613          	mv	a2,s8
8000a378:	0285a403          	lw	s0,40(a1)
8000a37c:	02c5a483          	lw	s1,44(a1)
8000a380:	12012703          	lw	a4,288(sp)
8000a384:	12412783          	lw	a5,292(sp)
8000a388:	000c8693          	mv	a3,s9
8000a38c:	00040513          	mv	a0,s0
8000a390:	00048593          	mv	a1,s1
8000a394:	1dd010ef          	jal	ra,8000bd70 <fma>
8000a398:	12812703          	lw	a4,296(sp)
8000a39c:	12c12783          	lw	a5,300(sp)
8000a3a0:	0aa12023          	sw	a0,160(sp)
8000a3a4:	0ab12223          	sw	a1,164(sp)
8000a3a8:	000d0613          	mv	a2,s10
8000a3ac:	000d8693          	mv	a3,s11
8000a3b0:	00040513          	mv	a0,s0
8000a3b4:	00048593          	mv	a1,s1
8000a3b8:	1b9010ef          	jal	ra,8000bd70 <fma>
8000a3bc:	13012703          	lw	a4,304(sp)
8000a3c0:	13412783          	lw	a5,308(sp)
8000a3c4:	0aa12423          	sw	a0,168(sp)
8000a3c8:	0ab12623          	sw	a1,172(sp)
8000a3cc:	000b0613          	mv	a2,s6
8000a3d0:	000b8693          	mv	a3,s7
8000a3d4:	00040513          	mv	a0,s0
8000a3d8:	00048593          	mv	a1,s1
8000a3dc:	195010ef          	jal	ra,8000bd70 <fma>
8000a3e0:	13812703          	lw	a4,312(sp)
8000a3e4:	13c12783          	lw	a5,316(sp)
8000a3e8:	0aa12823          	sw	a0,176(sp)
8000a3ec:	0ab12a23          	sw	a1,180(sp)
8000a3f0:	000a0613          	mv	a2,s4
8000a3f4:	000a8693          	mv	a3,s5
8000a3f8:	00040513          	mv	a0,s0
8000a3fc:	00048593          	mv	a1,s1
8000a400:	171010ef          	jal	ra,8000bd70 <fma>
8000a404:	01012803          	lw	a6,16(sp)
8000a408:	14812e03          	lw	t3,328(sp)
8000a40c:	14c12e83          	lw	t4,332(sp)
8000a410:	00098693          	mv	a3,s3
8000a414:	0aa12c23          	sw	a0,184(sp)
8000a418:	000e8793          	mv	a5,t4
8000a41c:	0ab12e23          	sw	a1,188(sp)
8000a420:	000e0713          	mv	a4,t3
8000a424:	00090613          	mv	a2,s2
8000a428:	00040513          	mv	a0,s0
8000a42c:	00048593          	mv	a1,s1
8000a430:	03080413          	addi	s0,a6,48
8000a434:	00812823          	sw	s0,16(sp)
8000a438:	139010ef          	jal	ra,8000bd70 <fma>
8000a43c:	17c12783          	lw	a5,380(sp)
8000a440:	0c012983          	lw	s3,192(sp)
8000a444:	02812683          	lw	a3,40(sp)
8000a448:	02412603          	lw	a2,36(sp)
8000a44c:	00f987b3          	add	a5,s3,a5
8000a450:	00058e93          	mv	t4,a1
8000a454:	01812583          	lw	a1,24(sp)
8000a458:	0cf12023          	sw	a5,192(sp)
8000a45c:	03068793          	addi	a5,a3,48
8000a460:	02f12423          	sw	a5,40(sp)
8000a464:	03060793          	addi	a5,a2,48
8000a468:	02f12223          	sw	a5,36(sp)
8000a46c:	03058793          	addi	a5,a1,48
8000a470:	00f12c23          	sw	a5,24(sp)
8000a474:	16412783          	lw	a5,356(sp)
8000a478:	00050e13          	mv	t3,a0
8000a47c:	14012803          	lw	a6,320(sp)
8000a480:	14412883          	lw	a7,324(sp)
8000a484:	00f47463          	bleu	a5,s0,8000a48c <mm+0x1800>
8000a488:	ba9fe06f          	j	80009030 <mm+0x3a4>
8000a48c:	1ac12783          	lw	a5,428(sp)
8000a490:	18012703          	lw	a4,384(sp)
8000a494:	16412303          	lw	t1,356(sp)
8000a498:	00e78933          	add	s2,a5,a4
8000a49c:	16812783          	lw	a5,360(sp)
8000a4a0:	38f37e63          	bleu	a5,t1,8000a83c <mm+0x1bb0>
8000a4a4:	1b012783          	lw	a5,432(sp)
8000a4a8:	1a012703          	lw	a4,416(sp)
8000a4ac:	00030993          	mv	s3,t1
8000a4b0:	00e78ab3          	add	s5,a5,a4
8000a4b4:	19c12703          	lw	a4,412(sp)
8000a4b8:	00e78a33          	add	s4,a5,a4
8000a4bc:	19812703          	lw	a4,408(sp)
8000a4c0:	00e787b3          	add	a5,a5,a4
8000a4c4:	02f12223          	sw	a5,36(sp)
8000a4c8:	0009a403          	lw	s0,0(s3)
8000a4cc:	0049a483          	lw	s1,4(s3)
8000a4d0:	00092703          	lw	a4,0(s2)
8000a4d4:	00492783          	lw	a5,4(s2)
8000a4d8:	00040513          	mv	a0,s0
8000a4dc:	00070613          	mv	a2,a4
8000a4e0:	00078693          	mv	a3,a5
8000a4e4:	00080713          	mv	a4,a6
8000a4e8:	00088793          	mv	a5,a7
8000a4ec:	00048593          	mv	a1,s1
8000a4f0:	0dc12023          	sw	t3,192(sp)
8000a4f4:	0dd12223          	sw	t4,196(sp)
8000a4f8:	00c12823          	sw	a2,16(sp)
8000a4fc:	00d12a23          	sw	a3,20(sp)
8000a500:	071010ef          	jal	ra,8000bd70 <fma>
8000a504:	00892783          	lw	a5,8(s2)
8000a508:	00c92803          	lw	a6,12(s2)
8000a50c:	03012703          	lw	a4,48(sp)
8000a510:	02a12423          	sw	a0,40(sp)
8000a514:	00080893          	mv	a7,a6
8000a518:	00078813          	mv	a6,a5
8000a51c:	03412783          	lw	a5,52(sp)
8000a520:	00080613          	mv	a2,a6
8000a524:	00088693          	mv	a3,a7
8000a528:	02b12623          	sw	a1,44(sp)
8000a52c:	00040513          	mv	a0,s0
8000a530:	00048593          	mv	a1,s1
8000a534:	01012c23          	sw	a6,24(sp)
8000a538:	01112e23          	sw	a7,28(sp)
8000a53c:	035010ef          	jal	ra,8000bd70 <fma>
8000a540:	01092c03          	lw	s8,16(s2)
8000a544:	01492c83          	lw	s9,20(s2)
8000a548:	03812703          	lw	a4,56(sp)
8000a54c:	03c12783          	lw	a5,60(sp)
8000a550:	02a12823          	sw	a0,48(sp)
8000a554:	02b12a23          	sw	a1,52(sp)
8000a558:	00040513          	mv	a0,s0
8000a55c:	00048593          	mv	a1,s1
8000a560:	000c0613          	mv	a2,s8
8000a564:	000c8693          	mv	a3,s9
8000a568:	009010ef          	jal	ra,8000bd70 <fma>
8000a56c:	01892d03          	lw	s10,24(s2)
8000a570:	01c92d83          	lw	s11,28(s2)
8000a574:	04012703          	lw	a4,64(sp)
8000a578:	04412783          	lw	a5,68(sp)
8000a57c:	02a12c23          	sw	a0,56(sp)
8000a580:	02b12e23          	sw	a1,60(sp)
8000a584:	00040513          	mv	a0,s0
8000a588:	00048593          	mv	a1,s1
8000a58c:	000d0613          	mv	a2,s10
8000a590:	000d8693          	mv	a3,s11
8000a594:	7dc010ef          	jal	ra,8000bd70 <fma>
8000a598:	02092b03          	lw	s6,32(s2)
8000a59c:	02492b83          	lw	s7,36(s2)
8000a5a0:	04812703          	lw	a4,72(sp)
8000a5a4:	04c12783          	lw	a5,76(sp)
8000a5a8:	04a12023          	sw	a0,64(sp)
8000a5ac:	04b12223          	sw	a1,68(sp)
8000a5b0:	00040513          	mv	a0,s0
8000a5b4:	00048593          	mv	a1,s1
8000a5b8:	000b0613          	mv	a2,s6
8000a5bc:	000b8693          	mv	a3,s7
8000a5c0:	7b0010ef          	jal	ra,8000bd70 <fma>
8000a5c4:	000aa403          	lw	s0,0(s5)
8000a5c8:	004aa483          	lw	s1,4(s5)
8000a5cc:	05012703          	lw	a4,80(sp)
8000a5d0:	05412783          	lw	a5,84(sp)
8000a5d4:	01012603          	lw	a2,16(sp)
8000a5d8:	04a12423          	sw	a0,72(sp)
8000a5dc:	04b12623          	sw	a1,76(sp)
8000a5e0:	01412683          	lw	a3,20(sp)
8000a5e4:	00040513          	mv	a0,s0
8000a5e8:	00048593          	mv	a1,s1
8000a5ec:	784010ef          	jal	ra,8000bd70 <fma>
8000a5f0:	05812703          	lw	a4,88(sp)
8000a5f4:	05c12783          	lw	a5,92(sp)
8000a5f8:	01812603          	lw	a2,24(sp)
8000a5fc:	01c12683          	lw	a3,28(sp)
8000a600:	04a12823          	sw	a0,80(sp)
8000a604:	04b12a23          	sw	a1,84(sp)
8000a608:	00040513          	mv	a0,s0
8000a60c:	00048593          	mv	a1,s1
8000a610:	760010ef          	jal	ra,8000bd70 <fma>
8000a614:	06012703          	lw	a4,96(sp)
8000a618:	06412783          	lw	a5,100(sp)
8000a61c:	04a12c23          	sw	a0,88(sp)
8000a620:	04b12e23          	sw	a1,92(sp)
8000a624:	000c0613          	mv	a2,s8
8000a628:	000c8693          	mv	a3,s9
8000a62c:	00040513          	mv	a0,s0
8000a630:	00048593          	mv	a1,s1
8000a634:	73c010ef          	jal	ra,8000bd70 <fma>
8000a638:	06812703          	lw	a4,104(sp)
8000a63c:	06c12783          	lw	a5,108(sp)
8000a640:	06a12023          	sw	a0,96(sp)
8000a644:	06b12223          	sw	a1,100(sp)
8000a648:	000d0613          	mv	a2,s10
8000a64c:	000d8693          	mv	a3,s11
8000a650:	00040513          	mv	a0,s0
8000a654:	00048593          	mv	a1,s1
8000a658:	718010ef          	jal	ra,8000bd70 <fma>
8000a65c:	07012703          	lw	a4,112(sp)
8000a660:	07412783          	lw	a5,116(sp)
8000a664:	06a12423          	sw	a0,104(sp)
8000a668:	06b12623          	sw	a1,108(sp)
8000a66c:	000b0613          	mv	a2,s6
8000a670:	000b8693          	mv	a3,s7
8000a674:	00040513          	mv	a0,s0
8000a678:	00048593          	mv	a1,s1
8000a67c:	6f4010ef          	jal	ra,8000bd70 <fma>
8000a680:	000a2403          	lw	s0,0(s4)
8000a684:	004a2483          	lw	s1,4(s4)
8000a688:	07812703          	lw	a4,120(sp)
8000a68c:	07c12783          	lw	a5,124(sp)
8000a690:	01012603          	lw	a2,16(sp)
8000a694:	01412683          	lw	a3,20(sp)
8000a698:	06a12823          	sw	a0,112(sp)
8000a69c:	06b12a23          	sw	a1,116(sp)
8000a6a0:	00040513          	mv	a0,s0
8000a6a4:	00048593          	mv	a1,s1
8000a6a8:	6c8010ef          	jal	ra,8000bd70 <fma>
8000a6ac:	08012703          	lw	a4,128(sp)
8000a6b0:	08412783          	lw	a5,132(sp)
8000a6b4:	01812603          	lw	a2,24(sp)
8000a6b8:	01c12683          	lw	a3,28(sp)
8000a6bc:	06a12c23          	sw	a0,120(sp)
8000a6c0:	06b12e23          	sw	a1,124(sp)
8000a6c4:	00040513          	mv	a0,s0
8000a6c8:	00048593          	mv	a1,s1
8000a6cc:	6a4010ef          	jal	ra,8000bd70 <fma>
8000a6d0:	08812703          	lw	a4,136(sp)
8000a6d4:	08c12783          	lw	a5,140(sp)
8000a6d8:	08a12023          	sw	a0,128(sp)
8000a6dc:	08b12223          	sw	a1,132(sp)
8000a6e0:	000c0613          	mv	a2,s8
8000a6e4:	000c8693          	mv	a3,s9
8000a6e8:	00040513          	mv	a0,s0
8000a6ec:	00048593          	mv	a1,s1
8000a6f0:	680010ef          	jal	ra,8000bd70 <fma>
8000a6f4:	09012703          	lw	a4,144(sp)
8000a6f8:	09412783          	lw	a5,148(sp)
8000a6fc:	08a12423          	sw	a0,136(sp)
8000a700:	08b12623          	sw	a1,140(sp)
8000a704:	000d0613          	mv	a2,s10
8000a708:	000d8693          	mv	a3,s11
8000a70c:	00040513          	mv	a0,s0
8000a710:	00048593          	mv	a1,s1
8000a714:	65c010ef          	jal	ra,8000bd70 <fma>
8000a718:	09812703          	lw	a4,152(sp)
8000a71c:	09c12783          	lw	a5,156(sp)
8000a720:	08a12823          	sw	a0,144(sp)
8000a724:	08b12a23          	sw	a1,148(sp)
8000a728:	000b0613          	mv	a2,s6
8000a72c:	000b8693          	mv	a3,s7
8000a730:	00040513          	mv	a0,s0
8000a734:	00048593          	mv	a1,s1
8000a738:	638010ef          	jal	ra,8000bd70 <fma>
8000a73c:	02412783          	lw	a5,36(sp)
8000a740:	0a012703          	lw	a4,160(sp)
8000a744:	01012603          	lw	a2,16(sp)
8000a748:	0007a403          	lw	s0,0(a5)
8000a74c:	0047a483          	lw	s1,4(a5)
8000a750:	01412683          	lw	a3,20(sp)
8000a754:	0a412783          	lw	a5,164(sp)
8000a758:	08a12c23          	sw	a0,152(sp)
8000a75c:	08b12e23          	sw	a1,156(sp)
8000a760:	00040513          	mv	a0,s0
8000a764:	00048593          	mv	a1,s1
8000a768:	608010ef          	jal	ra,8000bd70 <fma>
8000a76c:	0a812703          	lw	a4,168(sp)
8000a770:	0ac12783          	lw	a5,172(sp)
8000a774:	01812603          	lw	a2,24(sp)
8000a778:	01c12683          	lw	a3,28(sp)
8000a77c:	0aa12023          	sw	a0,160(sp)
8000a780:	0ab12223          	sw	a1,164(sp)
8000a784:	00040513          	mv	a0,s0
8000a788:	00048593          	mv	a1,s1
8000a78c:	5e4010ef          	jal	ra,8000bd70 <fma>
8000a790:	0b012703          	lw	a4,176(sp)
8000a794:	0b412783          	lw	a5,180(sp)
8000a798:	0aa12423          	sw	a0,168(sp)
8000a79c:	0ab12623          	sw	a1,172(sp)
8000a7a0:	000c0613          	mv	a2,s8
8000a7a4:	000c8693          	mv	a3,s9
8000a7a8:	00040513          	mv	a0,s0
8000a7ac:	00048593          	mv	a1,s1
8000a7b0:	5c0010ef          	jal	ra,8000bd70 <fma>
8000a7b4:	0b812703          	lw	a4,184(sp)
8000a7b8:	0bc12783          	lw	a5,188(sp)
8000a7bc:	0aa12823          	sw	a0,176(sp)
8000a7c0:	0ab12a23          	sw	a1,180(sp)
8000a7c4:	000d0613          	mv	a2,s10
8000a7c8:	000d8693          	mv	a3,s11
8000a7cc:	00040513          	mv	a0,s0
8000a7d0:	00048593          	mv	a1,s1
8000a7d4:	59c010ef          	jal	ra,8000bd70 <fma>
8000a7d8:	0c012e03          	lw	t3,192(sp)
8000a7dc:	0c412e83          	lw	t4,196(sp)
8000a7e0:	0aa12c23          	sw	a0,184(sp)
8000a7e4:	000e0713          	mv	a4,t3
8000a7e8:	000e8793          	mv	a5,t4
8000a7ec:	0ab12e23          	sw	a1,188(sp)
8000a7f0:	000b0613          	mv	a2,s6
8000a7f4:	000b8693          	mv	a3,s7
8000a7f8:	00040513          	mv	a0,s0
8000a7fc:	00048593          	mv	a1,s1
8000a800:	570010ef          	jal	ra,8000bd70 <fma>
8000a804:	02412783          	lw	a5,36(sp)
8000a808:	16012703          	lw	a4,352(sp)
8000a80c:	00898993          	addi	s3,s3,8
8000a810:	00878793          	addi	a5,a5,8
8000a814:	02f12223          	sw	a5,36(sp)
8000a818:	16812783          	lw	a5,360(sp)
8000a81c:	00050e13          	mv	t3,a0
8000a820:	00058e93          	mv	t4,a1
8000a824:	00e90933          	add	s2,s2,a4
8000a828:	008a8a93          	addi	s5,s5,8
8000a82c:	008a0a13          	addi	s4,s4,8
8000a830:	02812803          	lw	a6,40(sp)
8000a834:	02c12883          	lw	a7,44(sp)
8000a838:	c8f9e8e3          	bltu	s3,a5,8000a4c8 <mm+0x183c>
8000a83c:	19012783          	lw	a5,400(sp)
8000a840:	03012683          	lw	a3,48(sp)
8000a844:	03412703          	lw	a4,52(sp)
8000a848:	05012603          	lw	a2,80(sp)
8000a84c:	00d7a423          	sw	a3,8(a5)
8000a850:	00e7a623          	sw	a4,12(a5)
8000a854:	03812683          	lw	a3,56(sp)
8000a858:	03c12703          	lw	a4,60(sp)
8000a85c:	0107a023          	sw	a6,0(a5)
8000a860:	00d7a823          	sw	a3,16(a5)
8000a864:	00e7aa23          	sw	a4,20(a5)
8000a868:	04012683          	lw	a3,64(sp)
8000a86c:	04412703          	lw	a4,68(sp)
8000a870:	0117a223          	sw	a7,4(a5)
8000a874:	00d7ac23          	sw	a3,24(a5)
8000a878:	00e7ae23          	sw	a4,28(a5)
8000a87c:	04812683          	lw	a3,72(sp)
8000a880:	04c12703          	lw	a4,76(sp)
8000a884:	02878793          	addi	a5,a5,40
8000a888:	fed7ac23          	sw	a3,-8(a5)
8000a88c:	fee7ae23          	sw	a4,-4(a5)
8000a890:	05412683          	lw	a3,84(sp)
8000a894:	18c12703          	lw	a4,396(sp)
8000a898:	00c72023          	sw	a2,0(a4)
8000a89c:	00d72223          	sw	a3,4(a4)
8000a8a0:	05812603          	lw	a2,88(sp)
8000a8a4:	05c12683          	lw	a3,92(sp)
8000a8a8:	00c72423          	sw	a2,8(a4)
8000a8ac:	00d72623          	sw	a3,12(a4)
8000a8b0:	06012603          	lw	a2,96(sp)
8000a8b4:	06412683          	lw	a3,100(sp)
8000a8b8:	00c72823          	sw	a2,16(a4)
8000a8bc:	00d72a23          	sw	a3,20(a4)
8000a8c0:	06812603          	lw	a2,104(sp)
8000a8c4:	06c12683          	lw	a3,108(sp)
8000a8c8:	07812583          	lw	a1,120(sp)
8000a8cc:	00c72c23          	sw	a2,24(a4)
8000a8d0:	00d72e23          	sw	a3,28(a4)
8000a8d4:	07012603          	lw	a2,112(sp)
8000a8d8:	07412683          	lw	a3,116(sp)
8000a8dc:	0a012503          	lw	a0,160(sp)
8000a8e0:	02c72023          	sw	a2,32(a4)
8000a8e4:	02d72223          	sw	a3,36(a4)
8000a8e8:	07c12603          	lw	a2,124(sp)
8000a8ec:	18812683          	lw	a3,392(sp)
8000a8f0:	00b6a023          	sw	a1,0(a3)
8000a8f4:	00c6a223          	sw	a2,4(a3)
8000a8f8:	08012583          	lw	a1,128(sp)
8000a8fc:	08412603          	lw	a2,132(sp)
8000a900:	00b6a423          	sw	a1,8(a3)
8000a904:	00c6a623          	sw	a2,12(a3)
8000a908:	08812583          	lw	a1,136(sp)
8000a90c:	08c12603          	lw	a2,140(sp)
8000a910:	00b6a823          	sw	a1,16(a3)
8000a914:	00c6aa23          	sw	a2,20(a3)
8000a918:	09012583          	lw	a1,144(sp)
8000a91c:	09412603          	lw	a2,148(sp)
8000a920:	00b6ac23          	sw	a1,24(a3)
8000a924:	00c6ae23          	sw	a2,28(a3)
8000a928:	09812583          	lw	a1,152(sp)
8000a92c:	09c12603          	lw	a2,156(sp)
8000a930:	02b6a023          	sw	a1,32(a3)
8000a934:	02c6a223          	sw	a2,36(a3)
8000a938:	0a412583          	lw	a1,164(sp)
8000a93c:	18412603          	lw	a2,388(sp)
8000a940:	00a62023          	sw	a0,0(a2)
8000a944:	00b62223          	sw	a1,4(a2)
8000a948:	0ac12583          	lw	a1,172(sp)
8000a94c:	0a812503          	lw	a0,168(sp)
8000a950:	18f12823          	sw	a5,400(sp)
8000a954:	00b62623          	sw	a1,12(a2)
8000a958:	0b412583          	lw	a1,180(sp)
8000a95c:	02870793          	addi	a5,a4,40
8000a960:	18f12623          	sw	a5,396(sp)
8000a964:	02868793          	addi	a5,a3,40
8000a968:	00b62a23          	sw	a1,20(a2)
8000a96c:	18f12423          	sw	a5,392(sp)
8000a970:	0bc12583          	lw	a1,188(sp)
8000a974:	02860793          	addi	a5,a2,40
8000a978:	00a62423          	sw	a0,8(a2)
8000a97c:	18f12223          	sw	a5,388(sp)
8000a980:	0b012503          	lw	a0,176(sp)
8000a984:	18012783          	lw	a5,384(sp)
8000a988:	00b62e23          	sw	a1,28(a2)
8000a98c:	19412583          	lw	a1,404(sp)
8000a990:	02878793          	addi	a5,a5,40
8000a994:	00a62823          	sw	a0,16(a2)
8000a998:	0b812503          	lw	a0,184(sp)
8000a99c:	18f12023          	sw	a5,384(sp)
8000a9a0:	1a812783          	lw	a5,424(sp)
8000a9a4:	00558593          	addi	a1,a1,5
8000a9a8:	00a62c23          	sw	a0,24(a2)
8000a9ac:	03c62023          	sw	t3,32(a2)
8000a9b0:	03d62223          	sw	t4,36(a2)
8000a9b4:	18b12a23          	sw	a1,404(sp)
8000a9b8:	00f5f463          	bleu	a5,a1,8000a9c0 <mm+0x1d34>
8000a9bc:	d00fe06f          	j	80008ebc <mm+0x230>
8000a9c0:	1bc12783          	lw	a5,444(sp)
8000a9c4:	1b412903          	lw	s2,436(sp)
8000a9c8:	1a412483          	lw	s1,420(sp)
8000a9cc:	1b812303          	lw	t1,440(sp)
8000a9d0:	00f12023          	sw	a5,0(sp)
8000a9d4:	1c812703          	lw	a4,456(sp)
8000a9d8:	1d412783          	lw	a5,468(sp)
8000a9dc:	1cc12803          	lw	a6,460(sp)
8000a9e0:	1c412603          	lw	a2,452(sp)
8000a9e4:	1d012583          	lw	a1,464(sp)
8000a9e8:	00430413          	addi	s0,t1,4
8000a9ec:	00090893          	mv	a7,s2
8000a9f0:	00048693          	mv	a3,s1
8000a9f4:	00400513          	li	a0,4
8000a9f8:	1a812c23          	sw	s0,440(sp)
8000a9fc:	e4cf60ef          	jal	ra,80001048 <mm_naive>
8000aa00:	1dc12783          	lw	a5,476(sp)
8000aa04:	00f48733          	add	a4,s1,a5
8000aa08:	1ae12223          	sw	a4,420(sp)
8000aa0c:	1d812703          	lw	a4,472(sp)
8000aa10:	00e90733          	add	a4,s2,a4
8000aa14:	1ae12a23          	sw	a4,436(sp)
8000aa18:	1a012703          	lw	a4,416(sp)
8000aa1c:	00f70733          	add	a4,a4,a5
8000aa20:	1ae12023          	sw	a4,416(sp)
8000aa24:	19c12703          	lw	a4,412(sp)
8000aa28:	00f70733          	add	a4,a4,a5
8000aa2c:	18e12e23          	sw	a4,412(sp)
8000aa30:	19812703          	lw	a4,408(sp)
8000aa34:	00f707b3          	add	a5,a4,a5
8000aa38:	18f12c23          	sw	a5,408(sp)
8000aa3c:	1c012783          	lw	a5,448(sp)
8000aa40:	00f47463          	bleu	a5,s0,8000aa48 <mm+0x1dbc>
8000aa44:	c10fe06f          	j	80008e54 <mm+0x1c8>
8000aa48:	1c012683          	lw	a3,448(sp)
8000aa4c:	1f812783          	lw	a5,504(sp)
8000aa50:	1fc12303          	lw	t1,508(sp)
8000aa54:	20012503          	lw	a0,512(sp)
8000aa58:	02f688b3          	mul	a7,a3,a5
8000aa5c:	1bc12783          	lw	a5,444(sp)
8000aa60:	40d50533          	sub	a0,a0,a3
8000aa64:	24812403          	lw	s0,584(sp)
8000aa68:	24f12823          	sw	a5,592(sp)
8000aa6c:	1cc12803          	lw	a6,460(sp)
8000aa70:	1e012783          	lw	a5,480(sp)
8000aa74:	1c812703          	lw	a4,456(sp)
8000aa78:	1c412603          	lw	a2,452(sp)
8000aa7c:	20412583          	lw	a1,516(sp)
8000aa80:	026686b3          	mul	a3,a3,t1
8000aa84:	20c12303          	lw	t1,524(sp)
8000aa88:	24c12083          	lw	ra,588(sp)
8000aa8c:	24412483          	lw	s1,580(sp)
8000aa90:	011308b3          	add	a7,t1,a7
8000aa94:	20812303          	lw	t1,520(sp)
8000aa98:	24012903          	lw	s2,576(sp)
8000aa9c:	23c12983          	lw	s3,572(sp)
8000aaa0:	23812a03          	lw	s4,568(sp)
8000aaa4:	23412a83          	lw	s5,564(sp)
8000aaa8:	23012b03          	lw	s6,560(sp)
8000aaac:	22c12b83          	lw	s7,556(sp)
8000aab0:	22812c03          	lw	s8,552(sp)
8000aab4:	22412c83          	lw	s9,548(sp)
8000aab8:	22012d03          	lw	s10,544(sp)
8000aabc:	21c12d83          	lw	s11,540(sp)
8000aac0:	00d306b3          	add	a3,t1,a3
8000aac4:	25010113          	addi	sp,sp,592
8000aac8:	d80f606f          	j	80001048 <mm_naive>
8000aacc:	1bc12303          	lw	t1,444(sp)
8000aad0:	24812403          	lw	s0,584(sp)
8000aad4:	24c12083          	lw	ra,588(sp)
8000aad8:	24412483          	lw	s1,580(sp)
8000aadc:	24012903          	lw	s2,576(sp)
8000aae0:	23c12983          	lw	s3,572(sp)
8000aae4:	23812a03          	lw	s4,568(sp)
8000aae8:	23412a83          	lw	s5,564(sp)
8000aaec:	23012b03          	lw	s6,560(sp)
8000aaf0:	22c12b83          	lw	s7,556(sp)
8000aaf4:	22812c03          	lw	s8,552(sp)
8000aaf8:	22412c83          	lw	s9,548(sp)
8000aafc:	22012d03          	lw	s10,544(sp)
8000ab00:	21c12d83          	lw	s11,540(sp)
8000ab04:	24612823          	sw	t1,592(sp)
8000ab08:	25010113          	addi	sp,sp,592
8000ab0c:	8a1f606f          	j	800013ac <mm_cb>

8000ab10 <barrier>:
8000ab10:	0ff0000f          	fence
8000ab14:	00022683          	lw	a3,0(tp) # 0 <_tdata_begin>
8000ab18:	bd418713          	addi	a4,gp,-1068 # 8000e7b4 <count.3493>
8000ab1c:	00100613          	li	a2,1
8000ab20:	0016b693          	seqz	a3,a3
8000ab24:	00d22023          	sw	a3,0(tp) # 0 <_tdata_begin>
8000ab28:	0f50000f          	fence	iorw,ow
8000ab2c:	04c726af          	amoadd.w.aq	a3,a2,(a4)
8000ab30:	fff50513          	addi	a0,a0,-1
8000ab34:	00a68e63          	beq	a3,a0,8000ab50 <barrier+0x40>
8000ab38:	00022683          	lw	a3,0(tp) # 0 <_tdata_begin>
8000ab3c:	bd018713          	addi	a4,gp,-1072 # 8000e7b0 <sense.3492>
8000ab40:	00072783          	lw	a5,0(a4)
8000ab44:	fed79ee3          	bne	a5,a3,8000ab40 <barrier+0x30>
8000ab48:	0ff0000f          	fence
8000ab4c:	00008067          	ret
8000ab50:	00022783          	lw	a5,0(tp) # 0 <_tdata_begin>
8000ab54:	bc01aa23          	sw	zero,-1068(gp) # 8000e7b4 <count.3493>
8000ab58:	bcf1a823          	sw	a5,-1072(gp) # 8000e7b0 <sense.3492>
8000ab5c:	fedff06f          	j	8000ab48 <barrier+0x38>

8000ab60 <thread_entry>:
8000ab60:	f8010113          	addi	sp,sp,-128
8000ab64:	fffff7b7          	lui	a5,0xfffff
8000ab68:	06812c23          	sw	s0,120(sp)
8000ab6c:	06912a23          	sw	s1,116(sp)
8000ab70:	08010413          	addi	s0,sp,128
8000ab74:	07212823          	sw	s2,112(sp)
8000ab78:	07512223          	sw	s5,100(sp)
8000ab7c:	07612023          	sw	s6,96(sp)
8000ab80:	05712e23          	sw	s7,92(sp)
8000ab84:	05812c23          	sw	s8,88(sp)
8000ab88:	05a12823          	sw	s10,80(sp)
8000ab8c:	df078713          	addi	a4,a5,-528 # ffffedf0 <__global_pointer$+0x7fff0210>
8000ab90:	06112e23          	sw	ra,124(sp)
8000ab94:	07312623          	sw	s3,108(sp)
8000ab98:	07412423          	sw	s4,104(sp)
8000ab9c:	05912a23          	sw	s9,84(sp)
8000aba0:	05b12623          	sw	s11,76(sp)
8000aba4:	d3078793          	addi	a5,a5,-720
8000aba8:	00e10133          	add	sp,sp,a4
8000abac:	01010b13          	addi	s6,sp,16
8000abb0:	00001ab7          	lui	s5,0x1
8000abb4:	00f10133          	add	sp,sp,a5
8000abb8:	01010713          	addi	a4,sp,16
8000abbc:	200a8a93          	addi	s5,s5,512 # 1200 <_tbss_end+0x117c>
8000abc0:	00f10133          	add	sp,sp,a5
8000abc4:	deadcc37          	lui	s8,0xdeadc
8000abc8:	fae42623          	sw	a4,-84(s0)
8000abcc:	faa42023          	sw	a0,-96(s0)
8000abd0:	f8b42e23          	sw	a1,-100(s0)
8000abd4:	01010b93          	addi	s7,sp,16
8000abd8:	fb642a23          	sw	s6,-76(s0)
8000abdc:	015b0ab3          	add	s5,s6,s5
8000abe0:	000b0d13          	mv	s10,s6
8000abe4:	eefc0c13          	addi	s8,s8,-273 # deadbeef <__global_pointer$+0x5eacd30f>
8000abe8:	00000493          	li	s1,0
8000abec:	40000937          	lui	s2,0x40000
8000abf0:	0c0d0a13          	addi	s4,s10,192
8000abf4:	01f49793          	slli	a5,s1,0x1f
8000abf8:	001c5713          	srli	a4,s8,0x1
8000abfc:	00e7e733          	or	a4,a5,a4
8000ac00:	018747b3          	xor	a5,a4,s8
8000ac04:	01e79793          	slli	a5,a5,0x1e
8000ac08:	00f977b3          	and	a5,s2,a5
8000ac0c:	0014d493          	srli	s1,s1,0x1
8000ac10:	0097e4b3          	or	s1,a5,s1
8000ac14:	00070513          	mv	a0,a4
8000ac18:	00048593          	mv	a1,s1
8000ac1c:	00070c13          	mv	s8,a4
8000ac20:	4fc030ef          	jal	ra,8000e11c <__floatundidf>
8000ac24:	01f49793          	slli	a5,s1,0x1f
8000ac28:	001c5713          	srli	a4,s8,0x1
8000ac2c:	00e7e733          	or	a4,a5,a4
8000ac30:	018747b3          	xor	a5,a4,s8
8000ac34:	01e79793          	slli	a5,a5,0x1e
8000ac38:	00f977b3          	and	a5,s2,a5
8000ac3c:	0014d493          	srli	s1,s1,0x1
8000ac40:	0097e4b3          	or	s1,a5,s1
8000ac44:	00ad2023          	sw	a0,0(s10)
8000ac48:	00bd2223          	sw	a1,4(s10)
8000ac4c:	00070513          	mv	a0,a4
8000ac50:	00048593          	mv	a1,s1
8000ac54:	00070c13          	mv	s8,a4
8000ac58:	4c4030ef          	jal	ra,8000e11c <__floatundidf>
8000ac5c:	01f49793          	slli	a5,s1,0x1f
8000ac60:	001c5713          	srli	a4,s8,0x1
8000ac64:	00e7e733          	or	a4,a5,a4
8000ac68:	018747b3          	xor	a5,a4,s8
8000ac6c:	01e79793          	slli	a5,a5,0x1e
8000ac70:	00f977b3          	and	a5,s2,a5
8000ac74:	0014d493          	srli	s1,s1,0x1
8000ac78:	0097e4b3          	or	s1,a5,s1
8000ac7c:	00ad2423          	sw	a0,8(s10)
8000ac80:	00bd2623          	sw	a1,12(s10)
8000ac84:	00070513          	mv	a0,a4
8000ac88:	00048593          	mv	a1,s1
8000ac8c:	00070c13          	mv	s8,a4
8000ac90:	48c030ef          	jal	ra,8000e11c <__floatundidf>
8000ac94:	01f49793          	slli	a5,s1,0x1f
8000ac98:	001c5713          	srli	a4,s8,0x1
8000ac9c:	00e7e733          	or	a4,a5,a4
8000aca0:	018747b3          	xor	a5,a4,s8
8000aca4:	01e79793          	slli	a5,a5,0x1e
8000aca8:	00f977b3          	and	a5,s2,a5
8000acac:	0014d493          	srli	s1,s1,0x1
8000acb0:	0097e4b3          	or	s1,a5,s1
8000acb4:	00ad2823          	sw	a0,16(s10)
8000acb8:	00bd2a23          	sw	a1,20(s10)
8000acbc:	00070513          	mv	a0,a4
8000acc0:	00048593          	mv	a1,s1
8000acc4:	00070c13          	mv	s8,a4
8000acc8:	454030ef          	jal	ra,8000e11c <__floatundidf>
8000accc:	01f49793          	slli	a5,s1,0x1f
8000acd0:	001c5713          	srli	a4,s8,0x1
8000acd4:	00e7e733          	or	a4,a5,a4
8000acd8:	018747b3          	xor	a5,a4,s8
8000acdc:	01e79793          	slli	a5,a5,0x1e
8000ace0:	00f977b3          	and	a5,s2,a5
8000ace4:	0014d493          	srli	s1,s1,0x1
8000ace8:	008d0993          	addi	s3,s10,8
8000acec:	0097e4b3          	or	s1,a5,s1
8000acf0:	00a9a823          	sw	a0,16(s3)
8000acf4:	00b9aa23          	sw	a1,20(s3)
8000acf8:	00070513          	mv	a0,a4
8000acfc:	00048593          	mv	a1,s1
8000ad00:	00070c13          	mv	s8,a4
8000ad04:	418030ef          	jal	ra,8000e11c <__floatundidf>
8000ad08:	01f49793          	slli	a5,s1,0x1f
8000ad0c:	001c5713          	srli	a4,s8,0x1
8000ad10:	00e7e733          	or	a4,a5,a4
8000ad14:	018747b3          	xor	a5,a4,s8
8000ad18:	01e79793          	slli	a5,a5,0x1e
8000ad1c:	00f977b3          	and	a5,s2,a5
8000ad20:	0014d493          	srli	s1,s1,0x1
8000ad24:	0097e4b3          	or	s1,a5,s1
8000ad28:	00a9ac23          	sw	a0,24(s3)
8000ad2c:	00b9ae23          	sw	a1,28(s3)
8000ad30:	00070513          	mv	a0,a4
8000ad34:	00048593          	mv	a1,s1
8000ad38:	00070c13          	mv	s8,a4
8000ad3c:	3e0030ef          	jal	ra,8000e11c <__floatundidf>
8000ad40:	02a9a023          	sw	a0,32(s3)
8000ad44:	02b9a223          	sw	a1,36(s3)
8000ad48:	02898d13          	addi	s10,s3,40
8000ad4c:	eb4d14e3          	bne	s10,s4,8000abf4 <thread_entry+0x94>
8000ad50:	eb5d10e3          	bne	s10,s5,8000abf0 <thread_entry+0x90>
8000ad54:	fac42a83          	lw	s5,-84(s0)
8000ad58:	00001a37          	lui	s4,0x1
8000ad5c:	2c0a0a13          	addi	s4,s4,704 # 12c0 <_tbss_end+0x123c>
8000ad60:	014a8a33          	add	s4,s5,s4
8000ad64:	40000937          	lui	s2,0x40000
8000ad68:	0c8a8993          	addi	s3,s5,200
8000ad6c:	01f49793          	slli	a5,s1,0x1f
8000ad70:	001c5713          	srli	a4,s8,0x1
8000ad74:	00e7e733          	or	a4,a5,a4
8000ad78:	018747b3          	xor	a5,a4,s8
8000ad7c:	01e79793          	slli	a5,a5,0x1e
8000ad80:	00f977b3          	and	a5,s2,a5
8000ad84:	0014d493          	srli	s1,s1,0x1
8000ad88:	0097e4b3          	or	s1,a5,s1
8000ad8c:	00070513          	mv	a0,a4
8000ad90:	00048593          	mv	a1,s1
8000ad94:	00070c13          	mv	s8,a4
8000ad98:	384030ef          	jal	ra,8000e11c <__floatundidf>
8000ad9c:	01f49793          	slli	a5,s1,0x1f
8000ada0:	001c5713          	srli	a4,s8,0x1
8000ada4:	00e7e733          	or	a4,a5,a4
8000ada8:	018747b3          	xor	a5,a4,s8
8000adac:	01e79793          	slli	a5,a5,0x1e
8000adb0:	00f977b3          	and	a5,s2,a5
8000adb4:	0014d493          	srli	s1,s1,0x1
8000adb8:	0097e4b3          	or	s1,a5,s1
8000adbc:	00aaa023          	sw	a0,0(s5)
8000adc0:	00baa223          	sw	a1,4(s5)
8000adc4:	00070513          	mv	a0,a4
8000adc8:	00048593          	mv	a1,s1
8000adcc:	00070c13          	mv	s8,a4
8000add0:	34c030ef          	jal	ra,8000e11c <__floatundidf>
8000add4:	01f49793          	slli	a5,s1,0x1f
8000add8:	001c5713          	srli	a4,s8,0x1
8000addc:	00e7e733          	or	a4,a5,a4
8000ade0:	018747b3          	xor	a5,a4,s8
8000ade4:	01e79793          	slli	a5,a5,0x1e
8000ade8:	00f977b3          	and	a5,s2,a5
8000adec:	0014d493          	srli	s1,s1,0x1
8000adf0:	0097e4b3          	or	s1,a5,s1
8000adf4:	00aaa423          	sw	a0,8(s5)
8000adf8:	00baa623          	sw	a1,12(s5)
8000adfc:	00070513          	mv	a0,a4
8000ae00:	00048593          	mv	a1,s1
8000ae04:	00070c13          	mv	s8,a4
8000ae08:	314030ef          	jal	ra,8000e11c <__floatundidf>
8000ae0c:	01f49793          	slli	a5,s1,0x1f
8000ae10:	001c5713          	srli	a4,s8,0x1
8000ae14:	00e7e733          	or	a4,a5,a4
8000ae18:	018747b3          	xor	a5,a4,s8
8000ae1c:	01e79793          	slli	a5,a5,0x1e
8000ae20:	00f977b3          	and	a5,s2,a5
8000ae24:	0014d493          	srli	s1,s1,0x1
8000ae28:	0097e4b3          	or	s1,a5,s1
8000ae2c:	00aaa823          	sw	a0,16(s5)
8000ae30:	00baaa23          	sw	a1,20(s5)
8000ae34:	00070513          	mv	a0,a4
8000ae38:	00048593          	mv	a1,s1
8000ae3c:	00070c13          	mv	s8,a4
8000ae40:	2dc030ef          	jal	ra,8000e11c <__floatundidf>
8000ae44:	01f49793          	slli	a5,s1,0x1f
8000ae48:	001c5713          	srli	a4,s8,0x1
8000ae4c:	00e7e733          	or	a4,a5,a4
8000ae50:	018747b3          	xor	a5,a4,s8
8000ae54:	01e79793          	slli	a5,a5,0x1e
8000ae58:	00f977b3          	and	a5,s2,a5
8000ae5c:	0014d493          	srli	s1,s1,0x1
8000ae60:	008a8d13          	addi	s10,s5,8
8000ae64:	0097e4b3          	or	s1,a5,s1
8000ae68:	00ad2823          	sw	a0,16(s10)
8000ae6c:	00bd2a23          	sw	a1,20(s10)
8000ae70:	00070513          	mv	a0,a4
8000ae74:	00048593          	mv	a1,s1
8000ae78:	00070c13          	mv	s8,a4
8000ae7c:	2a0030ef          	jal	ra,8000e11c <__floatundidf>
8000ae80:	00ad2c23          	sw	a0,24(s10)
8000ae84:	00bd2e23          	sw	a1,28(s10)
8000ae88:	020d0a93          	addi	s5,s10,32
8000ae8c:	ef5990e3          	bne	s3,s5,8000ad6c <thread_entry+0x20c>
8000ae90:	ed3a1ce3          	bne	s4,s3,8000ad68 <thread_entry+0x208>
8000ae94:	00001637          	lui	a2,0x1
8000ae98:	2c060613          	addi	a2,a2,704 # 12c0 <_tbss_end+0x123c>
8000ae9c:	00000593          	li	a1,0
8000aea0:	000b8513          	mv	a0,s7
8000aea4:	451000ef          	jal	ra,8000baf4 <memset>
8000aea8:	00800493          	li	s1,8
8000aeac:	01900a13          	li	s4,25
8000aeb0:	b0202973          	csrr	s2,minstret
8000aeb4:	b00029f3          	csrr	s3,mcycle
8000aeb8:	fac42783          	lw	a5,-84(s0)
8000aebc:	01900813          	li	a6,25
8000aec0:	01412023          	sw	s4,0(sp)
8000aec4:	000b8893          	mv	a7,s7
8000aec8:	01800713          	li	a4,24
8000aecc:	000b0693          	mv	a3,s6
8000aed0:	01800613          	li	a2,24
8000aed4:	01900593          	li	a1,25
8000aed8:	01800513          	li	a0,24
8000aedc:	db1fd0ef          	jal	ra,80008c8c <mm>
8000aee0:	b0202af3          	csrr	s5,minstret
8000aee4:	b00027f3          	csrr	a5,mcycle
8000aee8:	fff48493          	addi	s1,s1,-1
8000aeec:	fc0492e3          	bnez	s1,8000aeb0 <thread_entry+0x350>
8000aef0:	413789b3          	sub	s3,a5,s3
8000aef4:	0ff0000f          	fence
8000aef8:	fa042483          	lw	s1,-96(s0)
8000aefc:	01800793          	li	a5,24
8000af00:	01800893          	li	a7,24
8000af04:	01900813          	li	a6,25
8000af08:	00600713          	li	a4,6
8000af0c:	00500693          	li	a3,5
8000af10:	00400613          	li	a2,4
8000af14:	00048593          	mv	a1,s1
8000af18:	00003517          	auipc	a0,0x3
8000af1c:	4d850513          	addi	a0,a0,1240 # 8000e3f0 <main+0x38>
8000af20:	2b9000ef          	jal	ra,8000b9d8 <printf>
8000af24:	412a8633          	sub	a2,s5,s2
8000af28:	00048593          	mv	a1,s1
8000af2c:	00003517          	auipc	a0,0x3
8000af30:	4f450513          	addi	a0,a0,1268 # 8000e420 <main+0x68>
8000af34:	2a5000ef          	jal	ra,8000b9d8 <printf>
8000af38:	00098613          	mv	a2,s3
8000af3c:	00048593          	mv	a1,s1
8000af40:	00003517          	auipc	a0,0x3
8000af44:	4f850513          	addi	a0,a0,1272 # 8000e438 <main+0x80>
8000af48:	291000ef          	jal	ra,8000b9d8 <printf>
8000af4c:	00007637          	lui	a2,0x7
8000af50:	08060613          	addi	a2,a2,128 # 7080 <_tbss_end+0x6ffc>
8000af54:	00048593          	mv	a1,s1
8000af58:	00003517          	auipc	a0,0x3
8000af5c:	4f050513          	addi	a0,a0,1264 # 8000e448 <main+0x90>
8000af60:	279000ef          	jal	ra,8000b9d8 <printf>
8000af64:	01b77637          	lui	a2,0x1b77
8000af68:	40060613          	addi	a2,a2,1024 # 1b77400 <_tbss_end+0x1b7737c>
8000af6c:	03365633          	divu	a2,a2,s3
8000af70:	00048593          	mv	a1,s1
8000af74:	00003517          	auipc	a0,0x3
8000af78:	4e450513          	addi	a0,a0,1252 # 8000e458 <main+0xa0>
8000af7c:	fb742423          	sw	s7,-88(s0)
8000af80:	fa042223          	sw	zero,-92(s0)
8000af84:	80000c37          	lui	s8,0x80000
8000af88:	fffc4c13          	not	s8,s8
8000af8c:	24d000ef          	jal	ra,8000b9d8 <printf>
8000af90:	000017b7          	lui	a5,0x1
8000af94:	2c078793          	addi	a5,a5,704 # 12c0 <_tbss_end+0x123c>
8000af98:	faf42823          	sw	a5,-80(s0)
8000af9c:	fac42a83          	lw	s5,-84(s0)
8000afa0:	fa842b03          	lw	s6,-88(s0)
8000afa4:	00000b93          	li	s7,0
8000afa8:	fb042783          	lw	a5,-80(s0)
8000afac:	fb442983          	lw	s3,-76(s0)
8000afb0:	000a8c93          	mv	s9,s5
8000afb4:	00fa8a33          	add	s4,s5,a5
8000afb8:	00000d13          	li	s10,0
8000afbc:	00000d93          	li	s11,0
8000afc0:	000ca603          	lw	a2,0(s9)
8000afc4:	004ca683          	lw	a3,4(s9)
8000afc8:	0009a503          	lw	a0,0(s3)
8000afcc:	0049a583          	lw	a1,4(s3)
8000afd0:	00898493          	addi	s1,s3,8
8000afd4:	0c8c8913          	addi	s2,s9,200
8000afd8:	354020ef          	jal	ra,8000d32c <__muldf3>
8000afdc:	00050613          	mv	a2,a0
8000afe0:	00058693          	mv	a3,a1
8000afe4:	000d0513          	mv	a0,s10
8000afe8:	000d8593          	mv	a1,s11
8000afec:	23d010ef          	jal	ra,8000ca28 <__adddf3>
8000aff0:	0c8ca603          	lw	a2,200(s9)
8000aff4:	0ccca683          	lw	a3,204(s9)
8000aff8:	00050d13          	mv	s10,a0
8000affc:	00058d93          	mv	s11,a1
8000b000:	0089a503          	lw	a0,8(s3)
8000b004:	00c9a583          	lw	a1,12(s3)
8000b008:	640c8c93          	addi	s9,s9,1600
8000b00c:	04098993          	addi	s3,s3,64
8000b010:	31c020ef          	jal	ra,8000d32c <__muldf3>
8000b014:	00050613          	mv	a2,a0
8000b018:	00058693          	mv	a3,a1
8000b01c:	000d0513          	mv	a0,s10
8000b020:	000d8593          	mv	a1,s11
8000b024:	205010ef          	jal	ra,8000ca28 <__adddf3>
8000b028:	b50ca603          	lw	a2,-1200(s9)
8000b02c:	b54ca683          	lw	a3,-1196(s9)
8000b030:	00050d13          	mv	s10,a0
8000b034:	00058d93          	mv	s11,a1
8000b038:	fd09a503          	lw	a0,-48(s3)
8000b03c:	fd49a583          	lw	a1,-44(s3)
8000b040:	2ec020ef          	jal	ra,8000d32c <__muldf3>
8000b044:	00050613          	mv	a2,a0
8000b048:	00058693          	mv	a3,a1
8000b04c:	000d0513          	mv	a0,s10
8000b050:	000d8593          	mv	a1,s11
8000b054:	1d5010ef          	jal	ra,8000ca28 <__adddf3>
8000b058:	00050d13          	mv	s10,a0
8000b05c:	00058d93          	mv	s11,a1
8000b060:	19092603          	lw	a2,400(s2) # 40000190 <_tbss_end+0x4000010c>
8000b064:	19492683          	lw	a3,404(s2)
8000b068:	0104a503          	lw	a0,16(s1)
8000b06c:	0144a583          	lw	a1,20(s1)
8000b070:	2bc020ef          	jal	ra,8000d32c <__muldf3>
8000b074:	00050613          	mv	a2,a0
8000b078:	00058693          	mv	a3,a1
8000b07c:	000d0513          	mv	a0,s10
8000b080:	000d8593          	mv	a1,s11
8000b084:	1a5010ef          	jal	ra,8000ca28 <__adddf3>
8000b088:	00050d13          	mv	s10,a0
8000b08c:	00058d93          	mv	s11,a1
8000b090:	25892603          	lw	a2,600(s2)
8000b094:	25c92683          	lw	a3,604(s2)
8000b098:	0184a503          	lw	a0,24(s1)
8000b09c:	01c4a583          	lw	a1,28(s1)
8000b0a0:	28c020ef          	jal	ra,8000d32c <__muldf3>
8000b0a4:	00050613          	mv	a2,a0
8000b0a8:	00058693          	mv	a3,a1
8000b0ac:	000d0513          	mv	a0,s10
8000b0b0:	000d8593          	mv	a1,s11
8000b0b4:	175010ef          	jal	ra,8000ca28 <__adddf3>
8000b0b8:	00050d13          	mv	s10,a0
8000b0bc:	00058d93          	mv	s11,a1
8000b0c0:	32092603          	lw	a2,800(s2)
8000b0c4:	32492683          	lw	a3,804(s2)
8000b0c8:	0204a503          	lw	a0,32(s1)
8000b0cc:	0244a583          	lw	a1,36(s1)
8000b0d0:	25c020ef          	jal	ra,8000d32c <__muldf3>
8000b0d4:	00050613          	mv	a2,a0
8000b0d8:	00058693          	mv	a3,a1
8000b0dc:	000d0513          	mv	a0,s10
8000b0e0:	000d8593          	mv	a1,s11
8000b0e4:	145010ef          	jal	ra,8000ca28 <__adddf3>
8000b0e8:	00050d13          	mv	s10,a0
8000b0ec:	00058d93          	mv	s11,a1
8000b0f0:	3e892603          	lw	a2,1000(s2)
8000b0f4:	3ec92683          	lw	a3,1004(s2)
8000b0f8:	0284a503          	lw	a0,40(s1)
8000b0fc:	02c4a583          	lw	a1,44(s1)
8000b100:	22c020ef          	jal	ra,8000d32c <__muldf3>
8000b104:	00050613          	mv	a2,a0
8000b108:	00058693          	mv	a3,a1
8000b10c:	000d0513          	mv	a0,s10
8000b110:	000d8593          	mv	a1,s11
8000b114:	115010ef          	jal	ra,8000ca28 <__adddf3>
8000b118:	00050d13          	mv	s10,a0
8000b11c:	00058d93          	mv	s11,a1
8000b120:	4b092603          	lw	a2,1200(s2)
8000b124:	4b492683          	lw	a3,1204(s2)
8000b128:	0304a503          	lw	a0,48(s1)
8000b12c:	0344a583          	lw	a1,52(s1)
8000b130:	1fc020ef          	jal	ra,8000d32c <__muldf3>
8000b134:	00050613          	mv	a2,a0
8000b138:	00058693          	mv	a3,a1
8000b13c:	000d0513          	mv	a0,s10
8000b140:	000d8593          	mv	a1,s11
8000b144:	0e5010ef          	jal	ra,8000ca28 <__adddf3>
8000b148:	00050d13          	mv	s10,a0
8000b14c:	00058d93          	mv	s11,a1
8000b150:	e79a18e3          	bne	s4,s9,8000afc0 <thread_entry+0x460>
8000b154:	00003797          	auipc	a5,0x3
8000b158:	28c78793          	addi	a5,a5,652 # 8000e3e0 <main+0x28>
8000b15c:	0007a603          	lw	a2,0(a5)
8000b160:	0047a683          	lw	a3,4(a5)
8000b164:	1c8020ef          	jal	ra,8000d32c <__muldf3>
8000b168:	000b2703          	lw	a4,0(s6)
8000b16c:	004b2783          	lw	a5,4(s6)
8000b170:	00050613          	mv	a2,a0
8000b174:	00058693          	mv	a3,a1
8000b178:	00050913          	mv	s2,a0
8000b17c:	00058993          	mv	s3,a1
8000b180:	00070513          	mv	a0,a4
8000b184:	00078593          	mv	a1,a5
8000b188:	fae42c23          	sw	a4,-72(s0)
8000b18c:	faf42e23          	sw	a5,-68(s0)
8000b190:	770020ef          	jal	ra,8000d900 <__subdf3>
8000b194:	00003797          	auipc	a5,0x3
8000b198:	25478793          	addi	a5,a5,596 # 8000e3e8 <main+0x30>
8000b19c:	0007a603          	lw	a2,0(a5)
8000b1a0:	0047a683          	lw	a3,4(a5)
8000b1a4:	00050a13          	mv	s4,a0
8000b1a8:	0185f4b3          	and	s1,a1,s8
8000b1ac:	00090513          	mv	a0,s2
8000b1b0:	00098593          	mv	a1,s3
8000b1b4:	178020ef          	jal	ra,8000d32c <__muldf3>
8000b1b8:	0185f833          	and	a6,a1,s8
8000b1bc:	00050613          	mv	a2,a0
8000b1c0:	00080693          	mv	a3,a6
8000b1c4:	000a0513          	mv	a0,s4
8000b1c8:	00048593          	mv	a1,s1
8000b1cc:	064020ef          	jal	ra,8000d230 <__gedf2>
8000b1d0:	fb842703          	lw	a4,-72(s0)
8000b1d4:	fbc42783          	lw	a5,-68(s0)
8000b1d8:	04a04a63          	bgtz	a0,8000b22c <thread_entry+0x6cc>
8000b1dc:	001b8b93          	addi	s7,s7,1
8000b1e0:	01900793          	li	a5,25
8000b1e4:	008b0b13          	addi	s6,s6,8
8000b1e8:	008a8a93          	addi	s5,s5,8
8000b1ec:	dafb9ee3          	bne	s7,a5,8000afa8 <thread_entry+0x448>
8000b1f0:	fb442703          	lw	a4,-76(s0)
8000b1f4:	fa442783          	lw	a5,-92(s0)
8000b1f8:	0c070713          	addi	a4,a4,192
8000b1fc:	fae42a23          	sw	a4,-76(s0)
8000b200:	fa842703          	lw	a4,-88(s0)
8000b204:	00178793          	addi	a5,a5,1
8000b208:	faf42223          	sw	a5,-92(s0)
8000b20c:	0c870713          	addi	a4,a4,200
8000b210:	fae42423          	sw	a4,-88(s0)
8000b214:	01800713          	li	a4,24
8000b218:	d8e792e3          	bne	a5,a4,8000af9c <thread_entry+0x43c>
8000b21c:	f9c42503          	lw	a0,-100(s0)
8000b220:	8f1ff0ef          	jal	ra,8000ab10 <barrier>
8000b224:	00000513          	li	a0,0
8000b228:	6e4000ef          	jal	ra,8000b90c <exit>
8000b22c:	fa442603          	lw	a2,-92(s0)
8000b230:	fa042583          	lw	a1,-96(s0)
8000b234:	00090813          	mv	a6,s2
8000b238:	00098893          	mv	a7,s3
8000b23c:	000b8693          	mv	a3,s7
8000b240:	00003517          	auipc	a0,0x3
8000b244:	23050513          	addi	a0,a0,560 # 8000e470 <main+0xb8>
8000b248:	790000ef          	jal	ra,8000b9d8 <printf>
8000b24c:	00100513          	li	a0,1
8000b250:	6bc000ef          	jal	ra,8000b90c <exit>

8000b254 <vprintfmt>:
8000b254:	eb010113          	addi	sp,sp,-336
8000b258:	13a12023          	sw	s10,288(sp)
8000b25c:	40000d37          	lui	s10,0x40000
8000b260:	fffd0793          	addi	a5,s10,-1 # 3fffffff <_tbss_end+0x3fffff7b>
8000b264:	14812423          	sw	s0,328(sp)
8000b268:	14912223          	sw	s1,324(sp)
8000b26c:	15212023          	sw	s2,320(sp)
8000b270:	13512a23          	sw	s5,308(sp)
8000b274:	14112623          	sw	ra,332(sp)
8000b278:	13312e23          	sw	s3,316(sp)
8000b27c:	13412c23          	sw	s4,312(sp)
8000b280:	13612823          	sw	s6,304(sp)
8000b284:	13712623          	sw	s7,300(sp)
8000b288:	13812423          	sw	s8,296(sp)
8000b28c:	13912223          	sw	s9,292(sp)
8000b290:	11b12e23          	sw	s11,284(sp)
8000b294:	00050913          	mv	s2,a0
8000b298:	00058493          	mv	s1,a1
8000b29c:	00060413          	mv	s0,a2
8000b2a0:	00d12423          	sw	a3,8(sp)
8000b2a4:	02500a93          	li	s5,37
8000b2a8:	00f12623          	sw	a5,12(sp)
8000b2ac:	0140006f          	j	8000b2c0 <vprintfmt+0x6c>
8000b2b0:	06050263          	beqz	a0,8000b314 <vprintfmt+0xc0>
8000b2b4:	00048593          	mv	a1,s1
8000b2b8:	00140413          	addi	s0,s0,1
8000b2bc:	000900e7          	jalr	s2
8000b2c0:	00044503          	lbu	a0,0(s0)
8000b2c4:	ff5516e3          	bne	a0,s5,8000b2b0 <vprintfmt+0x5c>
8000b2c8:	00144683          	lbu	a3,1(s0)
8000b2cc:	00140b13          	addi	s6,s0,1
8000b2d0:	000b0713          	mv	a4,s6
8000b2d4:	02000b93          	li	s7,32
8000b2d8:	fff00a13          	li	s4,-1
8000b2dc:	fff00993          	li	s3,-1
8000b2e0:	00000593          	li	a1,0
8000b2e4:	05500513          	li	a0,85
8000b2e8:	00900813          	li	a6,9
8000b2ec:	fdd68793          	addi	a5,a3,-35
8000b2f0:	0ff7f793          	andi	a5,a5,255
8000b2f4:	00170413          	addi	s0,a4,1
8000b2f8:	34f56863          	bltu	a0,a5,8000b648 <vprintfmt+0x3f4>
8000b2fc:	8ec18613          	addi	a2,gp,-1812 # 8000e4cc <main+0x114>
8000b300:	00279793          	slli	a5,a5,0x2
8000b304:	00c787b3          	add	a5,a5,a2
8000b308:	0007a783          	lw	a5,0(a5)
8000b30c:	00c787b3          	add	a5,a5,a2
8000b310:	00078067          	jr	a5
8000b314:	14c12083          	lw	ra,332(sp)
8000b318:	14812403          	lw	s0,328(sp)
8000b31c:	14412483          	lw	s1,324(sp)
8000b320:	14012903          	lw	s2,320(sp)
8000b324:	13c12983          	lw	s3,316(sp)
8000b328:	13812a03          	lw	s4,312(sp)
8000b32c:	13412a83          	lw	s5,308(sp)
8000b330:	13012b03          	lw	s6,304(sp)
8000b334:	12c12b83          	lw	s7,300(sp)
8000b338:	12812c03          	lw	s8,296(sp)
8000b33c:	12412c83          	lw	s9,292(sp)
8000b340:	12012d03          	lw	s10,288(sp)
8000b344:	11c12d83          	lw	s11,284(sp)
8000b348:	15010113          	addi	sp,sp,336
8000b34c:	00008067          	ret
8000b350:	00800b13          	li	s6,8
8000b354:	00012223          	sw	zero,4(sp)
8000b358:	00100793          	li	a5,1
8000b35c:	26b7d863          	ble	a1,a5,8000b5cc <vprintfmt+0x378>
8000b360:	00812783          	lw	a5,8(sp)
8000b364:	00778c93          	addi	s9,a5,7
8000b368:	ff8cf793          	andi	a5,s9,-8
8000b36c:	0007ad83          	lw	s11,0(a5)
8000b370:	0047ac03          	lw	s8,4(a5)
8000b374:	00878713          	addi	a4,a5,8
8000b378:	00e12423          	sw	a4,8(sp)
8000b37c:	000b0613          	mv	a2,s6
8000b380:	00000693          	li	a3,0
8000b384:	000d8513          	mv	a0,s11
8000b388:	000c0593          	mv	a1,s8
8000b38c:	294010ef          	jal	ra,8000c620 <__umoddi3>
8000b390:	00a12823          	sw	a0,16(sp)
8000b394:	00000793          	li	a5,0
8000b398:	2d878263          	beq	a5,s8,8000b65c <vprintfmt+0x408>
8000b39c:	01410c93          	addi	s9,sp,20
8000b3a0:	00100a13          	li	s4,1
8000b3a4:	000b0613          	mv	a2,s6
8000b3a8:	00000693          	li	a3,0
8000b3ac:	000d8513          	mv	a0,s11
8000b3b0:	000c0593          	mv	a1,s8
8000b3b4:	641000ef          	jal	ra,8000c1f4 <__udivdi3>
8000b3b8:	000b0613          	mv	a2,s6
8000b3bc:	00000693          	li	a3,0
8000b3c0:	00050d93          	mv	s11,a0
8000b3c4:	00058c13          	mv	s8,a1
8000b3c8:	258010ef          	jal	ra,8000c620 <__umoddi3>
8000b3cc:	00412783          	lw	a5,4(sp)
8000b3d0:	00aca023          	sw	a0,0(s9)
8000b3d4:	001a0d13          	addi	s10,s4,1
8000b3d8:	004c8c93          	addi	s9,s9,4
8000b3dc:	01878663          	beq	a5,s8,8000b3e8 <vprintfmt+0x194>
8000b3e0:	000d0a13          	mv	s4,s10
8000b3e4:	fc1ff06f          	j	8000b3a4 <vprintfmt+0x150>
8000b3e8:	ff6dfce3          	bleu	s6,s11,8000b3e0 <vprintfmt+0x18c>
8000b3ec:	013d5c63          	ble	s3,s10,8000b404 <vprintfmt+0x1b0>
8000b3f0:	fff98993          	addi	s3,s3,-1
8000b3f4:	00048593          	mv	a1,s1
8000b3f8:	000b8513          	mv	a0,s7
8000b3fc:	000900e7          	jalr	s2
8000b400:	ff3d48e3          	blt	s10,s3,8000b3f0 <vprintfmt+0x19c>
8000b404:	002a1793          	slli	a5,s4,0x2
8000b408:	11010713          	addi	a4,sp,272
8000b40c:	00f707b3          	add	a5,a4,a5
8000b410:	f007a503          	lw	a0,-256(a5)
8000b414:	00c12783          	lw	a5,12(sp)
8000b418:	00900b13          	li	s6,9
8000b41c:	00fa09b3          	add	s3,s4,a5
8000b420:	00299993          	slli	s3,s3,0x2
8000b424:	01010793          	addi	a5,sp,16
8000b428:	013789b3          	add	s3,a5,s3
8000b42c:	0100006f          	j	8000b43c <vprintfmt+0x1e8>
8000b430:	0009a503          	lw	a0,0(s3)
8000b434:	fffa0a13          	addi	s4,s4,-1
8000b438:	ffc98993          	addi	s3,s3,-4
8000b43c:	03000793          	li	a5,48
8000b440:	00ab7463          	bleu	a0,s6,8000b448 <vprintfmt+0x1f4>
8000b444:	05700793          	li	a5,87
8000b448:	00048593          	mv	a1,s1
8000b44c:	00a78533          	add	a0,a5,a0
8000b450:	000900e7          	jalr	s2
8000b454:	fd404ee3          	bgtz	s4,8000b430 <vprintfmt+0x1dc>
8000b458:	e69ff06f          	j	8000b2c0 <vprintfmt+0x6c>
8000b45c:	03000513          	li	a0,48
8000b460:	00048593          	mv	a1,s1
8000b464:	000900e7          	jalr	s2
8000b468:	00048593          	mv	a1,s1
8000b46c:	07800513          	li	a0,120
8000b470:	000900e7          	jalr	s2
8000b474:	00812783          	lw	a5,8(sp)
8000b478:	01000b13          	li	s6,16
8000b47c:	00012223          	sw	zero,4(sp)
8000b480:	00478693          	addi	a3,a5,4
8000b484:	00812783          	lw	a5,8(sp)
8000b488:	00000c13          	li	s8,0
8000b48c:	0007ad83          	lw	s11,0(a5)
8000b490:	00d12423          	sw	a3,8(sp)
8000b494:	ee9ff06f          	j	8000b37c <vprintfmt+0x128>
8000b498:	00812783          	lw	a5,8(sp)
8000b49c:	00174683          	lbu	a3,1(a4)
8000b4a0:	00040713          	mv	a4,s0
8000b4a4:	0007aa03          	lw	s4,0(a5)
8000b4a8:	00478793          	addi	a5,a5,4
8000b4ac:	00f12423          	sw	a5,8(sp)
8000b4b0:	e209dee3          	bgez	s3,8000b2ec <vprintfmt+0x98>
8000b4b4:	000a0993          	mv	s3,s4
8000b4b8:	fff00a13          	li	s4,-1
8000b4bc:	e31ff06f          	j	8000b2ec <vprintfmt+0x98>
8000b4c0:	00174683          	lbu	a3,1(a4)
8000b4c4:	02d00b93          	li	s7,45
8000b4c8:	00040713          	mv	a4,s0
8000b4cc:	e21ff06f          	j	8000b2ec <vprintfmt+0x98>
8000b4d0:	fff9c793          	not	a5,s3
8000b4d4:	41f7d793          	srai	a5,a5,0x1f
8000b4d8:	00174683          	lbu	a3,1(a4)
8000b4dc:	00f9f9b3          	and	s3,s3,a5
8000b4e0:	00040713          	mv	a4,s0
8000b4e4:	e09ff06f          	j	8000b2ec <vprintfmt+0x98>
8000b4e8:	00174683          	lbu	a3,1(a4)
8000b4ec:	03000b93          	li	s7,48
8000b4f0:	00040713          	mv	a4,s0
8000b4f4:	df9ff06f          	j	8000b2ec <vprintfmt+0x98>
8000b4f8:	00174603          	lbu	a2,1(a4)
8000b4fc:	fd068a13          	addi	s4,a3,-48
8000b500:	00040713          	mv	a4,s0
8000b504:	fd060793          	addi	a5,a2,-48
8000b508:	00060693          	mv	a3,a2
8000b50c:	faf862e3          	bltu	a6,a5,8000b4b0 <vprintfmt+0x25c>
8000b510:	002a1793          	slli	a5,s4,0x2
8000b514:	01478a33          	add	s4,a5,s4
8000b518:	00170713          	addi	a4,a4,1
8000b51c:	001a1a13          	slli	s4,s4,0x1
8000b520:	00ca0a33          	add	s4,s4,a2
8000b524:	00074603          	lbu	a2,0(a4)
8000b528:	fd0a0a13          	addi	s4,s4,-48
8000b52c:	fd060793          	addi	a5,a2,-48
8000b530:	00060693          	mv	a3,a2
8000b534:	fcf87ee3          	bleu	a5,a6,8000b510 <vprintfmt+0x2bc>
8000b538:	f79ff06f          	j	8000b4b0 <vprintfmt+0x25c>
8000b53c:	00812783          	lw	a5,8(sp)
8000b540:	00048593          	mv	a1,s1
8000b544:	0007a503          	lw	a0,0(a5)
8000b548:	00478c93          	addi	s9,a5,4
8000b54c:	000900e7          	jalr	s2
8000b550:	01912423          	sw	s9,8(sp)
8000b554:	d6dff06f          	j	8000b2c0 <vprintfmt+0x6c>
8000b558:	00100793          	li	a5,1
8000b55c:	1ab7da63          	ble	a1,a5,8000b710 <vprintfmt+0x4bc>
8000b560:	00812783          	lw	a5,8(sp)
8000b564:	00778793          	addi	a5,a5,7
8000b568:	ff87f793          	andi	a5,a5,-8
8000b56c:	0007ad83          	lw	s11,0(a5)
8000b570:	0047ac03          	lw	s8,4(a5)
8000b574:	00878713          	addi	a4,a5,8
8000b578:	00e12423          	sw	a4,8(sp)
8000b57c:	020c5263          	bgez	s8,8000b5a0 <vprintfmt+0x34c>
8000b580:	00048593          	mv	a1,s1
8000b584:	02d00513          	li	a0,45
8000b588:	000900e7          	jalr	s2
8000b58c:	41b00733          	neg	a4,s11
8000b590:	00e036b3          	snez	a3,a4
8000b594:	418007b3          	neg	a5,s8
8000b598:	00070d93          	mv	s11,a4
8000b59c:	40d78c33          	sub	s8,a5,a3
8000b5a0:	00a00b13          	li	s6,10
8000b5a4:	00012223          	sw	zero,4(sp)
8000b5a8:	dd5ff06f          	j	8000b37c <vprintfmt+0x128>
8000b5ac:	00174683          	lbu	a3,1(a4)
8000b5b0:	00158593          	addi	a1,a1,1
8000b5b4:	00040713          	mv	a4,s0
8000b5b8:	d35ff06f          	j	8000b2ec <vprintfmt+0x98>
8000b5bc:	00012223          	sw	zero,4(sp)
8000b5c0:	00100793          	li	a5,1
8000b5c4:	00a00b13          	li	s6,10
8000b5c8:	d8b7cce3          	blt	a5,a1,8000b360 <vprintfmt+0x10c>
8000b5cc:	00812783          	lw	a5,8(sp)
8000b5d0:	00478693          	addi	a3,a5,4
8000b5d4:	eb1ff06f          	j	8000b484 <vprintfmt+0x230>
8000b5d8:	01000b13          	li	s6,16
8000b5dc:	00012223          	sw	zero,4(sp)
8000b5e0:	d79ff06f          	j	8000b358 <vprintfmt+0x104>
8000b5e4:	00174683          	lbu	a3,1(a4)
8000b5e8:	00040713          	mv	a4,s0
8000b5ec:	d01ff06f          	j	8000b2ec <vprintfmt+0x98>
8000b5f0:	00048593          	mv	a1,s1
8000b5f4:	02500513          	li	a0,37
8000b5f8:	000900e7          	jalr	s2
8000b5fc:	cc5ff06f          	j	8000b2c0 <vprintfmt+0x6c>
8000b600:	00812783          	lw	a5,8(sp)
8000b604:	0007ab03          	lw	s6,0(a5)
8000b608:	00478c93          	addi	s9,a5,4
8000b60c:	120b0263          	beqz	s6,8000b730 <vprintfmt+0x4dc>
8000b610:	07305863          	blez	s3,8000b680 <vprintfmt+0x42c>
8000b614:	02d00793          	li	a5,45
8000b618:	0efb8463          	beq	s7,a5,8000b700 <vprintfmt+0x4ac>
8000b61c:	0a0a0c63          	beqz	s4,8000b6d4 <vprintfmt+0x480>
8000b620:	000b4783          	lbu	a5,0(s6)
8000b624:	0a078863          	beqz	a5,8000b6d4 <vprintfmt+0x480>
8000b628:	001b0793          	addi	a5,s6,1
8000b62c:	014b0633          	add	a2,s6,s4
8000b630:	12f60663          	beq	a2,a5,8000b75c <vprintfmt+0x508>
8000b634:	00178713          	addi	a4,a5,1
8000b638:	fff74683          	lbu	a3,-1(a4)
8000b63c:	02068c63          	beqz	a3,8000b674 <vprintfmt+0x420>
8000b640:	00070793          	mv	a5,a4
8000b644:	fedff06f          	j	8000b630 <vprintfmt+0x3dc>
8000b648:	00048593          	mv	a1,s1
8000b64c:	02500513          	li	a0,37
8000b650:	000900e7          	jalr	s2
8000b654:	000b0413          	mv	s0,s6
8000b658:	c69ff06f          	j	8000b2c0 <vprintfmt+0x6c>
8000b65c:	d56df0e3          	bleu	s6,s11,8000b39c <vprintfmt+0x148>
8000b660:	00100793          	li	a5,1
8000b664:	00000a13          	li	s4,0
8000b668:	00100d13          	li	s10,1
8000b66c:	d937c2e3          	blt	a5,s3,8000b3f0 <vprintfmt+0x19c>
8000b670:	da5ff06f          	j	8000b414 <vprintfmt+0x1c0>
8000b674:	416787b3          	sub	a5,a5,s6
8000b678:	40f989b3          	sub	s3,s3,a5
8000b67c:	05304c63          	bgtz	s3,8000b6d4 <vprintfmt+0x480>
8000b680:	000b4503          	lbu	a0,0(s6)
8000b684:	02050e63          	beqz	a0,8000b6c0 <vprintfmt+0x46c>
8000b688:	fff00b93          	li	s7,-1
8000b68c:	020a5e63          	bgez	s4,8000b6c8 <vprintfmt+0x474>
8000b690:	00048593          	mv	a1,s1
8000b694:	001b0b13          	addi	s6,s6,1
8000b698:	000900e7          	jalr	s2
8000b69c:	000b4503          	lbu	a0,0(s6)
8000b6a0:	fff98993          	addi	s3,s3,-1
8000b6a4:	fe0514e3          	bnez	a0,8000b68c <vprintfmt+0x438>
8000b6a8:	01305c63          	blez	s3,8000b6c0 <vprintfmt+0x46c>
8000b6ac:	fff98993          	addi	s3,s3,-1
8000b6b0:	00048593          	mv	a1,s1
8000b6b4:	02000513          	li	a0,32
8000b6b8:	000900e7          	jalr	s2
8000b6bc:	fe0998e3          	bnez	s3,8000b6ac <vprintfmt+0x458>
8000b6c0:	01912423          	sw	s9,8(sp)
8000b6c4:	bfdff06f          	j	8000b2c0 <vprintfmt+0x6c>
8000b6c8:	fffa0a13          	addi	s4,s4,-1
8000b6cc:	fd7a12e3          	bne	s4,s7,8000b690 <vprintfmt+0x43c>
8000b6d0:	fd9ff06f          	j	8000b6a8 <vprintfmt+0x454>
8000b6d4:	fff98993          	addi	s3,s3,-1
8000b6d8:	00048593          	mv	a1,s1
8000b6dc:	000b8513          	mv	a0,s7
8000b6e0:	000900e7          	jalr	s2
8000b6e4:	f8098ee3          	beqz	s3,8000b680 <vprintfmt+0x42c>
8000b6e8:	fff98993          	addi	s3,s3,-1
8000b6ec:	00048593          	mv	a1,s1
8000b6f0:	000b8513          	mv	a0,s7
8000b6f4:	000900e7          	jalr	s2
8000b6f8:	fc099ee3          	bnez	s3,8000b6d4 <vprintfmt+0x480>
8000b6fc:	f85ff06f          	j	8000b680 <vprintfmt+0x42c>
8000b700:	000b4503          	lbu	a0,0(s6)
8000b704:	fa0504e3          	beqz	a0,8000b6ac <vprintfmt+0x458>
8000b708:	fff00b93          	li	s7,-1
8000b70c:	f81ff06f          	j	8000b68c <vprintfmt+0x438>
8000b710:	00812703          	lw	a4,8(sp)
8000b714:	00470793          	addi	a5,a4,4
8000b718:	00059463          	bnez	a1,8000b720 <vprintfmt+0x4cc>
8000b71c:	00812703          	lw	a4,8(sp)
8000b720:	00072d83          	lw	s11,0(a4)
8000b724:	00f12423          	sw	a5,8(sp)
8000b728:	41fddc13          	srai	s8,s11,0x1f
8000b72c:	e51ff06f          	j	8000b57c <vprintfmt+0x328>
8000b730:	01305c63          	blez	s3,8000b748 <vprintfmt+0x4f4>
8000b734:	02d00793          	li	a5,45
8000b738:	00fb8863          	beq	s7,a5,8000b748 <vprintfmt+0x4f4>
8000b73c:	00003b17          	auipc	s6,0x3
8000b740:	d50b0b13          	addi	s6,s6,-688 # 8000e48c <main+0xd4>
8000b744:	ed9ff06f          	j	8000b61c <vprintfmt+0x3c8>
8000b748:	00003b17          	auipc	s6,0x3
8000b74c:	d44b0b13          	addi	s6,s6,-700 # 8000e48c <main+0xd4>
8000b750:	02800513          	li	a0,40
8000b754:	fff00b93          	li	s7,-1
8000b758:	f35ff06f          	j	8000b68c <vprintfmt+0x438>
8000b75c:	41660633          	sub	a2,a2,s6
8000b760:	40c989b3          	sub	s3,s3,a2
8000b764:	f73048e3          	bgtz	s3,8000b6d4 <vprintfmt+0x480>
8000b768:	f19ff06f          	j	8000b680 <vprintfmt+0x42c>

8000b76c <sprintf_putch.2916>:
8000b76c:	0005a783          	lw	a5,0(a1)
8000b770:	00a78023          	sb	a0,0(a5)
8000b774:	0005a783          	lw	a5,0(a1)
8000b778:	00178793          	addi	a5,a5,1
8000b77c:	00f5a023          	sw	a5,0(a1)
8000b780:	00008067          	ret

8000b784 <syscall.constprop.2>:
8000b784:	f8010113          	addi	sp,sp,-128
8000b788:	03f10813          	addi	a6,sp,63
8000b78c:	fc087813          	andi	a6,a6,-64
8000b790:	04000713          	li	a4,64
8000b794:	00e82023          	sw	a4,0(a6)
8000b798:	00000793          	li	a5,0
8000b79c:	00f82223          	sw	a5,4(a6)
8000b7a0:	00100713          	li	a4,1
8000b7a4:	00e82423          	sw	a4,8(a6)
8000b7a8:	00000793          	li	a5,0
8000b7ac:	00f82623          	sw	a5,12(a6)
8000b7b0:	00a82823          	sw	a0,16(a6)
8000b7b4:	00b82a23          	sw	a1,20(a6)
8000b7b8:	00c82c23          	sw	a2,24(a6)
8000b7bc:	00d82e23          	sw	a3,28(a6)
8000b7c0:	0ff0000f          	fence
8000b7c4:	ffff6697          	auipc	a3,0xffff6
8000b7c8:	83c68693          	addi	a3,a3,-1988 # 80001000 <tohost>
8000b7cc:	0106a023          	sw	a6,0(a3)
8000b7d0:	00000793          	li	a5,0
8000b7d4:	00f6a223          	sw	a5,4(a3)
8000b7d8:	ffff6697          	auipc	a3,0xffff6
8000b7dc:	86868693          	addi	a3,a3,-1944 # 80001040 <fromhost>
8000b7e0:	0006a703          	lw	a4,0(a3)
8000b7e4:	0046a783          	lw	a5,4(a3)
8000b7e8:	00f76733          	or	a4,a4,a5
8000b7ec:	fe070ae3          	beqz	a4,8000b7e0 <syscall.constprop.2+0x5c>
8000b7f0:	00000713          	li	a4,0
8000b7f4:	00e6a023          	sw	a4,0(a3)
8000b7f8:	00000793          	li	a5,0
8000b7fc:	00f6a223          	sw	a5,4(a3)
8000b800:	0ff0000f          	fence
8000b804:	00082503          	lw	a0,0(a6)
8000b808:	00482583          	lw	a1,4(a6)
8000b80c:	08010113          	addi	sp,sp,128
8000b810:	00008067          	ret

8000b814 <putchar>:
8000b814:	ff010113          	addi	sp,sp,-16
8000b818:	00812423          	sw	s0,8(sp)
8000b81c:	08022583          	lw	a1,128(tp) # 80 <buflen.2802>
8000b820:	04020793          	addi	a5,tp,64 # 40 <buf.2801>
8000b824:	00112623          	sw	ra,12(sp)
8000b828:	00b787b3          	add	a5,a5,a1
8000b82c:	00158613          	addi	a2,a1,1
8000b830:	00a78023          	sb	a0,0(a5)
8000b834:	08c22023          	sw	a2,128(tp) # 80 <buflen.2802>
8000b838:	00a00793          	li	a5,10
8000b83c:	02f50063          	beq	a0,a5,8000b85c <putchar+0x48>
8000b840:	04000793          	li	a5,64
8000b844:	00f60c63          	beq	a2,a5,8000b85c <putchar+0x48>
8000b848:	00c12083          	lw	ra,12(sp)
8000b84c:	00812403          	lw	s0,8(sp)
8000b850:	00000513          	li	a0,0
8000b854:	01010113          	addi	sp,sp,16
8000b858:	00008067          	ret
8000b85c:	41f65693          	srai	a3,a2,0x1f
8000b860:	04020513          	addi	a0,tp,64 # 40 <buf.2801>
8000b864:	00000593          	li	a1,0
8000b868:	f1dff0ef          	jal	ra,8000b784 <syscall.constprop.2>
8000b86c:	08022023          	sw	zero,128(tp) # 80 <buflen.2802>
8000b870:	00c12083          	lw	ra,12(sp)
8000b874:	00812403          	lw	s0,8(sp)
8000b878:	00000513          	li	a0,0
8000b87c:	01010113          	addi	sp,sp,16
8000b880:	00008067          	ret

8000b884 <setStats>:
8000b884:	b00027f3          	csrr	a5,mcycle
8000b888:	be018713          	addi	a4,gp,-1056 # 8000e7c0 <counters>
8000b88c:	00051c63          	bnez	a0,8000b8a4 <setStats+0x20>
8000b890:	00072683          	lw	a3,0(a4)
8000b894:	00003617          	auipc	a2,0x3
8000b898:	c0060613          	addi	a2,a2,-1024 # 8000e494 <main+0xdc>
8000b89c:	bcc1ac23          	sw	a2,-1064(gp) # 8000e7b8 <counter_names>
8000b8a0:	40d787b3          	sub	a5,a5,a3
8000b8a4:	bef1a023          	sw	a5,-1056(gp) # 8000e7c0 <counters>
8000b8a8:	b02027f3          	csrr	a5,minstret
8000b8ac:	00051c63          	bnez	a0,8000b8c4 <setStats+0x40>
8000b8b0:	00472703          	lw	a4,4(a4)
8000b8b4:	00003697          	auipc	a3,0x3
8000b8b8:	be868693          	addi	a3,a3,-1048 # 8000e49c <main+0xe4>
8000b8bc:	bcd1ae23          	sw	a3,-1060(gp) # 8000e7bc <counter_names+0x4>
8000b8c0:	40e787b3          	sub	a5,a5,a4
8000b8c4:	bef1a223          	sw	a5,-1052(gp) # 8000e7c4 <counters+0x4>
8000b8c8:	00008067          	ret

8000b8cc <tohost_exit>:
8000b8cc:	00151513          	slli	a0,a0,0x1
8000b8d0:	ffff5697          	auipc	a3,0xffff5
8000b8d4:	73068693          	addi	a3,a3,1840 # 80001000 <tohost>
8000b8d8:	00156713          	ori	a4,a0,1
8000b8dc:	00000793          	li	a5,0
8000b8e0:	00e6a023          	sw	a4,0(a3)
8000b8e4:	00f6a223          	sw	a5,4(a3)
8000b8e8:	0000006f          	j	8000b8e8 <tohost_exit+0x1c>

8000b8ec <handle_trap>:
8000b8ec:	00001637          	lui	a2,0x1
8000b8f0:	ffff5797          	auipc	a5,0xffff5
8000b8f4:	71078793          	addi	a5,a5,1808 # 80001000 <tohost>
8000b8f8:	a7360613          	addi	a2,a2,-1421 # a73 <_tbss_end+0x9ef>
8000b8fc:	00000693          	li	a3,0
8000b900:	00c7a023          	sw	a2,0(a5)
8000b904:	00d7a223          	sw	a3,4(a5)
8000b908:	0000006f          	j	8000b908 <handle_trap+0x1c>

8000b90c <exit>:
8000b90c:	ff010113          	addi	sp,sp,-16
8000b910:	00112623          	sw	ra,12(sp)
8000b914:	fb9ff0ef          	jal	ra,8000b8cc <tohost_exit>

8000b918 <abort>:
8000b918:	ffff5797          	auipc	a5,0xffff5
8000b91c:	6e878793          	addi	a5,a5,1768 # 80001000 <tohost>
8000b920:	10d00613          	li	a2,269
8000b924:	00000693          	li	a3,0
8000b928:	00c7a023          	sw	a2,0(a5)
8000b92c:	00d7a223          	sw	a3,4(a5)
8000b930:	0000006f          	j	8000b930 <abort+0x18>

8000b934 <printstr>:
8000b934:	00054783          	lbu	a5,0(a0)
8000b938:	00050613          	mv	a2,a0
8000b93c:	02078063          	beqz	a5,8000b95c <printstr+0x28>
8000b940:	00160613          	addi	a2,a2,1
8000b944:	00064783          	lbu	a5,0(a2)
8000b948:	fe079ce3          	bnez	a5,8000b940 <printstr+0xc>
8000b94c:	40a60633          	sub	a2,a2,a0
8000b950:	00000693          	li	a3,0
8000b954:	00000593          	li	a1,0
8000b958:	e2dff06f          	j	8000b784 <syscall.constprop.2>
8000b95c:	00000613          	li	a2,0
8000b960:	00000693          	li	a3,0
8000b964:	00000593          	li	a1,0
8000b968:	e1dff06f          	j	8000b784 <syscall.constprop.2>
8000b96c:	00050463          	beqz	a0,8000b974 <printstr+0x40>
8000b970:	0000006f          	j	8000b970 <printstr+0x3c>
8000b974:	00008067          	ret

8000b978 <printhex>:
8000b978:	fd010113          	addi	sp,sp,-48
8000b97c:	02112623          	sw	ra,44(sp)
8000b980:	01b10793          	addi	a5,sp,27
8000b984:	00b10313          	addi	t1,sp,11
8000b988:	00900893          	li	a7,9
8000b98c:	00f57693          	andi	a3,a0,15
8000b990:	01c59813          	slli	a6,a1,0x1c
8000b994:	00455513          	srli	a0,a0,0x4
8000b998:	05700613          	li	a2,87
8000b99c:	0ff6f713          	andi	a4,a3,255
8000b9a0:	00d8e463          	bltu	a7,a3,8000b9a8 <printhex+0x30>
8000b9a4:	03000613          	li	a2,48
8000b9a8:	00c70733          	add	a4,a4,a2
8000b9ac:	00e78023          	sb	a4,0(a5)
8000b9b0:	fff78793          	addi	a5,a5,-1
8000b9b4:	00a86533          	or	a0,a6,a0
8000b9b8:	0045d593          	srli	a1,a1,0x4
8000b9bc:	fcf318e3          	bne	t1,a5,8000b98c <printhex+0x14>
8000b9c0:	00c10513          	addi	a0,sp,12
8000b9c4:	00010e23          	sb	zero,28(sp)
8000b9c8:	f6dff0ef          	jal	ra,8000b934 <printstr>
8000b9cc:	02c12083          	lw	ra,44(sp)
8000b9d0:	03010113          	addi	sp,sp,48
8000b9d4:	00008067          	ret

8000b9d8 <printf>:
8000b9d8:	fc010113          	addi	sp,sp,-64
8000b9dc:	02410313          	addi	t1,sp,36
8000b9e0:	02b12223          	sw	a1,36(sp)
8000b9e4:	02c12423          	sw	a2,40(sp)
8000b9e8:	02d12623          	sw	a3,44(sp)
8000b9ec:	00050613          	mv	a2,a0
8000b9f0:	00030693          	mv	a3,t1
8000b9f4:	00000517          	auipc	a0,0x0
8000b9f8:	e2050513          	addi	a0,a0,-480 # 8000b814 <putchar>
8000b9fc:	00000593          	li	a1,0
8000ba00:	00112e23          	sw	ra,28(sp)
8000ba04:	02e12823          	sw	a4,48(sp)
8000ba08:	02f12a23          	sw	a5,52(sp)
8000ba0c:	03012c23          	sw	a6,56(sp)
8000ba10:	03112e23          	sw	a7,60(sp)
8000ba14:	00612623          	sw	t1,12(sp)
8000ba18:	83dff0ef          	jal	ra,8000b254 <vprintfmt>
8000ba1c:	01c12083          	lw	ra,28(sp)
8000ba20:	00000513          	li	a0,0
8000ba24:	04010113          	addi	sp,sp,64
8000ba28:	00008067          	ret

8000ba2c <sprintf>:
8000ba2c:	fb010113          	addi	sp,sp,-80
8000ba30:	03810313          	addi	t1,sp,56
8000ba34:	02812423          	sw	s0,40(sp)
8000ba38:	00a12623          	sw	a0,12(sp)
8000ba3c:	02c12c23          	sw	a2,56(sp)
8000ba40:	02d12e23          	sw	a3,60(sp)
8000ba44:	00050413          	mv	s0,a0
8000ba48:	00058613          	mv	a2,a1
8000ba4c:	00000517          	auipc	a0,0x0
8000ba50:	d2050513          	addi	a0,a0,-736 # 8000b76c <sprintf_putch.2916>
8000ba54:	00c10593          	addi	a1,sp,12
8000ba58:	00030693          	mv	a3,t1
8000ba5c:	02112623          	sw	ra,44(sp)
8000ba60:	04f12223          	sw	a5,68(sp)
8000ba64:	04e12023          	sw	a4,64(sp)
8000ba68:	05012423          	sw	a6,72(sp)
8000ba6c:	05112623          	sw	a7,76(sp)
8000ba70:	00612e23          	sw	t1,28(sp)
8000ba74:	fe0ff0ef          	jal	ra,8000b254 <vprintfmt>
8000ba78:	00c12783          	lw	a5,12(sp)
8000ba7c:	00078023          	sb	zero,0(a5)
8000ba80:	00c12503          	lw	a0,12(sp)
8000ba84:	02c12083          	lw	ra,44(sp)
8000ba88:	40850533          	sub	a0,a0,s0
8000ba8c:	02812403          	lw	s0,40(sp)
8000ba90:	05010113          	addi	sp,sp,80
8000ba94:	00008067          	ret

8000ba98 <memcpy>:
8000ba98:	00c5e7b3          	or	a5,a1,a2
8000ba9c:	00f567b3          	or	a5,a0,a5
8000baa0:	0037f793          	andi	a5,a5,3
8000baa4:	00c506b3          	add	a3,a0,a2
8000baa8:	02078463          	beqz	a5,8000bad0 <memcpy+0x38>
8000baac:	00c58633          	add	a2,a1,a2
8000bab0:	00050793          	mv	a5,a0
8000bab4:	02d57e63          	bleu	a3,a0,8000baf0 <memcpy+0x58>
8000bab8:	00158593          	addi	a1,a1,1
8000babc:	fff5c703          	lbu	a4,-1(a1)
8000bac0:	00178793          	addi	a5,a5,1
8000bac4:	fee78fa3          	sb	a4,-1(a5)
8000bac8:	feb618e3          	bne	a2,a1,8000bab8 <memcpy+0x20>
8000bacc:	00008067          	ret
8000bad0:	fed57ee3          	bleu	a3,a0,8000bacc <memcpy+0x34>
8000bad4:	00050793          	mv	a5,a0
8000bad8:	00458593          	addi	a1,a1,4
8000badc:	ffc5a703          	lw	a4,-4(a1)
8000bae0:	00478793          	addi	a5,a5,4
8000bae4:	fee7ae23          	sw	a4,-4(a5)
8000bae8:	fed7e8e3          	bltu	a5,a3,8000bad8 <memcpy+0x40>
8000baec:	00008067          	ret
8000baf0:	00008067          	ret

8000baf4 <memset>:
8000baf4:	00c567b3          	or	a5,a0,a2
8000baf8:	0037f793          	andi	a5,a5,3
8000bafc:	00c50633          	add	a2,a0,a2
8000bb00:	02078063          	beqz	a5,8000bb20 <memset+0x2c>
8000bb04:	0ff5f593          	andi	a1,a1,255
8000bb08:	00050793          	mv	a5,a0
8000bb0c:	04c57063          	bleu	a2,a0,8000bb4c <memset+0x58>
8000bb10:	00178793          	addi	a5,a5,1
8000bb14:	feb78fa3          	sb	a1,-1(a5)
8000bb18:	fef61ce3          	bne	a2,a5,8000bb10 <memset+0x1c>
8000bb1c:	00008067          	ret
8000bb20:	0ff5f593          	andi	a1,a1,255
8000bb24:	00859713          	slli	a4,a1,0x8
8000bb28:	00e5e733          	or	a4,a1,a4
8000bb2c:	01071793          	slli	a5,a4,0x10
8000bb30:	00f76733          	or	a4,a4,a5
8000bb34:	fec574e3          	bleu	a2,a0,8000bb1c <memset+0x28>
8000bb38:	00050793          	mv	a5,a0
8000bb3c:	00478793          	addi	a5,a5,4
8000bb40:	fee7ae23          	sw	a4,-4(a5)
8000bb44:	fec7ece3          	bltu	a5,a2,8000bb3c <memset+0x48>
8000bb48:	00008067          	ret
8000bb4c:	00008067          	ret

8000bb50 <_init>:
8000bb50:	f6010113          	addi	sp,sp,-160
8000bb54:	08812c23          	sw	s0,152(sp)
8000bb58:	08912a23          	sw	s1,148(sp)
8000bb5c:	00020493          	mv	s1,tp
8000bb60:	00020413          	mv	s0,tp
8000bb64:	40848433          	sub	s0,s1,s0
8000bb68:	00040613          	mv	a2,s0
8000bb6c:	09312623          	sw	s3,140(sp)
8000bb70:	09412423          	sw	s4,136(sp)
8000bb74:	00050993          	mv	s3,a0
8000bb78:	00058a13          	mv	s4,a1
8000bb7c:	00020513          	mv	a0,tp
8000bb80:	c2018593          	addi	a1,gp,-992 # 8000e800 <_end>
8000bb84:	08112e23          	sw	ra,156(sp)
8000bb88:	09212823          	sw	s2,144(sp)
8000bb8c:	09512223          	sw	s5,132(sp)
8000bb90:	00020a93          	mv	s5,tp
8000bb94:	f05ff0ef          	jal	ra,8000ba98 <memcpy>
8000bb98:	08420613          	addi	a2,tp,132 # 84 <_tbss_end>
8000bb9c:	40960633          	sub	a2,a2,s1
8000bba0:	00000593          	li	a1,0
8000bba4:	008a8533          	add	a0,s5,s0
8000bba8:	f4dff0ef          	jal	ra,8000baf4 <memset>
8000bbac:	000a0593          	mv	a1,s4
8000bbb0:	00098513          	mv	a0,s3
8000bbb4:	fadfe0ef          	jal	ra,8000ab60 <thread_entry>
8000bbb8:	00000593          	li	a1,0
8000bbbc:	00000513          	li	a0,0
8000bbc0:	7f8020ef          	jal	ra,8000e3b8 <main>
8000bbc4:	be018413          	addi	s0,gp,-1056 # 8000e7c0 <counters>
8000bbc8:	00042683          	lw	a3,0(s0)
8000bbcc:	03f10913          	addi	s2,sp,63
8000bbd0:	fc097913          	andi	s2,s2,-64
8000bbd4:	00050493          	mv	s1,a0
8000bbd8:	04069263          	bnez	a3,8000bc1c <_init+0xcc>
8000bbdc:	00442683          	lw	a3,4(s0)
8000bbe0:	00069663          	bnez	a3,8000bbec <_init+0x9c>
8000bbe4:	00048513          	mv	a0,s1
8000bbe8:	ce5ff0ef          	jal	ra,8000b8cc <tohost_exit>
8000bbec:	00090413          	mv	s0,s2
8000bbf0:	bd818993          	addi	s3,gp,-1064 # 8000e7b8 <counter_names>
8000bbf4:	0049a603          	lw	a2,4(s3)
8000bbf8:	00040513          	mv	a0,s0
8000bbfc:	00003597          	auipc	a1,0x3
8000bc00:	8c458593          	addi	a1,a1,-1852 # 8000e4c0 <main+0x108>
8000bc04:	e29ff0ef          	jal	ra,8000ba2c <sprintf>
8000bc08:	00a40433          	add	s0,s0,a0
8000bc0c:	fc890ce3          	beq	s2,s0,8000bbe4 <_init+0x94>
8000bc10:	00090513          	mv	a0,s2
8000bc14:	d21ff0ef          	jal	ra,8000b934 <printstr>
8000bc18:	fcdff06f          	j	8000bbe4 <_init+0x94>
8000bc1c:	bd818993          	addi	s3,gp,-1064 # 8000e7b8 <counter_names>
8000bc20:	0009a603          	lw	a2,0(s3)
8000bc24:	00003597          	auipc	a1,0x3
8000bc28:	89c58593          	addi	a1,a1,-1892 # 8000e4c0 <main+0x108>
8000bc2c:	00090513          	mv	a0,s2
8000bc30:	dfdff0ef          	jal	ra,8000ba2c <sprintf>
8000bc34:	00442683          	lw	a3,4(s0)
8000bc38:	00a90433          	add	s0,s2,a0
8000bc3c:	fc0688e3          	beqz	a3,8000bc0c <_init+0xbc>
8000bc40:	fb5ff06f          	j	8000bbf4 <_init+0xa4>

8000bc44 <strlen>:
8000bc44:	00054783          	lbu	a5,0(a0)
8000bc48:	00050713          	mv	a4,a0
8000bc4c:	00078c63          	beqz	a5,8000bc64 <strlen+0x20>
8000bc50:	00150513          	addi	a0,a0,1
8000bc54:	00054783          	lbu	a5,0(a0)
8000bc58:	fe079ce3          	bnez	a5,8000bc50 <strlen+0xc>
8000bc5c:	40e50533          	sub	a0,a0,a4
8000bc60:	00008067          	ret
8000bc64:	00000513          	li	a0,0
8000bc68:	00008067          	ret

8000bc6c <strnlen>:
8000bc6c:	00050713          	mv	a4,a0
8000bc70:	02058663          	beqz	a1,8000bc9c <strnlen+0x30>
8000bc74:	00054783          	lbu	a5,0(a0)
8000bc78:	02078263          	beqz	a5,8000bc9c <strnlen+0x30>
8000bc7c:	00b505b3          	add	a1,a0,a1
8000bc80:	00c0006f          	j	8000bc8c <strnlen+0x20>
8000bc84:	00054783          	lbu	a5,0(a0)
8000bc88:	00078663          	beqz	a5,8000bc94 <strnlen+0x28>
8000bc8c:	00150513          	addi	a0,a0,1
8000bc90:	feb51ae3          	bne	a0,a1,8000bc84 <strnlen+0x18>
8000bc94:	40e50533          	sub	a0,a0,a4
8000bc98:	00008067          	ret
8000bc9c:	00000513          	li	a0,0
8000bca0:	00008067          	ret

8000bca4 <strcmp>:
8000bca4:	00150513          	addi	a0,a0,1
8000bca8:	fff54783          	lbu	a5,-1(a0)
8000bcac:	00158593          	addi	a1,a1,1
8000bcb0:	fff5c703          	lbu	a4,-1(a1)
8000bcb4:	00078863          	beqz	a5,8000bcc4 <strcmp+0x20>
8000bcb8:	fee786e3          	beq	a5,a4,8000bca4 <strcmp>
8000bcbc:	40e78533          	sub	a0,a5,a4
8000bcc0:	00008067          	ret
8000bcc4:	00000793          	li	a5,0
8000bcc8:	ff5ff06f          	j	8000bcbc <strcmp+0x18>

8000bccc <strcpy>:
8000bccc:	00050793          	mv	a5,a0
8000bcd0:	00158593          	addi	a1,a1,1
8000bcd4:	fff5c703          	lbu	a4,-1(a1)
8000bcd8:	00178793          	addi	a5,a5,1
8000bcdc:	fee78fa3          	sb	a4,-1(a5)
8000bce0:	fe0718e3          	bnez	a4,8000bcd0 <strcpy+0x4>
8000bce4:	00008067          	ret

8000bce8 <atol>:
8000bce8:	00054783          	lbu	a5,0(a0)
8000bcec:	02000713          	li	a4,32
8000bcf0:	00e79863          	bne	a5,a4,8000bd00 <atol+0x18>
8000bcf4:	00150513          	addi	a0,a0,1
8000bcf8:	00054783          	lbu	a5,0(a0)
8000bcfc:	fee78ce3          	beq	a5,a4,8000bcf4 <atol+0xc>
8000bd00:	fd578713          	addi	a4,a5,-43
8000bd04:	0fd77713          	andi	a4,a4,253
8000bd08:	04070263          	beqz	a4,8000bd4c <atol+0x64>
8000bd0c:	00054683          	lbu	a3,0(a0)
8000bd10:	00050793          	mv	a5,a0
8000bd14:	00000613          	li	a2,0
8000bd18:	04068863          	beqz	a3,8000bd68 <atol+0x80>
8000bd1c:	00000513          	li	a0,0
8000bd20:	00178793          	addi	a5,a5,1
8000bd24:	fd068593          	addi	a1,a3,-48
8000bd28:	00251713          	slli	a4,a0,0x2
8000bd2c:	0007c683          	lbu	a3,0(a5)
8000bd30:	00a70533          	add	a0,a4,a0
8000bd34:	00151513          	slli	a0,a0,0x1
8000bd38:	00a58533          	add	a0,a1,a0
8000bd3c:	fe0692e3          	bnez	a3,8000bd20 <atol+0x38>
8000bd40:	00060463          	beqz	a2,8000bd48 <atol+0x60>
8000bd44:	40a00533          	neg	a0,a0
8000bd48:	00008067          	ret
8000bd4c:	00154683          	lbu	a3,1(a0)
8000bd50:	fd378793          	addi	a5,a5,-45
8000bd54:	0017b613          	seqz	a2,a5
8000bd58:	00150793          	addi	a5,a0,1
8000bd5c:	fc0690e3          	bnez	a3,8000bd1c <atol+0x34>
8000bd60:	00000513          	li	a0,0
8000bd64:	fddff06f          	j	8000bd40 <atol+0x58>
8000bd68:	00000513          	li	a0,0
8000bd6c:	00008067          	ret

8000bd70 <fma>:
8000bd70:	fe010113          	addi	sp,sp,-32
8000bd74:	00112e23          	sw	ra,28(sp)
8000bd78:	00e12423          	sw	a4,8(sp)
8000bd7c:	00f12623          	sw	a5,12(sp)
8000bd80:	5ac010ef          	jal	ra,8000d32c <__muldf3>
8000bd84:	00812703          	lw	a4,8(sp)
8000bd88:	00c12783          	lw	a5,12(sp)
8000bd8c:	00070613          	mv	a2,a4
8000bd90:	00078693          	mv	a3,a5
8000bd94:	495000ef          	jal	ra,8000ca28 <__adddf3>
8000bd98:	01c12083          	lw	ra,28(sp)
8000bd9c:	02010113          	addi	sp,sp,32
8000bda0:	00008067          	ret

8000bda4 <__moddi3>:
8000bda4:	00000893          	li	a7,0
8000bda8:	0005dc63          	bgez	a1,8000bdc0 <__moddi3+0x1c>
8000bdac:	40a00533          	neg	a0,a0
8000bdb0:	00a037b3          	snez	a5,a0
8000bdb4:	40b005b3          	neg	a1,a1
8000bdb8:	40f585b3          	sub	a1,a1,a5
8000bdbc:	fff00893          	li	a7,-1
8000bdc0:	0006da63          	bgez	a3,8000bdd4 <__moddi3+0x30>
8000bdc4:	40c00633          	neg	a2,a2
8000bdc8:	00c037b3          	snez	a5,a2
8000bdcc:	40d006b3          	neg	a3,a3
8000bdd0:	40f686b3          	sub	a3,a3,a5
8000bdd4:	00060813          	mv	a6,a2
8000bdd8:	00068313          	mv	t1,a3
8000bddc:	00050793          	mv	a5,a0
8000bde0:	00058713          	mv	a4,a1
8000bde4:	24069663          	bnez	a3,8000c030 <__moddi3+0x28c>
8000bde8:	a8018693          	addi	a3,gp,-1408 # 8000e660 <__clz_tab>
8000bdec:	0ec5f863          	bleu	a2,a1,8000bedc <__moddi3+0x138>
8000bdf0:	00010e37          	lui	t3,0x10
8000bdf4:	0dc67a63          	bleu	t3,a2,8000bec8 <__moddi3+0x124>
8000bdf8:	0ff00e13          	li	t3,255
8000bdfc:	00ce7463          	bleu	a2,t3,8000be04 <__moddi3+0x60>
8000be00:	00800313          	li	t1,8
8000be04:	00665e33          	srl	t3,a2,t1
8000be08:	01c686b3          	add	a3,a3,t3
8000be0c:	0006ce03          	lbu	t3,0(a3)
8000be10:	006e0e33          	add	t3,t3,t1
8000be14:	02000313          	li	t1,32
8000be18:	41c30333          	sub	t1,t1,t3
8000be1c:	00030c63          	beqz	t1,8000be34 <__moddi3+0x90>
8000be20:	006595b3          	sll	a1,a1,t1
8000be24:	01c55e33          	srl	t3,a0,t3
8000be28:	00661833          	sll	a6,a2,t1
8000be2c:	00be6733          	or	a4,t3,a1
8000be30:	006517b3          	sll	a5,a0,t1
8000be34:	01085593          	srli	a1,a6,0x10
8000be38:	02b77633          	remu	a2,a4,a1
8000be3c:	01081513          	slli	a0,a6,0x10
8000be40:	01055513          	srli	a0,a0,0x10
8000be44:	0107d693          	srli	a3,a5,0x10
8000be48:	02b75733          	divu	a4,a4,a1
8000be4c:	01061613          	slli	a2,a2,0x10
8000be50:	00d666b3          	or	a3,a2,a3
8000be54:	02e50733          	mul	a4,a0,a4
8000be58:	00e6fa63          	bleu	a4,a3,8000be6c <__moddi3+0xc8>
8000be5c:	010686b3          	add	a3,a3,a6
8000be60:	0106e663          	bltu	a3,a6,8000be6c <__moddi3+0xc8>
8000be64:	00e6f463          	bleu	a4,a3,8000be6c <__moddi3+0xc8>
8000be68:	010686b3          	add	a3,a3,a6
8000be6c:	40e686b3          	sub	a3,a3,a4
8000be70:	02b6f733          	remu	a4,a3,a1
8000be74:	01079793          	slli	a5,a5,0x10
8000be78:	0107d793          	srli	a5,a5,0x10
8000be7c:	02b6d6b3          	divu	a3,a3,a1
8000be80:	02d506b3          	mul	a3,a0,a3
8000be84:	01071513          	slli	a0,a4,0x10
8000be88:	00f567b3          	or	a5,a0,a5
8000be8c:	00d7fa63          	bleu	a3,a5,8000bea0 <__moddi3+0xfc>
8000be90:	010787b3          	add	a5,a5,a6
8000be94:	0107e663          	bltu	a5,a6,8000bea0 <__moddi3+0xfc>
8000be98:	00d7f463          	bleu	a3,a5,8000bea0 <__moddi3+0xfc>
8000be9c:	010787b3          	add	a5,a5,a6
8000bea0:	40d787b3          	sub	a5,a5,a3
8000bea4:	0067d533          	srl	a0,a5,t1
8000bea8:	00000593          	li	a1,0
8000beac:	00088c63          	beqz	a7,8000bec4 <__moddi3+0x120>
8000beb0:	40a007b3          	neg	a5,a0
8000beb4:	00f03733          	snez	a4,a5
8000beb8:	40b005b3          	neg	a1,a1
8000bebc:	00078513          	mv	a0,a5
8000bec0:	40e585b3          	sub	a1,a1,a4
8000bec4:	00008067          	ret
8000bec8:	01000e37          	lui	t3,0x1000
8000becc:	01000313          	li	t1,16
8000bed0:	f3c66ae3          	bltu	a2,t3,8000be04 <__moddi3+0x60>
8000bed4:	01800313          	li	t1,24
8000bed8:	f2dff06f          	j	8000be04 <__moddi3+0x60>
8000bedc:	00061663          	bnez	a2,8000bee8 <__moddi3+0x144>
8000bee0:	00100813          	li	a6,1
8000bee4:	02685833          	divu	a6,a6,t1
8000bee8:	00010737          	lui	a4,0x10
8000beec:	0ae87263          	bleu	a4,a6,8000bf90 <__moddi3+0x1ec>
8000bef0:	0ff00713          	li	a4,255
8000bef4:	01077463          	bleu	a6,a4,8000befc <__moddi3+0x158>
8000bef8:	00800313          	li	t1,8
8000befc:	00685733          	srl	a4,a6,t1
8000bf00:	00e686b3          	add	a3,a3,a4
8000bf04:	0006ce03          	lbu	t3,0(a3)
8000bf08:	006e0e33          	add	t3,t3,t1
8000bf0c:	02000313          	li	t1,32
8000bf10:	41c30333          	sub	t1,t1,t3
8000bf14:	08031863          	bnez	t1,8000bfa4 <__moddi3+0x200>
8000bf18:	410585b3          	sub	a1,a1,a6
8000bf1c:	01085693          	srli	a3,a6,0x10
8000bf20:	01081513          	slli	a0,a6,0x10
8000bf24:	01055513          	srli	a0,a0,0x10
8000bf28:	0107d613          	srli	a2,a5,0x10
8000bf2c:	02d5f733          	remu	a4,a1,a3
8000bf30:	02d5d5b3          	divu	a1,a1,a3
8000bf34:	01071713          	slli	a4,a4,0x10
8000bf38:	00c76733          	or	a4,a4,a2
8000bf3c:	02b505b3          	mul	a1,a0,a1
8000bf40:	00b77a63          	bleu	a1,a4,8000bf54 <__moddi3+0x1b0>
8000bf44:	01070733          	add	a4,a4,a6
8000bf48:	01076663          	bltu	a4,a6,8000bf54 <__moddi3+0x1b0>
8000bf4c:	00b77463          	bleu	a1,a4,8000bf54 <__moddi3+0x1b0>
8000bf50:	01070733          	add	a4,a4,a6
8000bf54:	40b705b3          	sub	a1,a4,a1
8000bf58:	02d5f733          	remu	a4,a1,a3
8000bf5c:	01079793          	slli	a5,a5,0x10
8000bf60:	0107d793          	srli	a5,a5,0x10
8000bf64:	02d5d5b3          	divu	a1,a1,a3
8000bf68:	02b505b3          	mul	a1,a0,a1
8000bf6c:	01071513          	slli	a0,a4,0x10
8000bf70:	00f567b3          	or	a5,a0,a5
8000bf74:	00b7fa63          	bleu	a1,a5,8000bf88 <__moddi3+0x1e4>
8000bf78:	010787b3          	add	a5,a5,a6
8000bf7c:	0107e663          	bltu	a5,a6,8000bf88 <__moddi3+0x1e4>
8000bf80:	00b7f463          	bleu	a1,a5,8000bf88 <__moddi3+0x1e4>
8000bf84:	010787b3          	add	a5,a5,a6
8000bf88:	40b787b3          	sub	a5,a5,a1
8000bf8c:	f19ff06f          	j	8000bea4 <__moddi3+0x100>
8000bf90:	01000737          	lui	a4,0x1000
8000bf94:	01000313          	li	t1,16
8000bf98:	f6e862e3          	bltu	a6,a4,8000befc <__moddi3+0x158>
8000bf9c:	01800313          	li	t1,24
8000bfa0:	f5dff06f          	j	8000befc <__moddi3+0x158>
8000bfa4:	00681833          	sll	a6,a6,t1
8000bfa8:	01c5deb3          	srl	t4,a1,t3
8000bfac:	006517b3          	sll	a5,a0,t1
8000bfb0:	01c55e33          	srl	t3,a0,t3
8000bfb4:	01085513          	srli	a0,a6,0x10
8000bfb8:	02aed6b3          	divu	a3,t4,a0
8000bfbc:	006595b3          	sll	a1,a1,t1
8000bfc0:	00be6e33          	or	t3,t3,a1
8000bfc4:	01081593          	slli	a1,a6,0x10
8000bfc8:	0105d593          	srli	a1,a1,0x10
8000bfcc:	010e5613          	srli	a2,t3,0x10
8000bfd0:	02aef733          	remu	a4,t4,a0
8000bfd4:	02d586b3          	mul	a3,a1,a3
8000bfd8:	01071713          	slli	a4,a4,0x10
8000bfdc:	00c76733          	or	a4,a4,a2
8000bfe0:	00d77a63          	bleu	a3,a4,8000bff4 <__moddi3+0x250>
8000bfe4:	01070733          	add	a4,a4,a6
8000bfe8:	01076663          	bltu	a4,a6,8000bff4 <__moddi3+0x250>
8000bfec:	00d77463          	bleu	a3,a4,8000bff4 <__moddi3+0x250>
8000bff0:	01070733          	add	a4,a4,a6
8000bff4:	40d70633          	sub	a2,a4,a3
8000bff8:	02a67733          	remu	a4,a2,a0
8000bffc:	010e1e13          	slli	t3,t3,0x10
8000c000:	010e5e13          	srli	t3,t3,0x10
8000c004:	02a65633          	divu	a2,a2,a0
8000c008:	01071713          	slli	a4,a4,0x10
8000c00c:	02c58633          	mul	a2,a1,a2
8000c010:	01c765b3          	or	a1,a4,t3
8000c014:	00c5fa63          	bleu	a2,a1,8000c028 <__moddi3+0x284>
8000c018:	010585b3          	add	a1,a1,a6
8000c01c:	0105e663          	bltu	a1,a6,8000c028 <__moddi3+0x284>
8000c020:	00c5f463          	bleu	a2,a1,8000c028 <__moddi3+0x284>
8000c024:	010585b3          	add	a1,a1,a6
8000c028:	40c585b3          	sub	a1,a1,a2
8000c02c:	ef1ff06f          	j	8000bf1c <__moddi3+0x178>
8000c030:	e6d5eee3          	bltu	a1,a3,8000beac <__moddi3+0x108>
8000c034:	00010837          	lui	a6,0x10
8000c038:	0506fa63          	bleu	a6,a3,8000c08c <__moddi3+0x2e8>
8000c03c:	0ff00e93          	li	t4,255
8000c040:	00deb833          	sltu	a6,t4,a3
8000c044:	00381813          	slli	a6,a6,0x3
8000c048:	a8018e13          	addi	t3,gp,-1408 # 8000e660 <__clz_tab>
8000c04c:	0106d333          	srl	t1,a3,a6
8000c050:	01c30333          	add	t1,t1,t3
8000c054:	00034e83          	lbu	t4,0(t1)
8000c058:	02000e13          	li	t3,32
8000c05c:	010e8eb3          	add	t4,t4,a6
8000c060:	41de0e33          	sub	t3,t3,t4
8000c064:	020e1e63          	bnez	t3,8000c0a0 <__moddi3+0x2fc>
8000c068:	00b6e463          	bltu	a3,a1,8000c070 <__moddi3+0x2cc>
8000c06c:	00c56a63          	bltu	a0,a2,8000c080 <__moddi3+0x2dc>
8000c070:	40c507b3          	sub	a5,a0,a2
8000c074:	40d586b3          	sub	a3,a1,a3
8000c078:	00f53533          	sltu	a0,a0,a5
8000c07c:	40a68733          	sub	a4,a3,a0
8000c080:	00078513          	mv	a0,a5
8000c084:	00070593          	mv	a1,a4
8000c088:	e25ff06f          	j	8000beac <__moddi3+0x108>
8000c08c:	01000337          	lui	t1,0x1000
8000c090:	01000813          	li	a6,16
8000c094:	fa66eae3          	bltu	a3,t1,8000c048 <__moddi3+0x2a4>
8000c098:	01800813          	li	a6,24
8000c09c:	fadff06f          	j	8000c048 <__moddi3+0x2a4>
8000c0a0:	01d65733          	srl	a4,a2,t4
8000c0a4:	01c696b3          	sll	a3,a3,t3
8000c0a8:	00d766b3          	or	a3,a4,a3
8000c0ac:	01d5d7b3          	srl	a5,a1,t4
8000c0b0:	01d55733          	srl	a4,a0,t4
8000c0b4:	01c595b3          	sll	a1,a1,t3
8000c0b8:	00b76733          	or	a4,a4,a1
8000c0bc:	0106d593          	srli	a1,a3,0x10
8000c0c0:	02b7f333          	remu	t1,a5,a1
8000c0c4:	01069f13          	slli	t5,a3,0x10
8000c0c8:	010f5f13          	srli	t5,t5,0x10
8000c0cc:	01075813          	srli	a6,a4,0x10
8000c0d0:	01c61633          	sll	a2,a2,t3
8000c0d4:	01c51533          	sll	a0,a0,t3
8000c0d8:	02b7d7b3          	divu	a5,a5,a1
8000c0dc:	01031313          	slli	t1,t1,0x10
8000c0e0:	01036833          	or	a6,t1,a6
8000c0e4:	02ff0fb3          	mul	t6,t5,a5
8000c0e8:	00078313          	mv	t1,a5
8000c0ec:	01f87e63          	bleu	t6,a6,8000c108 <__moddi3+0x364>
8000c0f0:	00d80833          	add	a6,a6,a3
8000c0f4:	fff78313          	addi	t1,a5,-1
8000c0f8:	00d86863          	bltu	a6,a3,8000c108 <__moddi3+0x364>
8000c0fc:	01f87663          	bleu	t6,a6,8000c108 <__moddi3+0x364>
8000c100:	ffe78313          	addi	t1,a5,-2
8000c104:	00d80833          	add	a6,a6,a3
8000c108:	41f80833          	sub	a6,a6,t6
8000c10c:	02b87fb3          	remu	t6,a6,a1
8000c110:	02b85833          	divu	a6,a6,a1
8000c114:	010f9f93          	slli	t6,t6,0x10
8000c118:	030f05b3          	mul	a1,t5,a6
8000c11c:	01071f13          	slli	t5,a4,0x10
8000c120:	010f5f13          	srli	t5,t5,0x10
8000c124:	01efef33          	or	t5,t6,t5
8000c128:	00080713          	mv	a4,a6
8000c12c:	00bf7e63          	bleu	a1,t5,8000c148 <__moddi3+0x3a4>
8000c130:	00df0f33          	add	t5,t5,a3
8000c134:	fff80713          	addi	a4,a6,-1 # ffff <_tbss_end+0xff7b>
8000c138:	00df6863          	bltu	t5,a3,8000c148 <__moddi3+0x3a4>
8000c13c:	00bf7663          	bleu	a1,t5,8000c148 <__moddi3+0x3a4>
8000c140:	ffe80713          	addi	a4,a6,-2
8000c144:	00df0f33          	add	t5,t5,a3
8000c148:	01031313          	slli	t1,t1,0x10
8000c14c:	00010fb7          	lui	t6,0x10
8000c150:	00e36333          	or	t1,t1,a4
8000c154:	ffff8793          	addi	a5,t6,-1 # ffff <_tbss_end+0xff7b>
8000c158:	01065813          	srli	a6,a2,0x10
8000c15c:	40bf0f33          	sub	t5,t5,a1
8000c160:	00f375b3          	and	a1,t1,a5
8000c164:	01035313          	srli	t1,t1,0x10
8000c168:	00f677b3          	and	a5,a2,a5
8000c16c:	02f58733          	mul	a4,a1,a5
8000c170:	02f307b3          	mul	a5,t1,a5
8000c174:	030585b3          	mul	a1,a1,a6
8000c178:	03030333          	mul	t1,t1,a6
8000c17c:	00f585b3          	add	a1,a1,a5
8000c180:	01075813          	srli	a6,a4,0x10
8000c184:	00b80833          	add	a6,a6,a1
8000c188:	00f87463          	bleu	a5,a6,8000c190 <__moddi3+0x3ec>
8000c18c:	01f30333          	add	t1,t1,t6
8000c190:	000107b7          	lui	a5,0x10
8000c194:	fff78793          	addi	a5,a5,-1 # ffff <_tbss_end+0xff7b>
8000c198:	01085593          	srli	a1,a6,0x10
8000c19c:	00f87833          	and	a6,a6,a5
8000c1a0:	01081813          	slli	a6,a6,0x10
8000c1a4:	00f77733          	and	a4,a4,a5
8000c1a8:	006585b3          	add	a1,a1,t1
8000c1ac:	00e80733          	add	a4,a6,a4
8000c1b0:	00bf6663          	bltu	t5,a1,8000c1bc <__moddi3+0x418>
8000c1b4:	00bf1e63          	bne	t5,a1,8000c1d0 <__moddi3+0x42c>
8000c1b8:	00e57c63          	bleu	a4,a0,8000c1d0 <__moddi3+0x42c>
8000c1bc:	40c70633          	sub	a2,a4,a2
8000c1c0:	00c73733          	sltu	a4,a4,a2
8000c1c4:	40d585b3          	sub	a1,a1,a3
8000c1c8:	40e585b3          	sub	a1,a1,a4
8000c1cc:	00060713          	mv	a4,a2
8000c1d0:	40e50733          	sub	a4,a0,a4
8000c1d4:	00e53533          	sltu	a0,a0,a4
8000c1d8:	40bf05b3          	sub	a1,t5,a1
8000c1dc:	40a585b3          	sub	a1,a1,a0
8000c1e0:	01d597b3          	sll	a5,a1,t4
8000c1e4:	01c75733          	srl	a4,a4,t3
8000c1e8:	00e7e533          	or	a0,a5,a4
8000c1ec:	01c5d5b3          	srl	a1,a1,t3
8000c1f0:	cbdff06f          	j	8000beac <__moddi3+0x108>

8000c1f4 <__udivdi3>:
8000c1f4:	00058793          	mv	a5,a1
8000c1f8:	00060813          	mv	a6,a2
8000c1fc:	00068893          	mv	a7,a3
8000c200:	00050313          	mv	t1,a0
8000c204:	28069463          	bnez	a3,8000c48c <__udivdi3+0x298>
8000c208:	a8018713          	addi	a4,gp,-1408 # 8000e660 <__clz_tab>
8000c20c:	0ec5f663          	bleu	a2,a1,8000c2f8 <__udivdi3+0x104>
8000c210:	000106b7          	lui	a3,0x10
8000c214:	0cd67863          	bleu	a3,a2,8000c2e4 <__udivdi3+0xf0>
8000c218:	0ff00693          	li	a3,255
8000c21c:	00c6b6b3          	sltu	a3,a3,a2
8000c220:	00369693          	slli	a3,a3,0x3
8000c224:	00d658b3          	srl	a7,a2,a3
8000c228:	01170733          	add	a4,a4,a7
8000c22c:	00074703          	lbu	a4,0(a4) # 1000000 <_tbss_end+0xffff7c>
8000c230:	00d706b3          	add	a3,a4,a3
8000c234:	02000713          	li	a4,32
8000c238:	40d70733          	sub	a4,a4,a3
8000c23c:	00070c63          	beqz	a4,8000c254 <__udivdi3+0x60>
8000c240:	00e797b3          	sll	a5,a5,a4
8000c244:	00d556b3          	srl	a3,a0,a3
8000c248:	00e61833          	sll	a6,a2,a4
8000c24c:	00f6e5b3          	or	a1,a3,a5
8000c250:	00e51333          	sll	t1,a0,a4
8000c254:	01085513          	srli	a0,a6,0x10
8000c258:	02a5d7b3          	divu	a5,a1,a0
8000c25c:	01081613          	slli	a2,a6,0x10
8000c260:	01065613          	srli	a2,a2,0x10
8000c264:	01035693          	srli	a3,t1,0x10
8000c268:	02a5f733          	remu	a4,a1,a0
8000c26c:	02f605b3          	mul	a1,a2,a5
8000c270:	01071713          	slli	a4,a4,0x10
8000c274:	00d766b3          	or	a3,a4,a3
8000c278:	00078713          	mv	a4,a5
8000c27c:	00b6fe63          	bleu	a1,a3,8000c298 <__udivdi3+0xa4>
8000c280:	010686b3          	add	a3,a3,a6
8000c284:	fff78713          	addi	a4,a5,-1
8000c288:	0106e863          	bltu	a3,a6,8000c298 <__udivdi3+0xa4>
8000c28c:	00b6f663          	bleu	a1,a3,8000c298 <__udivdi3+0xa4>
8000c290:	ffe78713          	addi	a4,a5,-2
8000c294:	010686b3          	add	a3,a3,a6
8000c298:	40b686b3          	sub	a3,a3,a1
8000c29c:	02a6f7b3          	remu	a5,a3,a0
8000c2a0:	01031313          	slli	t1,t1,0x10
8000c2a4:	01035313          	srli	t1,t1,0x10
8000c2a8:	02a6d6b3          	divu	a3,a3,a0
8000c2ac:	01079793          	slli	a5,a5,0x10
8000c2b0:	0067e333          	or	t1,a5,t1
8000c2b4:	02d605b3          	mul	a1,a2,a3
8000c2b8:	00068513          	mv	a0,a3
8000c2bc:	00b37c63          	bleu	a1,t1,8000c2d4 <__udivdi3+0xe0>
8000c2c0:	00680333          	add	t1,a6,t1
8000c2c4:	fff68513          	addi	a0,a3,-1 # ffff <_tbss_end+0xff7b>
8000c2c8:	01036663          	bltu	t1,a6,8000c2d4 <__udivdi3+0xe0>
8000c2cc:	00b37463          	bleu	a1,t1,8000c2d4 <__udivdi3+0xe0>
8000c2d0:	ffe68513          	addi	a0,a3,-2
8000c2d4:	01071713          	slli	a4,a4,0x10
8000c2d8:	00a76733          	or	a4,a4,a0
8000c2dc:	00000593          	li	a1,0
8000c2e0:	0e40006f          	j	8000c3c4 <__udivdi3+0x1d0>
8000c2e4:	010008b7          	lui	a7,0x1000
8000c2e8:	01000693          	li	a3,16
8000c2ec:	f3166ce3          	bltu	a2,a7,8000c224 <__udivdi3+0x30>
8000c2f0:	01800693          	li	a3,24
8000c2f4:	f31ff06f          	j	8000c224 <__udivdi3+0x30>
8000c2f8:	00061663          	bnez	a2,8000c304 <__udivdi3+0x110>
8000c2fc:	00100693          	li	a3,1
8000c300:	02c6d833          	divu	a6,a3,a2
8000c304:	000106b7          	lui	a3,0x10
8000c308:	0cd87263          	bleu	a3,a6,8000c3cc <__udivdi3+0x1d8>
8000c30c:	0ff00693          	li	a3,255
8000c310:	0106f463          	bleu	a6,a3,8000c318 <__udivdi3+0x124>
8000c314:	00800893          	li	a7,8
8000c318:	011856b3          	srl	a3,a6,a7
8000c31c:	00d70733          	add	a4,a4,a3
8000c320:	00074683          	lbu	a3,0(a4)
8000c324:	02000713          	li	a4,32
8000c328:	011686b3          	add	a3,a3,a7
8000c32c:	40d70733          	sub	a4,a4,a3
8000c330:	0a071863          	bnez	a4,8000c3e0 <__udivdi3+0x1ec>
8000c334:	410787b3          	sub	a5,a5,a6
8000c338:	00100593          	li	a1,1
8000c33c:	01085613          	srli	a2,a6,0x10
8000c340:	01081893          	slli	a7,a6,0x10
8000c344:	0108d893          	srli	a7,a7,0x10
8000c348:	01035693          	srli	a3,t1,0x10
8000c34c:	02c7f733          	remu	a4,a5,a2
8000c350:	02c7d7b3          	divu	a5,a5,a2
8000c354:	01071713          	slli	a4,a4,0x10
8000c358:	00d766b3          	or	a3,a4,a3
8000c35c:	02f88533          	mul	a0,a7,a5
8000c360:	00078713          	mv	a4,a5
8000c364:	00a6fe63          	bleu	a0,a3,8000c380 <__udivdi3+0x18c>
8000c368:	010686b3          	add	a3,a3,a6
8000c36c:	fff78713          	addi	a4,a5,-1
8000c370:	0106e863          	bltu	a3,a6,8000c380 <__udivdi3+0x18c>
8000c374:	00a6f663          	bleu	a0,a3,8000c380 <__udivdi3+0x18c>
8000c378:	ffe78713          	addi	a4,a5,-2
8000c37c:	010686b3          	add	a3,a3,a6
8000c380:	40a686b3          	sub	a3,a3,a0
8000c384:	02c6f7b3          	remu	a5,a3,a2
8000c388:	01031313          	slli	t1,t1,0x10
8000c38c:	01035313          	srli	t1,t1,0x10
8000c390:	02c6d6b3          	divu	a3,a3,a2
8000c394:	01079793          	slli	a5,a5,0x10
8000c398:	0067e333          	or	t1,a5,t1
8000c39c:	02d888b3          	mul	a7,a7,a3
8000c3a0:	00068513          	mv	a0,a3
8000c3a4:	01137c63          	bleu	a7,t1,8000c3bc <__udivdi3+0x1c8>
8000c3a8:	00680333          	add	t1,a6,t1
8000c3ac:	fff68513          	addi	a0,a3,-1 # ffff <_tbss_end+0xff7b>
8000c3b0:	01036663          	bltu	t1,a6,8000c3bc <__udivdi3+0x1c8>
8000c3b4:	01137463          	bleu	a7,t1,8000c3bc <__udivdi3+0x1c8>
8000c3b8:	ffe68513          	addi	a0,a3,-2
8000c3bc:	01071713          	slli	a4,a4,0x10
8000c3c0:	00a76733          	or	a4,a4,a0
8000c3c4:	00070513          	mv	a0,a4
8000c3c8:	00008067          	ret
8000c3cc:	010006b7          	lui	a3,0x1000
8000c3d0:	01000893          	li	a7,16
8000c3d4:	f4d862e3          	bltu	a6,a3,8000c318 <__udivdi3+0x124>
8000c3d8:	01800893          	li	a7,24
8000c3dc:	f3dff06f          	j	8000c318 <__udivdi3+0x124>
8000c3e0:	00e81833          	sll	a6,a6,a4
8000c3e4:	00d7d5b3          	srl	a1,a5,a3
8000c3e8:	00e51333          	sll	t1,a0,a4
8000c3ec:	00d556b3          	srl	a3,a0,a3
8000c3f0:	01085513          	srli	a0,a6,0x10
8000c3f4:	00e797b3          	sll	a5,a5,a4
8000c3f8:	02a5f733          	remu	a4,a1,a0
8000c3fc:	00f6e8b3          	or	a7,a3,a5
8000c400:	01081793          	slli	a5,a6,0x10
8000c404:	0107d793          	srli	a5,a5,0x10
8000c408:	0108d613          	srli	a2,a7,0x10
8000c40c:	02a5d5b3          	divu	a1,a1,a0
8000c410:	01071713          	slli	a4,a4,0x10
8000c414:	00c76733          	or	a4,a4,a2
8000c418:	02b786b3          	mul	a3,a5,a1
8000c41c:	00058613          	mv	a2,a1
8000c420:	00d77e63          	bleu	a3,a4,8000c43c <__udivdi3+0x248>
8000c424:	01070733          	add	a4,a4,a6
8000c428:	fff58613          	addi	a2,a1,-1
8000c42c:	01076863          	bltu	a4,a6,8000c43c <__udivdi3+0x248>
8000c430:	00d77663          	bleu	a3,a4,8000c43c <__udivdi3+0x248>
8000c434:	ffe58613          	addi	a2,a1,-2
8000c438:	01070733          	add	a4,a4,a6
8000c43c:	40d706b3          	sub	a3,a4,a3
8000c440:	02a6f733          	remu	a4,a3,a0
8000c444:	01089893          	slli	a7,a7,0x10
8000c448:	0108d893          	srli	a7,a7,0x10
8000c44c:	02a6d6b3          	divu	a3,a3,a0
8000c450:	01071713          	slli	a4,a4,0x10
8000c454:	02d785b3          	mul	a1,a5,a3
8000c458:	011767b3          	or	a5,a4,a7
8000c45c:	00068713          	mv	a4,a3
8000c460:	00b7fe63          	bleu	a1,a5,8000c47c <__udivdi3+0x288>
8000c464:	010787b3          	add	a5,a5,a6
8000c468:	fff68713          	addi	a4,a3,-1 # ffffff <_tbss_end+0xffff7b>
8000c46c:	0107e863          	bltu	a5,a6,8000c47c <__udivdi3+0x288>
8000c470:	00b7f663          	bleu	a1,a5,8000c47c <__udivdi3+0x288>
8000c474:	ffe68713          	addi	a4,a3,-2
8000c478:	010787b3          	add	a5,a5,a6
8000c47c:	40b787b3          	sub	a5,a5,a1
8000c480:	01061593          	slli	a1,a2,0x10
8000c484:	00e5e5b3          	or	a1,a1,a4
8000c488:	eb5ff06f          	j	8000c33c <__udivdi3+0x148>
8000c48c:	18d5e463          	bltu	a1,a3,8000c614 <__udivdi3+0x420>
8000c490:	00010737          	lui	a4,0x10
8000c494:	04e6f263          	bleu	a4,a3,8000c4d8 <__udivdi3+0x2e4>
8000c498:	0ff00813          	li	a6,255
8000c49c:	00d83733          	sltu	a4,a6,a3
8000c4a0:	00371713          	slli	a4,a4,0x3
8000c4a4:	a8018813          	addi	a6,gp,-1408 # 8000e660 <__clz_tab>
8000c4a8:	00e6d5b3          	srl	a1,a3,a4
8000c4ac:	010585b3          	add	a1,a1,a6
8000c4b0:	0005c803          	lbu	a6,0(a1)
8000c4b4:	02000593          	li	a1,32
8000c4b8:	00e80833          	add	a6,a6,a4
8000c4bc:	410585b3          	sub	a1,a1,a6
8000c4c0:	02059663          	bnez	a1,8000c4ec <__udivdi3+0x2f8>
8000c4c4:	00100713          	li	a4,1
8000c4c8:	eef6eee3          	bltu	a3,a5,8000c3c4 <__udivdi3+0x1d0>
8000c4cc:	00c53533          	sltu	a0,a0,a2
8000c4d0:	00154713          	xori	a4,a0,1
8000c4d4:	ef1ff06f          	j	8000c3c4 <__udivdi3+0x1d0>
8000c4d8:	010005b7          	lui	a1,0x1000
8000c4dc:	01000713          	li	a4,16
8000c4e0:	fcb6e2e3          	bltu	a3,a1,8000c4a4 <__udivdi3+0x2b0>
8000c4e4:	01800713          	li	a4,24
8000c4e8:	fbdff06f          	j	8000c4a4 <__udivdi3+0x2b0>
8000c4ec:	01065733          	srl	a4,a2,a6
8000c4f0:	00b696b3          	sll	a3,a3,a1
8000c4f4:	00d766b3          	or	a3,a4,a3
8000c4f8:	0106de93          	srli	t4,a3,0x10
8000c4fc:	0107d733          	srl	a4,a5,a6
8000c500:	03d778b3          	remu	a7,a4,t4
8000c504:	00b797b3          	sll	a5,a5,a1
8000c508:	01055833          	srl	a6,a0,a6
8000c50c:	00f86333          	or	t1,a6,a5
8000c510:	01069793          	slli	a5,a3,0x10
8000c514:	0107d793          	srli	a5,a5,0x10
8000c518:	01035813          	srli	a6,t1,0x10
8000c51c:	00b61633          	sll	a2,a2,a1
8000c520:	03d75733          	divu	a4,a4,t4
8000c524:	01089893          	slli	a7,a7,0x10
8000c528:	0108e833          	or	a6,a7,a6
8000c52c:	02e78f33          	mul	t5,a5,a4
8000c530:	00070e13          	mv	t3,a4
8000c534:	01e87e63          	bleu	t5,a6,8000c550 <__udivdi3+0x35c>
8000c538:	00d80833          	add	a6,a6,a3
8000c53c:	fff70e13          	addi	t3,a4,-1 # ffff <_tbss_end+0xff7b>
8000c540:	00d86863          	bltu	a6,a3,8000c550 <__udivdi3+0x35c>
8000c544:	01e87663          	bleu	t5,a6,8000c550 <__udivdi3+0x35c>
8000c548:	ffe70e13          	addi	t3,a4,-2
8000c54c:	00d80833          	add	a6,a6,a3
8000c550:	41e80833          	sub	a6,a6,t5
8000c554:	03d878b3          	remu	a7,a6,t4
8000c558:	03d85833          	divu	a6,a6,t4
8000c55c:	01089893          	slli	a7,a7,0x10
8000c560:	03078eb3          	mul	t4,a5,a6
8000c564:	01031793          	slli	a5,t1,0x10
8000c568:	0107d793          	srli	a5,a5,0x10
8000c56c:	00f8e7b3          	or	a5,a7,a5
8000c570:	00080713          	mv	a4,a6
8000c574:	01d7fe63          	bleu	t4,a5,8000c590 <__udivdi3+0x39c>
8000c578:	00d787b3          	add	a5,a5,a3
8000c57c:	fff80713          	addi	a4,a6,-1
8000c580:	00d7e863          	bltu	a5,a3,8000c590 <__udivdi3+0x39c>
8000c584:	01d7f663          	bleu	t4,a5,8000c590 <__udivdi3+0x39c>
8000c588:	ffe80713          	addi	a4,a6,-2
8000c58c:	00d787b3          	add	a5,a5,a3
8000c590:	010e1e13          	slli	t3,t3,0x10
8000c594:	41d787b3          	sub	a5,a5,t4
8000c598:	00010eb7          	lui	t4,0x10
8000c59c:	00ee6733          	or	a4,t3,a4
8000c5a0:	fffe8813          	addi	a6,t4,-1 # ffff <_tbss_end+0xff7b>
8000c5a4:	01077333          	and	t1,a4,a6
8000c5a8:	01075893          	srli	a7,a4,0x10
8000c5ac:	01067833          	and	a6,a2,a6
8000c5b0:	01065613          	srli	a2,a2,0x10
8000c5b4:	03030e33          	mul	t3,t1,a6
8000c5b8:	03088833          	mul	a6,a7,a6
8000c5bc:	010e5693          	srli	a3,t3,0x10
8000c5c0:	02c30333          	mul	t1,t1,a2
8000c5c4:	01030333          	add	t1,t1,a6
8000c5c8:	006686b3          	add	a3,a3,t1
8000c5cc:	02c888b3          	mul	a7,a7,a2
8000c5d0:	0106f463          	bleu	a6,a3,8000c5d8 <__udivdi3+0x3e4>
8000c5d4:	01d888b3          	add	a7,a7,t4
8000c5d8:	0106d613          	srli	a2,a3,0x10
8000c5dc:	011608b3          	add	a7,a2,a7
8000c5e0:	0317e663          	bltu	a5,a7,8000c60c <__udivdi3+0x418>
8000c5e4:	cf179ce3          	bne	a5,a7,8000c2dc <__udivdi3+0xe8>
8000c5e8:	000107b7          	lui	a5,0x10
8000c5ec:	fff78793          	addi	a5,a5,-1 # ffff <_tbss_end+0xff7b>
8000c5f0:	00f6f6b3          	and	a3,a3,a5
8000c5f4:	01069693          	slli	a3,a3,0x10
8000c5f8:	00fe7e33          	and	t3,t3,a5
8000c5fc:	00b51533          	sll	a0,a0,a1
8000c600:	01c686b3          	add	a3,a3,t3
8000c604:	00000593          	li	a1,0
8000c608:	dad57ee3          	bleu	a3,a0,8000c3c4 <__udivdi3+0x1d0>
8000c60c:	fff70713          	addi	a4,a4,-1
8000c610:	ccdff06f          	j	8000c2dc <__udivdi3+0xe8>
8000c614:	00000593          	li	a1,0
8000c618:	00000713          	li	a4,0
8000c61c:	da9ff06f          	j	8000c3c4 <__udivdi3+0x1d0>

8000c620 <__umoddi3>:
8000c620:	00060893          	mv	a7,a2
8000c624:	00068713          	mv	a4,a3
8000c628:	00050793          	mv	a5,a0
8000c62c:	00058813          	mv	a6,a1
8000c630:	22069a63          	bnez	a3,8000c864 <__umoddi3+0x244>
8000c634:	a8018693          	addi	a3,gp,-1408 # 8000e660 <__clz_tab>
8000c638:	0cc5fc63          	bleu	a2,a1,8000c710 <__umoddi3+0xf0>
8000c63c:	00010337          	lui	t1,0x10
8000c640:	0a667e63          	bleu	t1,a2,8000c6fc <__umoddi3+0xdc>
8000c644:	0ff00313          	li	t1,255
8000c648:	00c37463          	bleu	a2,t1,8000c650 <__umoddi3+0x30>
8000c64c:	00800713          	li	a4,8
8000c650:	00e65333          	srl	t1,a2,a4
8000c654:	006686b3          	add	a3,a3,t1
8000c658:	0006ce03          	lbu	t3,0(a3)
8000c65c:	02000313          	li	t1,32
8000c660:	00ee0e33          	add	t3,t3,a4
8000c664:	41c30333          	sub	t1,t1,t3
8000c668:	00030c63          	beqz	t1,8000c680 <__umoddi3+0x60>
8000c66c:	006595b3          	sll	a1,a1,t1
8000c670:	01c55e33          	srl	t3,a0,t3
8000c674:	006618b3          	sll	a7,a2,t1
8000c678:	00be6833          	or	a6,t3,a1
8000c67c:	006517b3          	sll	a5,a0,t1
8000c680:	0108d613          	srli	a2,a7,0x10
8000c684:	02c87733          	remu	a4,a6,a2
8000c688:	01089513          	slli	a0,a7,0x10
8000c68c:	01055513          	srli	a0,a0,0x10
8000c690:	0107d693          	srli	a3,a5,0x10
8000c694:	02c85833          	divu	a6,a6,a2
8000c698:	01071713          	slli	a4,a4,0x10
8000c69c:	00d766b3          	or	a3,a4,a3
8000c6a0:	03050833          	mul	a6,a0,a6
8000c6a4:	0106fa63          	bleu	a6,a3,8000c6b8 <__umoddi3+0x98>
8000c6a8:	011686b3          	add	a3,a3,a7
8000c6ac:	0116e663          	bltu	a3,a7,8000c6b8 <__umoddi3+0x98>
8000c6b0:	0106f463          	bleu	a6,a3,8000c6b8 <__umoddi3+0x98>
8000c6b4:	011686b3          	add	a3,a3,a7
8000c6b8:	410686b3          	sub	a3,a3,a6
8000c6bc:	02c6f733          	remu	a4,a3,a2
8000c6c0:	01079793          	slli	a5,a5,0x10
8000c6c4:	0107d793          	srli	a5,a5,0x10
8000c6c8:	02c6d6b3          	divu	a3,a3,a2
8000c6cc:	02d506b3          	mul	a3,a0,a3
8000c6d0:	01071513          	slli	a0,a4,0x10
8000c6d4:	00f567b3          	or	a5,a0,a5
8000c6d8:	00d7fa63          	bleu	a3,a5,8000c6ec <__umoddi3+0xcc>
8000c6dc:	011787b3          	add	a5,a5,a7
8000c6e0:	0117e663          	bltu	a5,a7,8000c6ec <__umoddi3+0xcc>
8000c6e4:	00d7f463          	bleu	a3,a5,8000c6ec <__umoddi3+0xcc>
8000c6e8:	011787b3          	add	a5,a5,a7
8000c6ec:	40d787b3          	sub	a5,a5,a3
8000c6f0:	0067d533          	srl	a0,a5,t1
8000c6f4:	00000593          	li	a1,0
8000c6f8:	00008067          	ret
8000c6fc:	01000337          	lui	t1,0x1000
8000c700:	01000713          	li	a4,16
8000c704:	f46666e3          	bltu	a2,t1,8000c650 <__umoddi3+0x30>
8000c708:	01800713          	li	a4,24
8000c70c:	f45ff06f          	j	8000c650 <__umoddi3+0x30>
8000c710:	00061663          	bnez	a2,8000c71c <__umoddi3+0xfc>
8000c714:	00100613          	li	a2,1
8000c718:	031658b3          	divu	a7,a2,a7
8000c71c:	00010637          	lui	a2,0x10
8000c720:	0ac8f263          	bleu	a2,a7,8000c7c4 <__umoddi3+0x1a4>
8000c724:	0ff00613          	li	a2,255
8000c728:	01167463          	bleu	a7,a2,8000c730 <__umoddi3+0x110>
8000c72c:	00800713          	li	a4,8
8000c730:	00e8d633          	srl	a2,a7,a4
8000c734:	00c686b3          	add	a3,a3,a2
8000c738:	0006ce03          	lbu	t3,0(a3)
8000c73c:	02000313          	li	t1,32
8000c740:	00ee0e33          	add	t3,t3,a4
8000c744:	41c30333          	sub	t1,t1,t3
8000c748:	08031863          	bnez	t1,8000c7d8 <__umoddi3+0x1b8>
8000c74c:	411585b3          	sub	a1,a1,a7
8000c750:	0108d713          	srli	a4,a7,0x10
8000c754:	01089513          	slli	a0,a7,0x10
8000c758:	01055513          	srli	a0,a0,0x10
8000c75c:	0107d613          	srli	a2,a5,0x10
8000c760:	02e5f6b3          	remu	a3,a1,a4
8000c764:	02e5d5b3          	divu	a1,a1,a4
8000c768:	01069693          	slli	a3,a3,0x10
8000c76c:	00c6e6b3          	or	a3,a3,a2
8000c770:	02b505b3          	mul	a1,a0,a1
8000c774:	00b6fa63          	bleu	a1,a3,8000c788 <__umoddi3+0x168>
8000c778:	011686b3          	add	a3,a3,a7
8000c77c:	0116e663          	bltu	a3,a7,8000c788 <__umoddi3+0x168>
8000c780:	00b6f463          	bleu	a1,a3,8000c788 <__umoddi3+0x168>
8000c784:	011686b3          	add	a3,a3,a7
8000c788:	40b685b3          	sub	a1,a3,a1
8000c78c:	02e5f6b3          	remu	a3,a1,a4
8000c790:	01079793          	slli	a5,a5,0x10
8000c794:	0107d793          	srli	a5,a5,0x10
8000c798:	02e5d5b3          	divu	a1,a1,a4
8000c79c:	02b505b3          	mul	a1,a0,a1
8000c7a0:	01069513          	slli	a0,a3,0x10
8000c7a4:	00f567b3          	or	a5,a0,a5
8000c7a8:	00b7fa63          	bleu	a1,a5,8000c7bc <__umoddi3+0x19c>
8000c7ac:	011787b3          	add	a5,a5,a7
8000c7b0:	0117e663          	bltu	a5,a7,8000c7bc <__umoddi3+0x19c>
8000c7b4:	00b7f463          	bleu	a1,a5,8000c7bc <__umoddi3+0x19c>
8000c7b8:	011787b3          	add	a5,a5,a7
8000c7bc:	40b787b3          	sub	a5,a5,a1
8000c7c0:	f31ff06f          	j	8000c6f0 <__umoddi3+0xd0>
8000c7c4:	01000637          	lui	a2,0x1000
8000c7c8:	01000713          	li	a4,16
8000c7cc:	f6c8e2e3          	bltu	a7,a2,8000c730 <__umoddi3+0x110>
8000c7d0:	01800713          	li	a4,24
8000c7d4:	f5dff06f          	j	8000c730 <__umoddi3+0x110>
8000c7d8:	006898b3          	sll	a7,a7,t1
8000c7dc:	01c5d733          	srl	a4,a1,t3
8000c7e0:	006517b3          	sll	a5,a0,t1
8000c7e4:	01c55e33          	srl	t3,a0,t3
8000c7e8:	0108d513          	srli	a0,a7,0x10
8000c7ec:	02a776b3          	remu	a3,a4,a0
8000c7f0:	006595b3          	sll	a1,a1,t1
8000c7f4:	00be6e33          	or	t3,t3,a1
8000c7f8:	01089593          	slli	a1,a7,0x10
8000c7fc:	0105d593          	srli	a1,a1,0x10
8000c800:	010e5613          	srli	a2,t3,0x10
8000c804:	02a75733          	divu	a4,a4,a0
8000c808:	01069693          	slli	a3,a3,0x10
8000c80c:	00c6e6b3          	or	a3,a3,a2
8000c810:	02e58733          	mul	a4,a1,a4
8000c814:	00e6fa63          	bleu	a4,a3,8000c828 <__umoddi3+0x208>
8000c818:	011686b3          	add	a3,a3,a7
8000c81c:	0116e663          	bltu	a3,a7,8000c828 <__umoddi3+0x208>
8000c820:	00e6f463          	bleu	a4,a3,8000c828 <__umoddi3+0x208>
8000c824:	011686b3          	add	a3,a3,a7
8000c828:	40e68633          	sub	a2,a3,a4
8000c82c:	02a676b3          	remu	a3,a2,a0
8000c830:	010e1e13          	slli	t3,t3,0x10
8000c834:	010e5e13          	srli	t3,t3,0x10
8000c838:	02a65633          	divu	a2,a2,a0
8000c83c:	01069693          	slli	a3,a3,0x10
8000c840:	02c58633          	mul	a2,a1,a2
8000c844:	01c6e5b3          	or	a1,a3,t3
8000c848:	00c5fa63          	bleu	a2,a1,8000c85c <__umoddi3+0x23c>
8000c84c:	011585b3          	add	a1,a1,a7
8000c850:	0115e663          	bltu	a1,a7,8000c85c <__umoddi3+0x23c>
8000c854:	00c5f463          	bleu	a2,a1,8000c85c <__umoddi3+0x23c>
8000c858:	011585b3          	add	a1,a1,a7
8000c85c:	40c585b3          	sub	a1,a1,a2
8000c860:	ef1ff06f          	j	8000c750 <__umoddi3+0x130>
8000c864:	e8d5eae3          	bltu	a1,a3,8000c6f8 <__umoddi3+0xd8>
8000c868:	00010737          	lui	a4,0x10
8000c86c:	04e6fa63          	bleu	a4,a3,8000c8c0 <__umoddi3+0x2a0>
8000c870:	0ff00e93          	li	t4,255
8000c874:	00deb733          	sltu	a4,t4,a3
8000c878:	00371713          	slli	a4,a4,0x3
8000c87c:	00e6d8b3          	srl	a7,a3,a4
8000c880:	a8018313          	addi	t1,gp,-1408 # 8000e660 <__clz_tab>
8000c884:	006888b3          	add	a7,a7,t1
8000c888:	0008ce83          	lbu	t4,0(a7) # 1000000 <_tbss_end+0xffff7c>
8000c88c:	02000e13          	li	t3,32
8000c890:	00ee8eb3          	add	t4,t4,a4
8000c894:	41de0e33          	sub	t3,t3,t4
8000c898:	020e1e63          	bnez	t3,8000c8d4 <__umoddi3+0x2b4>
8000c89c:	00b6e463          	bltu	a3,a1,8000c8a4 <__umoddi3+0x284>
8000c8a0:	00c56a63          	bltu	a0,a2,8000c8b4 <__umoddi3+0x294>
8000c8a4:	40c507b3          	sub	a5,a0,a2
8000c8a8:	40d585b3          	sub	a1,a1,a3
8000c8ac:	00f53533          	sltu	a0,a0,a5
8000c8b0:	40a58833          	sub	a6,a1,a0
8000c8b4:	00078513          	mv	a0,a5
8000c8b8:	00080593          	mv	a1,a6
8000c8bc:	e3dff06f          	j	8000c6f8 <__umoddi3+0xd8>
8000c8c0:	010008b7          	lui	a7,0x1000
8000c8c4:	01000713          	li	a4,16
8000c8c8:	fb16eae3          	bltu	a3,a7,8000c87c <__umoddi3+0x25c>
8000c8cc:	01800713          	li	a4,24
8000c8d0:	fadff06f          	j	8000c87c <__umoddi3+0x25c>
8000c8d4:	01d65733          	srl	a4,a2,t4
8000c8d8:	01c696b3          	sll	a3,a3,t3
8000c8dc:	00d766b3          	or	a3,a4,a3
8000c8e0:	01d557b3          	srl	a5,a0,t4
8000c8e4:	01d5d733          	srl	a4,a1,t4
8000c8e8:	01c595b3          	sll	a1,a1,t3
8000c8ec:	00b7e7b3          	or	a5,a5,a1
8000c8f0:	0106d593          	srli	a1,a3,0x10
8000c8f4:	02b77333          	remu	t1,a4,a1
8000c8f8:	01069f13          	slli	t5,a3,0x10
8000c8fc:	010f5f13          	srli	t5,t5,0x10
8000c900:	0107d893          	srli	a7,a5,0x10
8000c904:	01c61633          	sll	a2,a2,t3
8000c908:	01c51533          	sll	a0,a0,t3
8000c90c:	02b75733          	divu	a4,a4,a1
8000c910:	01031313          	slli	t1,t1,0x10
8000c914:	011368b3          	or	a7,t1,a7
8000c918:	02ef0833          	mul	a6,t5,a4
8000c91c:	00070313          	mv	t1,a4
8000c920:	0108fe63          	bleu	a6,a7,8000c93c <__umoddi3+0x31c>
8000c924:	00d888b3          	add	a7,a7,a3
8000c928:	fff70313          	addi	t1,a4,-1 # ffff <_tbss_end+0xff7b>
8000c92c:	00d8e863          	bltu	a7,a3,8000c93c <__umoddi3+0x31c>
8000c930:	0108f663          	bleu	a6,a7,8000c93c <__umoddi3+0x31c>
8000c934:	ffe70313          	addi	t1,a4,-2
8000c938:	00d888b3          	add	a7,a7,a3
8000c93c:	410888b3          	sub	a7,a7,a6
8000c940:	02b8ffb3          	remu	t6,a7,a1
8000c944:	02b8d8b3          	divu	a7,a7,a1
8000c948:	010f9f93          	slli	t6,t6,0x10
8000c94c:	031f05b3          	mul	a1,t5,a7
8000c950:	01079f13          	slli	t5,a5,0x10
8000c954:	010f5f13          	srli	t5,t5,0x10
8000c958:	01efef33          	or	t5,t6,t5
8000c95c:	00088713          	mv	a4,a7
8000c960:	00bf7e63          	bleu	a1,t5,8000c97c <__umoddi3+0x35c>
8000c964:	00df0f33          	add	t5,t5,a3
8000c968:	fff88713          	addi	a4,a7,-1 # ffffff <_tbss_end+0xffff7b>
8000c96c:	00df6863          	bltu	t5,a3,8000c97c <__umoddi3+0x35c>
8000c970:	00bf7663          	bleu	a1,t5,8000c97c <__umoddi3+0x35c>
8000c974:	ffe88713          	addi	a4,a7,-2
8000c978:	00df0f33          	add	t5,t5,a3
8000c97c:	01031313          	slli	t1,t1,0x10
8000c980:	000108b7          	lui	a7,0x10
8000c984:	00e36333          	or	t1,t1,a4
8000c988:	fff88793          	addi	a5,a7,-1 # ffff <_tbss_end+0xff7b>
8000c98c:	01065813          	srli	a6,a2,0x10
8000c990:	40bf0f33          	sub	t5,t5,a1
8000c994:	00f375b3          	and	a1,t1,a5
8000c998:	01035313          	srli	t1,t1,0x10
8000c99c:	00f677b3          	and	a5,a2,a5
8000c9a0:	02f58733          	mul	a4,a1,a5
8000c9a4:	02f307b3          	mul	a5,t1,a5
8000c9a8:	030585b3          	mul	a1,a1,a6
8000c9ac:	03030333          	mul	t1,t1,a6
8000c9b0:	00f585b3          	add	a1,a1,a5
8000c9b4:	01075813          	srli	a6,a4,0x10
8000c9b8:	00b80833          	add	a6,a6,a1
8000c9bc:	00f87463          	bleu	a5,a6,8000c9c4 <__umoddi3+0x3a4>
8000c9c0:	01130333          	add	t1,t1,a7
8000c9c4:	000107b7          	lui	a5,0x10
8000c9c8:	fff78793          	addi	a5,a5,-1 # ffff <_tbss_end+0xff7b>
8000c9cc:	01085593          	srli	a1,a6,0x10
8000c9d0:	00f87833          	and	a6,a6,a5
8000c9d4:	01081813          	slli	a6,a6,0x10
8000c9d8:	00f77733          	and	a4,a4,a5
8000c9dc:	006585b3          	add	a1,a1,t1
8000c9e0:	00e80733          	add	a4,a6,a4
8000c9e4:	00bf6663          	bltu	t5,a1,8000c9f0 <__umoddi3+0x3d0>
8000c9e8:	00bf1e63          	bne	t5,a1,8000ca04 <__umoddi3+0x3e4>
8000c9ec:	00e57c63          	bleu	a4,a0,8000ca04 <__umoddi3+0x3e4>
8000c9f0:	40c70633          	sub	a2,a4,a2
8000c9f4:	00c73733          	sltu	a4,a4,a2
8000c9f8:	40d585b3          	sub	a1,a1,a3
8000c9fc:	40e585b3          	sub	a1,a1,a4
8000ca00:	00060713          	mv	a4,a2
8000ca04:	40e50733          	sub	a4,a0,a4
8000ca08:	00e53533          	sltu	a0,a0,a4
8000ca0c:	40bf05b3          	sub	a1,t5,a1
8000ca10:	40a585b3          	sub	a1,a1,a0
8000ca14:	01d597b3          	sll	a5,a1,t4
8000ca18:	01c75733          	srl	a4,a4,t3
8000ca1c:	00e7e533          	or	a0,a5,a4
8000ca20:	01c5d5b3          	srl	a1,a1,t3
8000ca24:	cd5ff06f          	j	8000c6f8 <__umoddi3+0xd8>

8000ca28 <__adddf3>:
8000ca28:	00100837          	lui	a6,0x100
8000ca2c:	fff80813          	addi	a6,a6,-1 # fffff <_tbss_end+0xfff7b>
8000ca30:	fe010113          	addi	sp,sp,-32
8000ca34:	00b878b3          	and	a7,a6,a1
8000ca38:	0145d713          	srli	a4,a1,0x14
8000ca3c:	01d55793          	srli	a5,a0,0x1d
8000ca40:	01212823          	sw	s2,16(sp)
8000ca44:	7ff77913          	andi	s2,a4,2047
8000ca48:	00389713          	slli	a4,a7,0x3
8000ca4c:	00d87833          	and	a6,a6,a3
8000ca50:	00e7e7b3          	or	a5,a5,a4
8000ca54:	0146d713          	srli	a4,a3,0x14
8000ca58:	00381813          	slli	a6,a6,0x3
8000ca5c:	00912a23          	sw	s1,20(sp)
8000ca60:	7ff77713          	andi	a4,a4,2047
8000ca64:	01f6d893          	srli	a7,a3,0x1f
8000ca68:	00112e23          	sw	ra,28(sp)
8000ca6c:	01d65693          	srli	a3,a2,0x1d
8000ca70:	00812c23          	sw	s0,24(sp)
8000ca74:	01312623          	sw	s3,12(sp)
8000ca78:	01f5d493          	srli	s1,a1,0x1f
8000ca7c:	0106e333          	or	t1,a3,a6
8000ca80:	00351513          	slli	a0,a0,0x3
8000ca84:	00361613          	slli	a2,a2,0x3
8000ca88:	40e90833          	sub	a6,s2,a4
8000ca8c:	3b149463          	bne	s1,a7,8000ce34 <__adddf3+0x40c>
8000ca90:	1f005463          	blez	a6,8000cc78 <__adddf3+0x250>
8000ca94:	14071263          	bnez	a4,8000cbd8 <__adddf3+0x1b0>
8000ca98:	00c36733          	or	a4,t1,a2
8000ca9c:	0c071463          	bnez	a4,8000cb64 <__adddf3+0x13c>
8000caa0:	7ff00693          	li	a3,2047
8000caa4:	00080713          	mv	a4,a6
8000caa8:	30d81c63          	bne	a6,a3,8000cdc0 <__adddf3+0x398>
8000caac:	00a7e6b3          	or	a3,a5,a0
8000cab0:	30069863          	bnez	a3,8000cdc0 <__adddf3+0x398>
8000cab4:	00000793          	li	a5,0
8000cab8:	00000513          	li	a0,0
8000cabc:	00879693          	slli	a3,a5,0x8
8000cac0:	0006de63          	bgez	a3,8000cadc <__adddf3+0xb4>
8000cac4:	00170713          	addi	a4,a4,1
8000cac8:	7ff00693          	li	a3,2047
8000cacc:	74d70c63          	beq	a4,a3,8000d224 <__adddf3+0x7fc>
8000cad0:	ff8006b7          	lui	a3,0xff800
8000cad4:	fff68693          	addi	a3,a3,-1 # ff7fffff <__global_pointer$+0x7f7f141f>
8000cad8:	00d7f7b3          	and	a5,a5,a3
8000cadc:	01d79693          	slli	a3,a5,0x1d
8000cae0:	00355513          	srli	a0,a0,0x3
8000cae4:	00a6e533          	or	a0,a3,a0
8000cae8:	7ff00693          	li	a3,2047
8000caec:	0037d793          	srli	a5,a5,0x3
8000caf0:	00d71e63          	bne	a4,a3,8000cb0c <__adddf3+0xe4>
8000caf4:	00f56533          	or	a0,a0,a5
8000caf8:	00000793          	li	a5,0
8000cafc:	00050863          	beqz	a0,8000cb0c <__adddf3+0xe4>
8000cb00:	000807b7          	lui	a5,0x80
8000cb04:	00000513          	li	a0,0
8000cb08:	00000493          	li	s1,0
8000cb0c:	001006b7          	lui	a3,0x100
8000cb10:	fff68693          	addi	a3,a3,-1 # fffff <_tbss_end+0xfff7b>
8000cb14:	00d7f7b3          	and	a5,a5,a3
8000cb18:	801006b7          	lui	a3,0x80100
8000cb1c:	7ff77713          	andi	a4,a4,2047
8000cb20:	fff68693          	addi	a3,a3,-1 # 800fffff <__global_pointer$+0xf141f>
8000cb24:	01471713          	slli	a4,a4,0x14
8000cb28:	00d7f7b3          	and	a5,a5,a3
8000cb2c:	00e7e7b3          	or	a5,a5,a4
8000cb30:	80000737          	lui	a4,0x80000
8000cb34:	fff74713          	not	a4,a4
8000cb38:	01c12083          	lw	ra,28(sp)
8000cb3c:	01812403          	lw	s0,24(sp)
8000cb40:	01f49593          	slli	a1,s1,0x1f
8000cb44:	00e7f7b3          	and	a5,a5,a4
8000cb48:	00b7e733          	or	a4,a5,a1
8000cb4c:	01412483          	lw	s1,20(sp)
8000cb50:	01012903          	lw	s2,16(sp)
8000cb54:	00c12983          	lw	s3,12(sp)
8000cb58:	00070593          	mv	a1,a4
8000cb5c:	02010113          	addi	sp,sp,32
8000cb60:	00008067          	ret
8000cb64:	fff80593          	addi	a1,a6,-1
8000cb68:	04059c63          	bnez	a1,8000cbc0 <__adddf3+0x198>
8000cb6c:	00c50633          	add	a2,a0,a2
8000cb70:	00a63533          	sltu	a0,a2,a0
8000cb74:	006787b3          	add	a5,a5,t1
8000cb78:	00a787b3          	add	a5,a5,a0
8000cb7c:	00100713          	li	a4,1
8000cb80:	00060513          	mv	a0,a2
8000cb84:	00879693          	slli	a3,a5,0x8
8000cb88:	2206dc63          	bgez	a3,8000cdc0 <__adddf3+0x398>
8000cb8c:	00170713          	addi	a4,a4,1 # 80000001 <__global_pointer$+0xffff1421>
8000cb90:	7ff00693          	li	a3,2047
8000cb94:	f2d700e3          	beq	a4,a3,8000cab4 <__adddf3+0x8c>
8000cb98:	ff8006b7          	lui	a3,0xff800
8000cb9c:	fff68693          	addi	a3,a3,-1 # ff7fffff <__global_pointer$+0x7f7f141f>
8000cba0:	00d7f6b3          	and	a3,a5,a3
8000cba4:	00155593          	srli	a1,a0,0x1
8000cba8:	00157513          	andi	a0,a0,1
8000cbac:	01f69793          	slli	a5,a3,0x1f
8000cbb0:	00a5e533          	or	a0,a1,a0
8000cbb4:	00a7e533          	or	a0,a5,a0
8000cbb8:	0016d793          	srli	a5,a3,0x1
8000cbbc:	2040006f          	j	8000cdc0 <__adddf3+0x398>
8000cbc0:	7ff00713          	li	a4,2047
8000cbc4:	02e81463          	bne	a6,a4,8000cbec <__adddf3+0x1c4>
8000cbc8:	00a7e733          	or	a4,a5,a0
8000cbcc:	62070063          	beqz	a4,8000d1ec <__adddf3+0x7c4>
8000cbd0:	7ff00713          	li	a4,2047
8000cbd4:	1ec0006f          	j	8000cdc0 <__adddf3+0x398>
8000cbd8:	7ff00713          	li	a4,2047
8000cbdc:	fee906e3          	beq	s2,a4,8000cbc8 <__adddf3+0x1a0>
8000cbe0:	00800737          	lui	a4,0x800
8000cbe4:	00e36333          	or	t1,t1,a4
8000cbe8:	00080593          	mv	a1,a6
8000cbec:	03800713          	li	a4,56
8000cbf0:	06b74e63          	blt	a4,a1,8000cc6c <__adddf3+0x244>
8000cbf4:	01f00713          	li	a4,31
8000cbf8:	04b74263          	blt	a4,a1,8000cc3c <__adddf3+0x214>
8000cbfc:	02000713          	li	a4,32
8000cc00:	40b70733          	sub	a4,a4,a1
8000cc04:	00b656b3          	srl	a3,a2,a1
8000cc08:	00e31833          	sll	a6,t1,a4
8000cc0c:	00e61633          	sll	a2,a2,a4
8000cc10:	00d86833          	or	a6,a6,a3
8000cc14:	00c03633          	snez	a2,a2
8000cc18:	00c86833          	or	a6,a6,a2
8000cc1c:	00b355b3          	srl	a1,t1,a1
8000cc20:	00a80833          	add	a6,a6,a0
8000cc24:	00f585b3          	add	a1,a1,a5
8000cc28:	00a837b3          	sltu	a5,a6,a0
8000cc2c:	00f587b3          	add	a5,a1,a5
8000cc30:	00080513          	mv	a0,a6
8000cc34:	00090713          	mv	a4,s2
8000cc38:	f4dff06f          	j	8000cb84 <__adddf3+0x15c>
8000cc3c:	02000713          	li	a4,32
8000cc40:	00b35833          	srl	a6,t1,a1
8000cc44:	00000693          	li	a3,0
8000cc48:	00e58863          	beq	a1,a4,8000cc58 <__adddf3+0x230>
8000cc4c:	04000693          	li	a3,64
8000cc50:	40b685b3          	sub	a1,a3,a1
8000cc54:	00b316b3          	sll	a3,t1,a1
8000cc58:	00c6e633          	or	a2,a3,a2
8000cc5c:	00c03633          	snez	a2,a2
8000cc60:	00c86833          	or	a6,a6,a2
8000cc64:	00000593          	li	a1,0
8000cc68:	fb9ff06f          	j	8000cc20 <__adddf3+0x1f8>
8000cc6c:	00c36833          	or	a6,t1,a2
8000cc70:	01003833          	snez	a6,a6
8000cc74:	ff1ff06f          	j	8000cc64 <__adddf3+0x23c>
8000cc78:	0e080a63          	beqz	a6,8000cd6c <__adddf3+0x344>
8000cc7c:	08091e63          	bnez	s2,8000cd18 <__adddf3+0x2f0>
8000cc80:	00a7e6b3          	or	a3,a5,a0
8000cc84:	02069263          	bnez	a3,8000cca8 <__adddf3+0x280>
8000cc88:	7ff00793          	li	a5,2047
8000cc8c:	00f71863          	bne	a4,a5,8000cc9c <__adddf3+0x274>
8000cc90:	00c36533          	or	a0,t1,a2
8000cc94:	00000793          	li	a5,0
8000cc98:	e20502e3          	beqz	a0,8000cabc <__adddf3+0x94>
8000cc9c:	00030793          	mv	a5,t1
8000cca0:	00060513          	mv	a0,a2
8000cca4:	11c0006f          	j	8000cdc0 <__adddf3+0x398>
8000cca8:	fff00693          	li	a3,-1
8000ccac:	00d81c63          	bne	a6,a3,8000ccc4 <__adddf3+0x29c>
8000ccb0:	00c50533          	add	a0,a0,a2
8000ccb4:	006787b3          	add	a5,a5,t1
8000ccb8:	00c53633          	sltu	a2,a0,a2
8000ccbc:	00c787b3          	add	a5,a5,a2
8000ccc0:	ec5ff06f          	j	8000cb84 <__adddf3+0x15c>
8000ccc4:	7ff00693          	li	a3,2047
8000ccc8:	fff84813          	not	a6,a6
8000cccc:	fcd702e3          	beq	a4,a3,8000cc90 <__adddf3+0x268>
8000ccd0:	03800693          	li	a3,56
8000ccd4:	0906c663          	blt	a3,a6,8000cd60 <__adddf3+0x338>
8000ccd8:	01f00693          	li	a3,31
8000ccdc:	0506ca63          	blt	a3,a6,8000cd30 <__adddf3+0x308>
8000cce0:	02000593          	li	a1,32
8000cce4:	410585b3          	sub	a1,a1,a6
8000cce8:	010558b3          	srl	a7,a0,a6
8000ccec:	00b796b3          	sll	a3,a5,a1
8000ccf0:	00b51533          	sll	a0,a0,a1
8000ccf4:	0116e6b3          	or	a3,a3,a7
8000ccf8:	00a03533          	snez	a0,a0
8000ccfc:	00a6e533          	or	a0,a3,a0
8000cd00:	0107d833          	srl	a6,a5,a6
8000cd04:	00c50533          	add	a0,a0,a2
8000cd08:	00680833          	add	a6,a6,t1
8000cd0c:	00c537b3          	sltu	a5,a0,a2
8000cd10:	00f807b3          	add	a5,a6,a5
8000cd14:	e71ff06f          	j	8000cb84 <__adddf3+0x15c>
8000cd18:	7ff00693          	li	a3,2047
8000cd1c:	f6d70ae3          	beq	a4,a3,8000cc90 <__adddf3+0x268>
8000cd20:	008006b7          	lui	a3,0x800
8000cd24:	41000833          	neg	a6,a6
8000cd28:	00d7e7b3          	or	a5,a5,a3
8000cd2c:	fa5ff06f          	j	8000ccd0 <__adddf3+0x2a8>
8000cd30:	02000893          	li	a7,32
8000cd34:	0107d6b3          	srl	a3,a5,a6
8000cd38:	00000593          	li	a1,0
8000cd3c:	01180863          	beq	a6,a7,8000cd4c <__adddf3+0x324>
8000cd40:	04000593          	li	a1,64
8000cd44:	41058833          	sub	a6,a1,a6
8000cd48:	010795b3          	sll	a1,a5,a6
8000cd4c:	00a5e533          	or	a0,a1,a0
8000cd50:	00a03533          	snez	a0,a0
8000cd54:	00a6e533          	or	a0,a3,a0
8000cd58:	00000813          	li	a6,0
8000cd5c:	fa9ff06f          	j	8000cd04 <__adddf3+0x2dc>
8000cd60:	00a7e533          	or	a0,a5,a0
8000cd64:	00a03533          	snez	a0,a0
8000cd68:	ff1ff06f          	j	8000cd58 <__adddf3+0x330>
8000cd6c:	00190713          	addi	a4,s2,1
8000cd70:	7ff77593          	andi	a1,a4,2047
8000cd74:	00100693          	li	a3,1
8000cd78:	08b6c863          	blt	a3,a1,8000ce08 <__adddf3+0x3e0>
8000cd7c:	00a7e733          	or	a4,a5,a0
8000cd80:	06091463          	bnez	s2,8000cde8 <__adddf3+0x3c0>
8000cd84:	44070863          	beqz	a4,8000d1d4 <__adddf3+0x7ac>
8000cd88:	00c366b3          	or	a3,t1,a2
8000cd8c:	00000713          	li	a4,0
8000cd90:	02068863          	beqz	a3,8000cdc0 <__adddf3+0x398>
8000cd94:	00c50633          	add	a2,a0,a2
8000cd98:	00a63533          	sltu	a0,a2,a0
8000cd9c:	006787b3          	add	a5,a5,t1
8000cda0:	00a787b3          	add	a5,a5,a0
8000cda4:	00879693          	slli	a3,a5,0x8
8000cda8:	00060513          	mv	a0,a2
8000cdac:	0006da63          	bgez	a3,8000cdc0 <__adddf3+0x398>
8000cdb0:	ff800737          	lui	a4,0xff800
8000cdb4:	fff70713          	addi	a4,a4,-1 # ff7fffff <__global_pointer$+0x7f7f141f>
8000cdb8:	00e7f7b3          	and	a5,a5,a4
8000cdbc:	00100713          	li	a4,1
8000cdc0:	00757693          	andi	a3,a0,7
8000cdc4:	ce068ce3          	beqz	a3,8000cabc <__adddf3+0x94>
8000cdc8:	00f57693          	andi	a3,a0,15
8000cdcc:	00400613          	li	a2,4
8000cdd0:	cec686e3          	beq	a3,a2,8000cabc <__adddf3+0x94>
8000cdd4:	00450693          	addi	a3,a0,4
8000cdd8:	00a6b533          	sltu	a0,a3,a0
8000cddc:	00a787b3          	add	a5,a5,a0
8000cde0:	00068513          	mv	a0,a3
8000cde4:	cd9ff06f          	j	8000cabc <__adddf3+0x94>
8000cde8:	3e070c63          	beqz	a4,8000d1e0 <__adddf3+0x7b8>
8000cdec:	00c36833          	or	a6,t1,a2
8000cdf0:	de0800e3          	beqz	a6,8000cbd0 <__adddf3+0x1a8>
8000cdf4:	004007b7          	lui	a5,0x400
8000cdf8:	00000513          	li	a0,0
8000cdfc:	7ff00713          	li	a4,2047
8000ce00:	00000493          	li	s1,0
8000ce04:	cb9ff06f          	j	8000cabc <__adddf3+0x94>
8000ce08:	7ff00693          	li	a3,2047
8000ce0c:	cad704e3          	beq	a4,a3,8000cab4 <__adddf3+0x8c>
8000ce10:	00c50633          	add	a2,a0,a2
8000ce14:	00678833          	add	a6,a5,t1
8000ce18:	00a637b3          	sltu	a5,a2,a0
8000ce1c:	00f80833          	add	a6,a6,a5
8000ce20:	01f81513          	slli	a0,a6,0x1f
8000ce24:	00165613          	srli	a2,a2,0x1
8000ce28:	00c56533          	or	a0,a0,a2
8000ce2c:	00185793          	srli	a5,a6,0x1
8000ce30:	f91ff06f          	j	8000cdc0 <__adddf3+0x398>
8000ce34:	0f005e63          	blez	a6,8000cf30 <__adddf3+0x508>
8000ce38:	0a071263          	bnez	a4,8000cedc <__adddf3+0x4b4>
8000ce3c:	00c36733          	or	a4,t1,a2
8000ce40:	c60700e3          	beqz	a4,8000caa0 <__adddf3+0x78>
8000ce44:	fff80693          	addi	a3,a6,-1
8000ce48:	02069e63          	bnez	a3,8000ce84 <__adddf3+0x45c>
8000ce4c:	40c50633          	sub	a2,a0,a2
8000ce50:	00c53533          	sltu	a0,a0,a2
8000ce54:	406787b3          	sub	a5,a5,t1
8000ce58:	40a787b3          	sub	a5,a5,a0
8000ce5c:	00100713          	li	a4,1
8000ce60:	00060513          	mv	a0,a2
8000ce64:	00879693          	slli	a3,a5,0x8
8000ce68:	f406dce3          	bgez	a3,8000cdc0 <__adddf3+0x398>
8000ce6c:	00800437          	lui	s0,0x800
8000ce70:	fff40413          	addi	s0,s0,-1 # 7fffff <_tbss_end+0x7fff7b>
8000ce74:	0087f433          	and	s0,a5,s0
8000ce78:	00050993          	mv	s3,a0
8000ce7c:	00070913          	mv	s2,a4
8000ce80:	2700006f          	j	8000d0f0 <__adddf3+0x6c8>
8000ce84:	7ff00713          	li	a4,2047
8000ce88:	d4e800e3          	beq	a6,a4,8000cbc8 <__adddf3+0x1a0>
8000ce8c:	03800713          	li	a4,56
8000ce90:	08d74a63          	blt	a4,a3,8000cf24 <__adddf3+0x4fc>
8000ce94:	01f00713          	li	a4,31
8000ce98:	04d74e63          	blt	a4,a3,8000cef4 <__adddf3+0x4cc>
8000ce9c:	02000713          	li	a4,32
8000cea0:	40d70733          	sub	a4,a4,a3
8000cea4:	00d655b3          	srl	a1,a2,a3
8000cea8:	00e31833          	sll	a6,t1,a4
8000ceac:	00e61633          	sll	a2,a2,a4
8000ceb0:	00b86833          	or	a6,a6,a1
8000ceb4:	00c03633          	snez	a2,a2
8000ceb8:	00c86833          	or	a6,a6,a2
8000cebc:	00d356b3          	srl	a3,t1,a3
8000cec0:	41050833          	sub	a6,a0,a6
8000cec4:	40d786b3          	sub	a3,a5,a3
8000cec8:	010537b3          	sltu	a5,a0,a6
8000cecc:	40f687b3          	sub	a5,a3,a5
8000ced0:	00080513          	mv	a0,a6
8000ced4:	00090713          	mv	a4,s2
8000ced8:	f8dff06f          	j	8000ce64 <__adddf3+0x43c>
8000cedc:	7ff00713          	li	a4,2047
8000cee0:	cee904e3          	beq	s2,a4,8000cbc8 <__adddf3+0x1a0>
8000cee4:	00800737          	lui	a4,0x800
8000cee8:	00e36333          	or	t1,t1,a4
8000ceec:	00080693          	mv	a3,a6
8000cef0:	f9dff06f          	j	8000ce8c <__adddf3+0x464>
8000cef4:	02000713          	li	a4,32
8000cef8:	00d35833          	srl	a6,t1,a3
8000cefc:	00000413          	li	s0,0
8000cf00:	00e68863          	beq	a3,a4,8000cf10 <__adddf3+0x4e8>
8000cf04:	04000413          	li	s0,64
8000cf08:	40d406b3          	sub	a3,s0,a3
8000cf0c:	00d31433          	sll	s0,t1,a3
8000cf10:	00c46633          	or	a2,s0,a2
8000cf14:	00c03633          	snez	a2,a2
8000cf18:	00c86833          	or	a6,a6,a2
8000cf1c:	00000693          	li	a3,0
8000cf20:	fa1ff06f          	j	8000cec0 <__adddf3+0x498>
8000cf24:	00c36833          	or	a6,t1,a2
8000cf28:	01003833          	snez	a6,a6
8000cf2c:	ff1ff06f          	j	8000cf1c <__adddf3+0x4f4>
8000cf30:	0e080a63          	beqz	a6,8000d024 <__adddf3+0x5fc>
8000cf34:	08091e63          	bnez	s2,8000cfd0 <__adddf3+0x5a8>
8000cf38:	00a7e6b3          	or	a3,a5,a0
8000cf3c:	02069063          	bnez	a3,8000cf5c <__adddf3+0x534>
8000cf40:	7ff00793          	li	a5,2047
8000cf44:	00f71663          	bne	a4,a5,8000cf50 <__adddf3+0x528>
8000cf48:	00c36533          	or	a0,t1,a2
8000cf4c:	2a050863          	beqz	a0,8000d1fc <__adddf3+0x7d4>
8000cf50:	00030793          	mv	a5,t1
8000cf54:	00060513          	mv	a0,a2
8000cf58:	0fc0006f          	j	8000d054 <__adddf3+0x62c>
8000cf5c:	fff00693          	li	a3,-1
8000cf60:	00d81e63          	bne	a6,a3,8000cf7c <__adddf3+0x554>
8000cf64:	40a60533          	sub	a0,a2,a0
8000cf68:	40f307b3          	sub	a5,t1,a5
8000cf6c:	00a63633          	sltu	a2,a2,a0
8000cf70:	40c787b3          	sub	a5,a5,a2
8000cf74:	00088493          	mv	s1,a7
8000cf78:	eedff06f          	j	8000ce64 <__adddf3+0x43c>
8000cf7c:	7ff00693          	li	a3,2047
8000cf80:	fff84813          	not	a6,a6
8000cf84:	fcd702e3          	beq	a4,a3,8000cf48 <__adddf3+0x520>
8000cf88:	03800693          	li	a3,56
8000cf8c:	0906c663          	blt	a3,a6,8000d018 <__adddf3+0x5f0>
8000cf90:	01f00693          	li	a3,31
8000cf94:	0506ca63          	blt	a3,a6,8000cfe8 <__adddf3+0x5c0>
8000cf98:	02000593          	li	a1,32
8000cf9c:	410585b3          	sub	a1,a1,a6
8000cfa0:	01055e33          	srl	t3,a0,a6
8000cfa4:	00b796b3          	sll	a3,a5,a1
8000cfa8:	00b51533          	sll	a0,a0,a1
8000cfac:	01c6e6b3          	or	a3,a3,t3
8000cfb0:	00a03533          	snez	a0,a0
8000cfb4:	00a6e533          	or	a0,a3,a0
8000cfb8:	0107d833          	srl	a6,a5,a6
8000cfbc:	40a60533          	sub	a0,a2,a0
8000cfc0:	41030833          	sub	a6,t1,a6
8000cfc4:	00a637b3          	sltu	a5,a2,a0
8000cfc8:	40f807b3          	sub	a5,a6,a5
8000cfcc:	fa9ff06f          	j	8000cf74 <__adddf3+0x54c>
8000cfd0:	7ff00693          	li	a3,2047
8000cfd4:	f6d70ae3          	beq	a4,a3,8000cf48 <__adddf3+0x520>
8000cfd8:	008006b7          	lui	a3,0x800
8000cfdc:	41000833          	neg	a6,a6
8000cfe0:	00d7e7b3          	or	a5,a5,a3
8000cfe4:	fa5ff06f          	j	8000cf88 <__adddf3+0x560>
8000cfe8:	02000e13          	li	t3,32
8000cfec:	0107d6b3          	srl	a3,a5,a6
8000cff0:	00000593          	li	a1,0
8000cff4:	01c80863          	beq	a6,t3,8000d004 <__adddf3+0x5dc>
8000cff8:	04000593          	li	a1,64
8000cffc:	41058833          	sub	a6,a1,a6
8000d000:	010795b3          	sll	a1,a5,a6
8000d004:	00a5e533          	or	a0,a1,a0
8000d008:	00a03533          	snez	a0,a0
8000d00c:	00a6e533          	or	a0,a3,a0
8000d010:	00000813          	li	a6,0
8000d014:	fa9ff06f          	j	8000cfbc <__adddf3+0x594>
8000d018:	00a7e533          	or	a0,a5,a0
8000d01c:	00a03533          	snez	a0,a0
8000d020:	ff1ff06f          	j	8000d010 <__adddf3+0x5e8>
8000d024:	00190713          	addi	a4,s2,1
8000d028:	7ff77713          	andi	a4,a4,2047
8000d02c:	00100693          	li	a3,1
8000d030:	08e6ca63          	blt	a3,a4,8000d0c4 <__adddf3+0x69c>
8000d034:	00a7e6b3          	or	a3,a5,a0
8000d038:	00c36733          	or	a4,t1,a2
8000d03c:	06091463          	bnez	s2,8000d0a4 <__adddf3+0x67c>
8000d040:	00069e63          	bnez	a3,8000d05c <__adddf3+0x634>
8000d044:	1c070263          	beqz	a4,8000d208 <__adddf3+0x7e0>
8000d048:	00030793          	mv	a5,t1
8000d04c:	00060513          	mv	a0,a2
8000d050:	00000713          	li	a4,0
8000d054:	00088493          	mv	s1,a7
8000d058:	d69ff06f          	j	8000cdc0 <__adddf3+0x398>
8000d05c:	04070063          	beqz	a4,8000d09c <__adddf3+0x674>
8000d060:	40c506b3          	sub	a3,a0,a2
8000d064:	00d535b3          	sltu	a1,a0,a3
8000d068:	40678733          	sub	a4,a5,t1
8000d06c:	40b70733          	sub	a4,a4,a1
8000d070:	00871593          	slli	a1,a4,0x8
8000d074:	0005dc63          	bgez	a1,8000d08c <__adddf3+0x664>
8000d078:	40a60533          	sub	a0,a2,a0
8000d07c:	40f307b3          	sub	a5,t1,a5
8000d080:	00a63633          	sltu	a2,a2,a0
8000d084:	40c787b3          	sub	a5,a5,a2
8000d088:	fc9ff06f          	j	8000d050 <__adddf3+0x628>
8000d08c:	00e6e533          	or	a0,a3,a4
8000d090:	0c050a63          	beqz	a0,8000d164 <__adddf3+0x73c>
8000d094:	00070793          	mv	a5,a4
8000d098:	00068513          	mv	a0,a3
8000d09c:	00000713          	li	a4,0
8000d0a0:	d21ff06f          	j	8000cdc0 <__adddf3+0x398>
8000d0a4:	00069c63          	bnez	a3,8000d0bc <__adddf3+0x694>
8000d0a8:	16070863          	beqz	a4,8000d218 <__adddf3+0x7f0>
8000d0ac:	00030793          	mv	a5,t1
8000d0b0:	00060513          	mv	a0,a2
8000d0b4:	00088493          	mv	s1,a7
8000d0b8:	b19ff06f          	j	8000cbd0 <__adddf3+0x1a8>
8000d0bc:	b0070ae3          	beqz	a4,8000cbd0 <__adddf3+0x1a8>
8000d0c0:	d35ff06f          	j	8000cdf4 <__adddf3+0x3cc>
8000d0c4:	40c509b3          	sub	s3,a0,a2
8000d0c8:	40678433          	sub	s0,a5,t1
8000d0cc:	01353833          	sltu	a6,a0,s3
8000d0d0:	41040433          	sub	s0,s0,a6
8000d0d4:	00841713          	slli	a4,s0,0x8
8000d0d8:	08075263          	bgez	a4,8000d15c <__adddf3+0x734>
8000d0dc:	40a609b3          	sub	s3,a2,a0
8000d0e0:	40f30433          	sub	s0,t1,a5
8000d0e4:	013637b3          	sltu	a5,a2,s3
8000d0e8:	40f40433          	sub	s0,s0,a5
8000d0ec:	00088493          	mv	s1,a7
8000d0f0:	06040e63          	beqz	s0,8000d16c <__adddf3+0x744>
8000d0f4:	00040513          	mv	a0,s0
8000d0f8:	278010ef          	jal	ra,8000e370 <__clzsi2>
8000d0fc:	ff850713          	addi	a4,a0,-8
8000d100:	01f00793          	li	a5,31
8000d104:	06e7cc63          	blt	a5,a4,8000d17c <__adddf3+0x754>
8000d108:	02000793          	li	a5,32
8000d10c:	40e787b3          	sub	a5,a5,a4
8000d110:	00e41433          	sll	s0,s0,a4
8000d114:	00f9d7b3          	srl	a5,s3,a5
8000d118:	0087e433          	or	s0,a5,s0
8000d11c:	00e99533          	sll	a0,s3,a4
8000d120:	0b274063          	blt	a4,s2,8000d1c0 <__adddf3+0x798>
8000d124:	41270733          	sub	a4,a4,s2
8000d128:	00170793          	addi	a5,a4,1 # 800001 <_tbss_end+0x7fff7d>
8000d12c:	01f00693          	li	a3,31
8000d130:	04f6ce63          	blt	a3,a5,8000d18c <__adddf3+0x764>
8000d134:	02000713          	li	a4,32
8000d138:	40f70733          	sub	a4,a4,a5
8000d13c:	00f55633          	srl	a2,a0,a5
8000d140:	00e416b3          	sll	a3,s0,a4
8000d144:	00e51533          	sll	a0,a0,a4
8000d148:	00c6e6b3          	or	a3,a3,a2
8000d14c:	00a03533          	snez	a0,a0
8000d150:	00a6e533          	or	a0,a3,a0
8000d154:	00f457b3          	srl	a5,s0,a5
8000d158:	f45ff06f          	j	8000d09c <__adddf3+0x674>
8000d15c:	0089e533          	or	a0,s3,s0
8000d160:	f80518e3          	bnez	a0,8000d0f0 <__adddf3+0x6c8>
8000d164:	00000793          	li	a5,0
8000d168:	0a80006f          	j	8000d210 <__adddf3+0x7e8>
8000d16c:	00098513          	mv	a0,s3
8000d170:	200010ef          	jal	ra,8000e370 <__clzsi2>
8000d174:	02050513          	addi	a0,a0,32
8000d178:	f85ff06f          	j	8000d0fc <__adddf3+0x6d4>
8000d17c:	fd850413          	addi	s0,a0,-40
8000d180:	00899433          	sll	s0,s3,s0
8000d184:	00000513          	li	a0,0
8000d188:	f99ff06f          	j	8000d120 <__adddf3+0x6f8>
8000d18c:	fe170713          	addi	a4,a4,-31
8000d190:	02000613          	li	a2,32
8000d194:	00e45733          	srl	a4,s0,a4
8000d198:	00000693          	li	a3,0
8000d19c:	00c78863          	beq	a5,a2,8000d1ac <__adddf3+0x784>
8000d1a0:	04000693          	li	a3,64
8000d1a4:	40f686b3          	sub	a3,a3,a5
8000d1a8:	00d416b3          	sll	a3,s0,a3
8000d1ac:	00d56533          	or	a0,a0,a3
8000d1b0:	00a03533          	snez	a0,a0
8000d1b4:	00a76533          	or	a0,a4,a0
8000d1b8:	00000793          	li	a5,0
8000d1bc:	ee1ff06f          	j	8000d09c <__adddf3+0x674>
8000d1c0:	ff8007b7          	lui	a5,0xff800
8000d1c4:	fff78793          	addi	a5,a5,-1 # ff7fffff <__global_pointer$+0x7f7f141f>
8000d1c8:	40e90733          	sub	a4,s2,a4
8000d1cc:	00f477b3          	and	a5,s0,a5
8000d1d0:	bf1ff06f          	j	8000cdc0 <__adddf3+0x398>
8000d1d4:	00030793          	mv	a5,t1
8000d1d8:	00060513          	mv	a0,a2
8000d1dc:	ec1ff06f          	j	8000d09c <__adddf3+0x674>
8000d1e0:	00030793          	mv	a5,t1
8000d1e4:	00060513          	mv	a0,a2
8000d1e8:	9e9ff06f          	j	8000cbd0 <__adddf3+0x1a8>
8000d1ec:	00000793          	li	a5,0
8000d1f0:	00000513          	li	a0,0
8000d1f4:	7ff00713          	li	a4,2047
8000d1f8:	8c5ff06f          	j	8000cabc <__adddf3+0x94>
8000d1fc:	00000793          	li	a5,0
8000d200:	00088493          	mv	s1,a7
8000d204:	8b9ff06f          	j	8000cabc <__adddf3+0x94>
8000d208:	00000793          	li	a5,0
8000d20c:	00000513          	li	a0,0
8000d210:	00000713          	li	a4,0
8000d214:	bedff06f          	j	8000ce00 <__adddf3+0x3d8>
8000d218:	00000513          	li	a0,0
8000d21c:	004007b7          	lui	a5,0x400
8000d220:	bddff06f          	j	8000cdfc <__adddf3+0x3d4>
8000d224:	00000793          	li	a5,0
8000d228:	00000513          	li	a0,0
8000d22c:	8b1ff06f          	j	8000cadc <__adddf3+0xb4>

8000d230 <__gedf2>:
8000d230:	0145d713          	srli	a4,a1,0x14
8000d234:	001007b7          	lui	a5,0x100
8000d238:	fff78793          	addi	a5,a5,-1 # fffff <_tbss_end+0xfff7b>
8000d23c:	0146d813          	srli	a6,a3,0x14
8000d240:	00050893          	mv	a7,a0
8000d244:	00050e93          	mv	t4,a0
8000d248:	7ff77713          	andi	a4,a4,2047
8000d24c:	7ff00513          	li	a0,2047
8000d250:	00b7f333          	and	t1,a5,a1
8000d254:	00060f13          	mv	t5,a2
8000d258:	00d7f7b3          	and	a5,a5,a3
8000d25c:	01f5d593          	srli	a1,a1,0x1f
8000d260:	7ff87813          	andi	a6,a6,2047
8000d264:	01f6d693          	srli	a3,a3,0x1f
8000d268:	00a71a63          	bne	a4,a0,8000d27c <__gedf2+0x4c>
8000d26c:	01136e33          	or	t3,t1,a7
8000d270:	ffe00513          	li	a0,-2
8000d274:	080e0c63          	beqz	t3,8000d30c <__gedf2+0xdc>
8000d278:	00008067          	ret
8000d27c:	00a81a63          	bne	a6,a0,8000d290 <__gedf2+0x60>
8000d280:	00c7e633          	or	a2,a5,a2
8000d284:	ffe00513          	li	a0,-2
8000d288:	08060a63          	beqz	a2,8000d31c <__gedf2+0xec>
8000d28c:	00008067          	ret
8000d290:	08071063          	bnez	a4,8000d310 <__gedf2+0xe0>
8000d294:	01136533          	or	a0,t1,a7
8000d298:	00153513          	seqz	a0,a0
8000d29c:	00081663          	bnez	a6,8000d2a8 <__gedf2+0x78>
8000d2a0:	00c7e633          	or	a2,a5,a2
8000d2a4:	06060063          	beqz	a2,8000d304 <__gedf2+0xd4>
8000d2a8:	00051a63          	bnez	a0,8000d2bc <__gedf2+0x8c>
8000d2ac:	00d58e63          	beq	a1,a3,8000d2c8 <__gedf2+0x98>
8000d2b0:	00100513          	li	a0,1
8000d2b4:	00059663          	bnez	a1,8000d2c0 <__gedf2+0x90>
8000d2b8:	00008067          	ret
8000d2bc:	fe069ee3          	bnez	a3,8000d2b8 <__gedf2+0x88>
8000d2c0:	fff00513          	li	a0,-1
8000d2c4:	00008067          	ret
8000d2c8:	fee844e3          	blt	a6,a4,8000d2b0 <__gedf2+0x80>
8000d2cc:	01075a63          	ble	a6,a4,8000d2e0 <__gedf2+0xb0>
8000d2d0:	fff00513          	li	a0,-1
8000d2d4:	fe0582e3          	beqz	a1,8000d2b8 <__gedf2+0x88>
8000d2d8:	00100513          	li	a0,1
8000d2dc:	00008067          	ret
8000d2e0:	fc67e8e3          	bltu	a5,t1,8000d2b0 <__gedf2+0x80>
8000d2e4:	00f31a63          	bne	t1,a5,8000d2f8 <__gedf2+0xc8>
8000d2e8:	fddf64e3          	bltu	t5,t4,8000d2b0 <__gedf2+0x80>
8000d2ec:	00000513          	li	a0,0
8000d2f0:	ffeee0e3          	bltu	t4,t5,8000d2d0 <__gedf2+0xa0>
8000d2f4:	fc5ff06f          	j	8000d2b8 <__gedf2+0x88>
8000d2f8:	fcf36ce3          	bltu	t1,a5,8000d2d0 <__gedf2+0xa0>
8000d2fc:	00000513          	li	a0,0
8000d300:	00008067          	ret
8000d304:	fe051ce3          	bnez	a0,8000d2fc <__gedf2+0xcc>
8000d308:	fa9ff06f          	j	8000d2b0 <__gedf2+0x80>
8000d30c:	f6e80ae3          	beq	a6,a4,8000d280 <__gedf2+0x50>
8000d310:	00000513          	li	a0,0
8000d314:	f80806e3          	beqz	a6,8000d2a0 <__gedf2+0x70>
8000d318:	f95ff06f          	j	8000d2ac <__gedf2+0x7c>
8000d31c:	f80718e3          	bnez	a4,8000d2ac <__gedf2+0x7c>
8000d320:	01136533          	or	a0,t1,a7
8000d324:	00153513          	seqz	a0,a0
8000d328:	f81ff06f          	j	8000d2a8 <__gedf2+0x78>

8000d32c <__muldf3>:
8000d32c:	fd010113          	addi	sp,sp,-48
8000d330:	03212023          	sw	s2,32(sp)
8000d334:	01512a23          	sw	s5,20(sp)
8000d338:	00100937          	lui	s2,0x100
8000d33c:	0145da93          	srli	s5,a1,0x14
8000d340:	01312e23          	sw	s3,28(sp)
8000d344:	01412c23          	sw	s4,24(sp)
8000d348:	01612823          	sw	s6,16(sp)
8000d34c:	01712623          	sw	s7,12(sp)
8000d350:	fff90913          	addi	s2,s2,-1 # fffff <_tbss_end+0xfff7b>
8000d354:	02112623          	sw	ra,44(sp)
8000d358:	02812423          	sw	s0,40(sp)
8000d35c:	02912223          	sw	s1,36(sp)
8000d360:	7ffafa93          	andi	s5,s5,2047
8000d364:	00050b13          	mv	s6,a0
8000d368:	00060b93          	mv	s7,a2
8000d36c:	00068a13          	mv	s4,a3
8000d370:	00b97933          	and	s2,s2,a1
8000d374:	01f5d993          	srli	s3,a1,0x1f
8000d378:	0a0a8463          	beqz	s5,8000d420 <__muldf3+0xf4>
8000d37c:	7ff00793          	li	a5,2047
8000d380:	10fa8263          	beq	s5,a5,8000d484 <__muldf3+0x158>
8000d384:	00800437          	lui	s0,0x800
8000d388:	00391913          	slli	s2,s2,0x3
8000d38c:	00896933          	or	s2,s2,s0
8000d390:	01d55413          	srli	s0,a0,0x1d
8000d394:	01246433          	or	s0,s0,s2
8000d398:	00351493          	slli	s1,a0,0x3
8000d39c:	c01a8a93          	addi	s5,s5,-1023
8000d3a0:	00000b13          	li	s6,0
8000d3a4:	014a5513          	srli	a0,s4,0x14
8000d3a8:	00100937          	lui	s2,0x100
8000d3ac:	fff90913          	addi	s2,s2,-1 # fffff <_tbss_end+0xfff7b>
8000d3b0:	7ff57513          	andi	a0,a0,2047
8000d3b4:	01497933          	and	s2,s2,s4
8000d3b8:	000b8713          	mv	a4,s7
8000d3bc:	01fa5a13          	srli	s4,s4,0x1f
8000d3c0:	10050063          	beqz	a0,8000d4c0 <__muldf3+0x194>
8000d3c4:	7ff00793          	li	a5,2047
8000d3c8:	16f50063          	beq	a0,a5,8000d528 <__muldf3+0x1fc>
8000d3cc:	008007b7          	lui	a5,0x800
8000d3d0:	00391913          	slli	s2,s2,0x3
8000d3d4:	00f96933          	or	s2,s2,a5
8000d3d8:	01dbd793          	srli	a5,s7,0x1d
8000d3dc:	0127e7b3          	or	a5,a5,s2
8000d3e0:	003b9713          	slli	a4,s7,0x3
8000d3e4:	c0150513          	addi	a0,a0,-1023
8000d3e8:	00000693          	li	a3,0
8000d3ec:	002b1593          	slli	a1,s6,0x2
8000d3f0:	00d5e5b3          	or	a1,a1,a3
8000d3f4:	00aa8533          	add	a0,s5,a0
8000d3f8:	fff58593          	addi	a1,a1,-1 # ffffff <_tbss_end+0xffff7b>
8000d3fc:	00e00893          	li	a7,14
8000d400:	0149c633          	xor	a2,s3,s4
8000d404:	00150813          	addi	a6,a0,1
8000d408:	14b8ec63          	bltu	a7,a1,8000d560 <__muldf3+0x234>
8000d40c:	00259593          	slli	a1,a1,0x2
8000d410:	a4418513          	addi	a0,gp,-1468 # 8000e624 <main+0x26c>
8000d414:	00a585b3          	add	a1,a1,a0
8000d418:	0005a583          	lw	a1,0(a1)
8000d41c:	00058067          	jr	a1
8000d420:	00a96433          	or	s0,s2,a0
8000d424:	06040e63          	beqz	s0,8000d4a0 <__muldf3+0x174>
8000d428:	04090063          	beqz	s2,8000d468 <__muldf3+0x13c>
8000d42c:	00090513          	mv	a0,s2
8000d430:	741000ef          	jal	ra,8000e370 <__clzsi2>
8000d434:	ff550793          	addi	a5,a0,-11
8000d438:	01c00713          	li	a4,28
8000d43c:	02f74c63          	blt	a4,a5,8000d474 <__muldf3+0x148>
8000d440:	01d00413          	li	s0,29
8000d444:	ff850493          	addi	s1,a0,-8
8000d448:	40f40433          	sub	s0,s0,a5
8000d44c:	00991933          	sll	s2,s2,s1
8000d450:	008b5433          	srl	s0,s6,s0
8000d454:	01246433          	or	s0,s0,s2
8000d458:	009b14b3          	sll	s1,s6,s1
8000d45c:	c0d00a93          	li	s5,-1011
8000d460:	40aa8ab3          	sub	s5,s5,a0
8000d464:	f3dff06f          	j	8000d3a0 <__muldf3+0x74>
8000d468:	709000ef          	jal	ra,8000e370 <__clzsi2>
8000d46c:	02050513          	addi	a0,a0,32
8000d470:	fc5ff06f          	j	8000d434 <__muldf3+0x108>
8000d474:	fd850413          	addi	s0,a0,-40
8000d478:	008b1433          	sll	s0,s6,s0
8000d47c:	00000493          	li	s1,0
8000d480:	fddff06f          	j	8000d45c <__muldf3+0x130>
8000d484:	00a96433          	or	s0,s2,a0
8000d488:	02040463          	beqz	s0,8000d4b0 <__muldf3+0x184>
8000d48c:	00050493          	mv	s1,a0
8000d490:	00090413          	mv	s0,s2
8000d494:	7ff00a93          	li	s5,2047
8000d498:	00300b13          	li	s6,3
8000d49c:	f09ff06f          	j	8000d3a4 <__muldf3+0x78>
8000d4a0:	00000493          	li	s1,0
8000d4a4:	00000a93          	li	s5,0
8000d4a8:	00100b13          	li	s6,1
8000d4ac:	ef9ff06f          	j	8000d3a4 <__muldf3+0x78>
8000d4b0:	00000493          	li	s1,0
8000d4b4:	7ff00a93          	li	s5,2047
8000d4b8:	00200b13          	li	s6,2
8000d4bc:	ee9ff06f          	j	8000d3a4 <__muldf3+0x78>
8000d4c0:	017967b3          	or	a5,s2,s7
8000d4c4:	06078e63          	beqz	a5,8000d540 <__muldf3+0x214>
8000d4c8:	04090063          	beqz	s2,8000d508 <__muldf3+0x1dc>
8000d4cc:	00090513          	mv	a0,s2
8000d4d0:	6a1000ef          	jal	ra,8000e370 <__clzsi2>
8000d4d4:	ff550693          	addi	a3,a0,-11
8000d4d8:	01c00793          	li	a5,28
8000d4dc:	02d7ce63          	blt	a5,a3,8000d518 <__muldf3+0x1ec>
8000d4e0:	01d00793          	li	a5,29
8000d4e4:	ff850713          	addi	a4,a0,-8
8000d4e8:	40d787b3          	sub	a5,a5,a3
8000d4ec:	00e91933          	sll	s2,s2,a4
8000d4f0:	00fbd7b3          	srl	a5,s7,a5
8000d4f4:	0127e7b3          	or	a5,a5,s2
8000d4f8:	00eb9733          	sll	a4,s7,a4
8000d4fc:	c0d00693          	li	a3,-1011
8000d500:	40a68533          	sub	a0,a3,a0
8000d504:	ee5ff06f          	j	8000d3e8 <__muldf3+0xbc>
8000d508:	000b8513          	mv	a0,s7
8000d50c:	665000ef          	jal	ra,8000e370 <__clzsi2>
8000d510:	02050513          	addi	a0,a0,32
8000d514:	fc1ff06f          	j	8000d4d4 <__muldf3+0x1a8>
8000d518:	fd850793          	addi	a5,a0,-40
8000d51c:	00fb97b3          	sll	a5,s7,a5
8000d520:	00000713          	li	a4,0
8000d524:	fd9ff06f          	j	8000d4fc <__muldf3+0x1d0>
8000d528:	017967b3          	or	a5,s2,s7
8000d52c:	02078263          	beqz	a5,8000d550 <__muldf3+0x224>
8000d530:	00090793          	mv	a5,s2
8000d534:	7ff00513          	li	a0,2047
8000d538:	00300693          	li	a3,3
8000d53c:	eb1ff06f          	j	8000d3ec <__muldf3+0xc0>
8000d540:	00000713          	li	a4,0
8000d544:	00000513          	li	a0,0
8000d548:	00100693          	li	a3,1
8000d54c:	ea1ff06f          	j	8000d3ec <__muldf3+0xc0>
8000d550:	00000713          	li	a4,0
8000d554:	7ff00513          	li	a0,2047
8000d558:	00200693          	li	a3,2
8000d55c:	e91ff06f          	j	8000d3ec <__muldf3+0xc0>
8000d560:	00010fb7          	lui	t6,0x10
8000d564:	ffff8f13          	addi	t5,t6,-1 # ffff <_tbss_end+0xff7b>
8000d568:	0104d693          	srli	a3,s1,0x10
8000d56c:	01075313          	srli	t1,a4,0x10
8000d570:	01e4f4b3          	and	s1,s1,t5
8000d574:	01e77733          	and	a4,a4,t5
8000d578:	029308b3          	mul	a7,t1,s1
8000d57c:	029705b3          	mul	a1,a4,s1
8000d580:	02e682b3          	mul	t0,a3,a4
8000d584:	00588e33          	add	t3,a7,t0
8000d588:	0105d893          	srli	a7,a1,0x10
8000d58c:	01c888b3          	add	a7,a7,t3
8000d590:	02668eb3          	mul	t4,a3,t1
8000d594:	0058f463          	bleu	t0,a7,8000d59c <__muldf3+0x270>
8000d598:	01fe8eb3          	add	t4,t4,t6
8000d59c:	0108d913          	srli	s2,a7,0x10
8000d5a0:	01e8f8b3          	and	a7,a7,t5
8000d5a4:	0107df93          	srli	t6,a5,0x10
8000d5a8:	01e5f5b3          	and	a1,a1,t5
8000d5ac:	01e7f3b3          	and	t2,a5,t5
8000d5b0:	01089893          	slli	a7,a7,0x10
8000d5b4:	00b888b3          	add	a7,a7,a1
8000d5b8:	027687b3          	mul	a5,a3,t2
8000d5bc:	029385b3          	mul	a1,t2,s1
8000d5c0:	029f84b3          	mul	s1,t6,s1
8000d5c4:	00f48e33          	add	t3,s1,a5
8000d5c8:	0105d493          	srli	s1,a1,0x10
8000d5cc:	01c484b3          	add	s1,s1,t3
8000d5d0:	03f686b3          	mul	a3,a3,t6
8000d5d4:	00f4f663          	bleu	a5,s1,8000d5e0 <__muldf3+0x2b4>
8000d5d8:	000107b7          	lui	a5,0x10
8000d5dc:	00f686b3          	add	a3,a3,a5
8000d5e0:	0104df13          	srli	t5,s1,0x10
8000d5e4:	000109b7          	lui	s3,0x10
8000d5e8:	00df0f33          	add	t5,t5,a3
8000d5ec:	fff98693          	addi	a3,s3,-1 # ffff <_tbss_end+0xff7b>
8000d5f0:	00d4f4b3          	and	s1,s1,a3
8000d5f4:	00d5f5b3          	and	a1,a1,a3
8000d5f8:	01045793          	srli	a5,s0,0x10
8000d5fc:	01049493          	slli	s1,s1,0x10
8000d600:	00d47433          	and	s0,s0,a3
8000d604:	00b484b3          	add	s1,s1,a1
8000d608:	028706b3          	mul	a3,a4,s0
8000d60c:	00990933          	add	s2,s2,s1
8000d610:	02e78e33          	mul	t3,a5,a4
8000d614:	028305b3          	mul	a1,t1,s0
8000d618:	02f30733          	mul	a4,t1,a5
8000d61c:	01c58333          	add	t1,a1,t3
8000d620:	0106d593          	srli	a1,a3,0x10
8000d624:	006585b3          	add	a1,a1,t1
8000d628:	01c5f463          	bleu	t3,a1,8000d630 <__muldf3+0x304>
8000d62c:	01370733          	add	a4,a4,s3
8000d630:	0105d313          	srli	t1,a1,0x10
8000d634:	000109b7          	lui	s3,0x10
8000d638:	00e302b3          	add	t0,t1,a4
8000d63c:	fff98713          	addi	a4,s3,-1 # ffff <_tbss_end+0xff7b>
8000d640:	00e5f5b3          	and	a1,a1,a4
8000d644:	00e6f6b3          	and	a3,a3,a4
8000d648:	02838333          	mul	t1,t2,s0
8000d64c:	01059593          	slli	a1,a1,0x10
8000d650:	00d585b3          	add	a1,a1,a3
8000d654:	02778733          	mul	a4,a5,t2
8000d658:	028f8433          	mul	s0,t6,s0
8000d65c:	02ff8e33          	mul	t3,t6,a5
8000d660:	00e40433          	add	s0,s0,a4
8000d664:	01035793          	srli	a5,t1,0x10
8000d668:	00878433          	add	s0,a5,s0
8000d66c:	00e47463          	bleu	a4,s0,8000d674 <__muldf3+0x348>
8000d670:	013e0e33          	add	t3,t3,s3
8000d674:	000107b7          	lui	a5,0x10
8000d678:	fff78793          	addi	a5,a5,-1 # ffff <_tbss_end+0xff7b>
8000d67c:	00f476b3          	and	a3,s0,a5
8000d680:	00f37333          	and	t1,t1,a5
8000d684:	01069693          	slli	a3,a3,0x10
8000d688:	012e8eb3          	add	t4,t4,s2
8000d68c:	006686b3          	add	a3,a3,t1
8000d690:	009eb4b3          	sltu	s1,t4,s1
8000d694:	01e686b3          	add	a3,a3,t5
8000d698:	009687b3          	add	a5,a3,s1
8000d69c:	00be8eb3          	add	t4,t4,a1
8000d6a0:	00beb5b3          	sltu	a1,t4,a1
8000d6a4:	00578333          	add	t1,a5,t0
8000d6a8:	00b30fb3          	add	t6,t1,a1
8000d6ac:	01e6b6b3          	sltu	a3,a3,t5
8000d6b0:	0097b7b3          	sltu	a5,a5,s1
8000d6b4:	00f6e7b3          	or	a5,a3,a5
8000d6b8:	01045413          	srli	s0,s0,0x10
8000d6bc:	00533333          	sltu	t1,t1,t0
8000d6c0:	00bfb5b3          	sltu	a1,t6,a1
8000d6c4:	008787b3          	add	a5,a5,s0
8000d6c8:	00b365b3          	or	a1,t1,a1
8000d6cc:	00b787b3          	add	a5,a5,a1
8000d6d0:	01c787b3          	add	a5,a5,t3
8000d6d4:	017fd713          	srli	a4,t6,0x17
8000d6d8:	00979793          	slli	a5,a5,0x9
8000d6dc:	00e7e7b3          	or	a5,a5,a4
8000d6e0:	009e9713          	slli	a4,t4,0x9
8000d6e4:	01176733          	or	a4,a4,a7
8000d6e8:	00e03733          	snez	a4,a4
8000d6ec:	017ede93          	srli	t4,t4,0x17
8000d6f0:	009f9693          	slli	a3,t6,0x9
8000d6f4:	01d76733          	or	a4,a4,t4
8000d6f8:	00d76733          	or	a4,a4,a3
8000d6fc:	00779693          	slli	a3,a5,0x7
8000d700:	1006da63          	bgez	a3,8000d814 <__muldf3+0x4e8>
8000d704:	00175693          	srli	a3,a4,0x1
8000d708:	00177713          	andi	a4,a4,1
8000d70c:	00e6e733          	or	a4,a3,a4
8000d710:	01f79693          	slli	a3,a5,0x1f
8000d714:	00d76733          	or	a4,a4,a3
8000d718:	0017d793          	srli	a5,a5,0x1
8000d71c:	3ff80593          	addi	a1,a6,1023
8000d720:	0eb05e63          	blez	a1,8000d81c <__muldf3+0x4f0>
8000d724:	00777693          	andi	a3,a4,7
8000d728:	02068063          	beqz	a3,8000d748 <__muldf3+0x41c>
8000d72c:	00f77693          	andi	a3,a4,15
8000d730:	00400513          	li	a0,4
8000d734:	00a68a63          	beq	a3,a0,8000d748 <__muldf3+0x41c>
8000d738:	00470693          	addi	a3,a4,4
8000d73c:	00e6b733          	sltu	a4,a3,a4
8000d740:	00e787b3          	add	a5,a5,a4
8000d744:	00068713          	mv	a4,a3
8000d748:	00779693          	slli	a3,a5,0x7
8000d74c:	0006da63          	bgez	a3,8000d760 <__muldf3+0x434>
8000d750:	ff0006b7          	lui	a3,0xff000
8000d754:	fff68693          	addi	a3,a3,-1 # feffffff <__global_pointer$+0x7eff141f>
8000d758:	00d7f7b3          	and	a5,a5,a3
8000d75c:	40080593          	addi	a1,a6,1024
8000d760:	7fe00693          	li	a3,2046
8000d764:	16b6ce63          	blt	a3,a1,8000d8e0 <__muldf3+0x5b4>
8000d768:	00375693          	srli	a3,a4,0x3
8000d76c:	01d79713          	slli	a4,a5,0x1d
8000d770:	00d76733          	or	a4,a4,a3
8000d774:	0037d793          	srli	a5,a5,0x3
8000d778:	001006b7          	lui	a3,0x100
8000d77c:	fff68693          	addi	a3,a3,-1 # fffff <_tbss_end+0xfff7b>
8000d780:	00d7f7b3          	and	a5,a5,a3
8000d784:	7ff5f693          	andi	a3,a1,2047
8000d788:	801005b7          	lui	a1,0x80100
8000d78c:	fff58593          	addi	a1,a1,-1 # 800fffff <__global_pointer$+0xf141f>
8000d790:	01469693          	slli	a3,a3,0x14
8000d794:	00b7f7b3          	and	a5,a5,a1
8000d798:	02c12083          	lw	ra,44(sp)
8000d79c:	02812403          	lw	s0,40(sp)
8000d7a0:	01f61613          	slli	a2,a2,0x1f
8000d7a4:	00d7e7b3          	or	a5,a5,a3
8000d7a8:	00c7e6b3          	or	a3,a5,a2
8000d7ac:	02412483          	lw	s1,36(sp)
8000d7b0:	02012903          	lw	s2,32(sp)
8000d7b4:	01c12983          	lw	s3,28(sp)
8000d7b8:	01812a03          	lw	s4,24(sp)
8000d7bc:	01412a83          	lw	s5,20(sp)
8000d7c0:	01012b03          	lw	s6,16(sp)
8000d7c4:	00c12b83          	lw	s7,12(sp)
8000d7c8:	00070513          	mv	a0,a4
8000d7cc:	00068593          	mv	a1,a3
8000d7d0:	03010113          	addi	sp,sp,48
8000d7d4:	00008067          	ret
8000d7d8:	00098613          	mv	a2,s3
8000d7dc:	00040793          	mv	a5,s0
8000d7e0:	00048713          	mv	a4,s1
8000d7e4:	000b0693          	mv	a3,s6
8000d7e8:	00200593          	li	a1,2
8000d7ec:	0eb68a63          	beq	a3,a1,8000d8e0 <__muldf3+0x5b4>
8000d7f0:	00300593          	li	a1,3
8000d7f4:	0cb68c63          	beq	a3,a1,8000d8cc <__muldf3+0x5a0>
8000d7f8:	00100593          	li	a1,1
8000d7fc:	f2b690e3          	bne	a3,a1,8000d71c <__muldf3+0x3f0>
8000d800:	00000793          	li	a5,0
8000d804:	00000713          	li	a4,0
8000d808:	0880006f          	j	8000d890 <__muldf3+0x564>
8000d80c:	000a0613          	mv	a2,s4
8000d810:	fd9ff06f          	j	8000d7e8 <__muldf3+0x4bc>
8000d814:	00050813          	mv	a6,a0
8000d818:	f05ff06f          	j	8000d71c <__muldf3+0x3f0>
8000d81c:	00100513          	li	a0,1
8000d820:	40b50533          	sub	a0,a0,a1
8000d824:	03800693          	li	a3,56
8000d828:	fca6cce3          	blt	a3,a0,8000d800 <__muldf3+0x4d4>
8000d82c:	01f00693          	li	a3,31
8000d830:	06a6c463          	blt	a3,a0,8000d898 <__muldf3+0x56c>
8000d834:	41e80813          	addi	a6,a6,1054
8000d838:	010796b3          	sll	a3,a5,a6
8000d83c:	00a755b3          	srl	a1,a4,a0
8000d840:	01071733          	sll	a4,a4,a6
8000d844:	00b6e6b3          	or	a3,a3,a1
8000d848:	00e03733          	snez	a4,a4
8000d84c:	00e6e733          	or	a4,a3,a4
8000d850:	00a7d7b3          	srl	a5,a5,a0
8000d854:	00777693          	andi	a3,a4,7
8000d858:	02068063          	beqz	a3,8000d878 <__muldf3+0x54c>
8000d85c:	00f77693          	andi	a3,a4,15
8000d860:	00400593          	li	a1,4
8000d864:	00b68a63          	beq	a3,a1,8000d878 <__muldf3+0x54c>
8000d868:	00470693          	addi	a3,a4,4
8000d86c:	00e6b733          	sltu	a4,a3,a4
8000d870:	00e787b3          	add	a5,a5,a4
8000d874:	00068713          	mv	a4,a3
8000d878:	00879693          	slli	a3,a5,0x8
8000d87c:	0606ca63          	bltz	a3,8000d8f0 <__muldf3+0x5c4>
8000d880:	01d79693          	slli	a3,a5,0x1d
8000d884:	00375713          	srli	a4,a4,0x3
8000d888:	00e6e733          	or	a4,a3,a4
8000d88c:	0037d793          	srli	a5,a5,0x3
8000d890:	00000593          	li	a1,0
8000d894:	ee5ff06f          	j	8000d778 <__muldf3+0x44c>
8000d898:	fe100693          	li	a3,-31
8000d89c:	40b686b3          	sub	a3,a3,a1
8000d8a0:	02000893          	li	a7,32
8000d8a4:	00d7d6b3          	srl	a3,a5,a3
8000d8a8:	00000593          	li	a1,0
8000d8ac:	01150663          	beq	a0,a7,8000d8b8 <__muldf3+0x58c>
8000d8b0:	43e80813          	addi	a6,a6,1086
8000d8b4:	010795b3          	sll	a1,a5,a6
8000d8b8:	00e5e733          	or	a4,a1,a4
8000d8bc:	00e03733          	snez	a4,a4
8000d8c0:	00e6e733          	or	a4,a3,a4
8000d8c4:	00000793          	li	a5,0
8000d8c8:	f8dff06f          	j	8000d854 <__muldf3+0x528>
8000d8cc:	000807b7          	lui	a5,0x80
8000d8d0:	00000713          	li	a4,0
8000d8d4:	7ff00593          	li	a1,2047
8000d8d8:	00000613          	li	a2,0
8000d8dc:	e9dff06f          	j	8000d778 <__muldf3+0x44c>
8000d8e0:	00000793          	li	a5,0
8000d8e4:	00000713          	li	a4,0
8000d8e8:	7ff00593          	li	a1,2047
8000d8ec:	e8dff06f          	j	8000d778 <__muldf3+0x44c>
8000d8f0:	00000793          	li	a5,0
8000d8f4:	00000713          	li	a4,0
8000d8f8:	00100593          	li	a1,1
8000d8fc:	e7dff06f          	j	8000d778 <__muldf3+0x44c>

8000d900 <__subdf3>:
8000d900:	00100837          	lui	a6,0x100
8000d904:	fff80813          	addi	a6,a6,-1 # fffff <_tbss_end+0xfff7b>
8000d908:	fe010113          	addi	sp,sp,-32
8000d90c:	00b878b3          	and	a7,a6,a1
8000d910:	0145d713          	srli	a4,a1,0x14
8000d914:	01d55793          	srli	a5,a0,0x1d
8000d918:	00d87833          	and	a6,a6,a3
8000d91c:	01212823          	sw	s2,16(sp)
8000d920:	7ff77913          	andi	s2,a4,2047
8000d924:	00389713          	slli	a4,a7,0x3
8000d928:	00e7e7b3          	or	a5,a5,a4
8000d92c:	01f6d893          	srli	a7,a3,0x1f
8000d930:	0146d713          	srli	a4,a3,0x14
8000d934:	00381813          	slli	a6,a6,0x3
8000d938:	01d65693          	srli	a3,a2,0x1d
8000d93c:	00912a23          	sw	s1,20(sp)
8000d940:	0106e333          	or	t1,a3,a6
8000d944:	00112e23          	sw	ra,28(sp)
8000d948:	00812c23          	sw	s0,24(sp)
8000d94c:	01312623          	sw	s3,12(sp)
8000d950:	7ff77713          	andi	a4,a4,2047
8000d954:	7ff00693          	li	a3,2047
8000d958:	01f5d493          	srli	s1,a1,0x1f
8000d95c:	00351513          	slli	a0,a0,0x3
8000d960:	00361613          	slli	a2,a2,0x3
8000d964:	00d71663          	bne	a4,a3,8000d970 <__subdf3+0x70>
8000d968:	00c366b3          	or	a3,t1,a2
8000d96c:	00069463          	bnez	a3,8000d974 <__subdf3+0x74>
8000d970:	0018c893          	xori	a7,a7,1
8000d974:	40e90833          	sub	a6,s2,a4
8000d978:	3a989463          	bne	a7,s1,8000dd20 <__subdf3+0x420>
8000d97c:	1f005463          	blez	a6,8000db64 <__subdf3+0x264>
8000d980:	14071263          	bnez	a4,8000dac4 <__subdf3+0x1c4>
8000d984:	00c36733          	or	a4,t1,a2
8000d988:	0c071463          	bnez	a4,8000da50 <__subdf3+0x150>
8000d98c:	7ff00693          	li	a3,2047
8000d990:	00080713          	mv	a4,a6
8000d994:	30d81c63          	bne	a6,a3,8000dcac <__subdf3+0x3ac>
8000d998:	00a7e6b3          	or	a3,a5,a0
8000d99c:	30069863          	bnez	a3,8000dcac <__subdf3+0x3ac>
8000d9a0:	00000793          	li	a5,0
8000d9a4:	00000513          	li	a0,0
8000d9a8:	00879693          	slli	a3,a5,0x8
8000d9ac:	0006de63          	bgez	a3,8000d9c8 <__subdf3+0xc8>
8000d9b0:	00170713          	addi	a4,a4,1
8000d9b4:	7ff00693          	li	a3,2047
8000d9b8:	74d70c63          	beq	a4,a3,8000e110 <__subdf3+0x810>
8000d9bc:	ff8006b7          	lui	a3,0xff800
8000d9c0:	fff68693          	addi	a3,a3,-1 # ff7fffff <__global_pointer$+0x7f7f141f>
8000d9c4:	00d7f7b3          	and	a5,a5,a3
8000d9c8:	01d79693          	slli	a3,a5,0x1d
8000d9cc:	00355513          	srli	a0,a0,0x3
8000d9d0:	00a6e533          	or	a0,a3,a0
8000d9d4:	7ff00693          	li	a3,2047
8000d9d8:	0037d793          	srli	a5,a5,0x3
8000d9dc:	00d71e63          	bne	a4,a3,8000d9f8 <__subdf3+0xf8>
8000d9e0:	00f56533          	or	a0,a0,a5
8000d9e4:	00000793          	li	a5,0
8000d9e8:	00050863          	beqz	a0,8000d9f8 <__subdf3+0xf8>
8000d9ec:	000807b7          	lui	a5,0x80
8000d9f0:	00000513          	li	a0,0
8000d9f4:	00000493          	li	s1,0
8000d9f8:	001006b7          	lui	a3,0x100
8000d9fc:	fff68693          	addi	a3,a3,-1 # fffff <_tbss_end+0xfff7b>
8000da00:	00d7f7b3          	and	a5,a5,a3
8000da04:	801006b7          	lui	a3,0x80100
8000da08:	7ff77713          	andi	a4,a4,2047
8000da0c:	fff68693          	addi	a3,a3,-1 # 800fffff <__global_pointer$+0xf141f>
8000da10:	01471713          	slli	a4,a4,0x14
8000da14:	00d7f7b3          	and	a5,a5,a3
8000da18:	00e7e7b3          	or	a5,a5,a4
8000da1c:	80000737          	lui	a4,0x80000
8000da20:	fff74713          	not	a4,a4
8000da24:	01c12083          	lw	ra,28(sp)
8000da28:	01812403          	lw	s0,24(sp)
8000da2c:	01f49593          	slli	a1,s1,0x1f
8000da30:	00e7f7b3          	and	a5,a5,a4
8000da34:	00b7e733          	or	a4,a5,a1
8000da38:	01412483          	lw	s1,20(sp)
8000da3c:	01012903          	lw	s2,16(sp)
8000da40:	00c12983          	lw	s3,12(sp)
8000da44:	00070593          	mv	a1,a4
8000da48:	02010113          	addi	sp,sp,32
8000da4c:	00008067          	ret
8000da50:	fff80593          	addi	a1,a6,-1
8000da54:	04059c63          	bnez	a1,8000daac <__subdf3+0x1ac>
8000da58:	00c50633          	add	a2,a0,a2
8000da5c:	00a63533          	sltu	a0,a2,a0
8000da60:	006787b3          	add	a5,a5,t1
8000da64:	00a787b3          	add	a5,a5,a0
8000da68:	00100713          	li	a4,1
8000da6c:	00060513          	mv	a0,a2
8000da70:	00879693          	slli	a3,a5,0x8
8000da74:	2206dc63          	bgez	a3,8000dcac <__subdf3+0x3ac>
8000da78:	00170713          	addi	a4,a4,1 # 80000001 <__global_pointer$+0xffff1421>
8000da7c:	7ff00693          	li	a3,2047
8000da80:	f2d700e3          	beq	a4,a3,8000d9a0 <__subdf3+0xa0>
8000da84:	ff8006b7          	lui	a3,0xff800
8000da88:	fff68693          	addi	a3,a3,-1 # ff7fffff <__global_pointer$+0x7f7f141f>
8000da8c:	00d7f6b3          	and	a3,a5,a3
8000da90:	00155593          	srli	a1,a0,0x1
8000da94:	00157513          	andi	a0,a0,1
8000da98:	01f69793          	slli	a5,a3,0x1f
8000da9c:	00a5e533          	or	a0,a1,a0
8000daa0:	00a7e533          	or	a0,a5,a0
8000daa4:	0016d793          	srli	a5,a3,0x1
8000daa8:	2040006f          	j	8000dcac <__subdf3+0x3ac>
8000daac:	7ff00713          	li	a4,2047
8000dab0:	02e81463          	bne	a6,a4,8000dad8 <__subdf3+0x1d8>
8000dab4:	00a7e733          	or	a4,a5,a0
8000dab8:	62070063          	beqz	a4,8000e0d8 <__subdf3+0x7d8>
8000dabc:	7ff00713          	li	a4,2047
8000dac0:	1ec0006f          	j	8000dcac <__subdf3+0x3ac>
8000dac4:	7ff00713          	li	a4,2047
8000dac8:	fee906e3          	beq	s2,a4,8000dab4 <__subdf3+0x1b4>
8000dacc:	00800737          	lui	a4,0x800
8000dad0:	00e36333          	or	t1,t1,a4
8000dad4:	00080593          	mv	a1,a6
8000dad8:	03800713          	li	a4,56
8000dadc:	06b74e63          	blt	a4,a1,8000db58 <__subdf3+0x258>
8000dae0:	01f00713          	li	a4,31
8000dae4:	04b74263          	blt	a4,a1,8000db28 <__subdf3+0x228>
8000dae8:	02000713          	li	a4,32
8000daec:	40b70733          	sub	a4,a4,a1
8000daf0:	00b656b3          	srl	a3,a2,a1
8000daf4:	00e31833          	sll	a6,t1,a4
8000daf8:	00e61633          	sll	a2,a2,a4
8000dafc:	00d86833          	or	a6,a6,a3
8000db00:	00c03633          	snez	a2,a2
8000db04:	00c86833          	or	a6,a6,a2
8000db08:	00b355b3          	srl	a1,t1,a1
8000db0c:	00a80833          	add	a6,a6,a0
8000db10:	00f585b3          	add	a1,a1,a5
8000db14:	00a837b3          	sltu	a5,a6,a0
8000db18:	00f587b3          	add	a5,a1,a5
8000db1c:	00080513          	mv	a0,a6
8000db20:	00090713          	mv	a4,s2
8000db24:	f4dff06f          	j	8000da70 <__subdf3+0x170>
8000db28:	02000713          	li	a4,32
8000db2c:	00b35833          	srl	a6,t1,a1
8000db30:	00000693          	li	a3,0
8000db34:	00e58863          	beq	a1,a4,8000db44 <__subdf3+0x244>
8000db38:	04000693          	li	a3,64
8000db3c:	40b685b3          	sub	a1,a3,a1
8000db40:	00b316b3          	sll	a3,t1,a1
8000db44:	00c6e633          	or	a2,a3,a2
8000db48:	00c03633          	snez	a2,a2
8000db4c:	00c86833          	or	a6,a6,a2
8000db50:	00000593          	li	a1,0
8000db54:	fb9ff06f          	j	8000db0c <__subdf3+0x20c>
8000db58:	00c36833          	or	a6,t1,a2
8000db5c:	01003833          	snez	a6,a6
8000db60:	ff1ff06f          	j	8000db50 <__subdf3+0x250>
8000db64:	0e080a63          	beqz	a6,8000dc58 <__subdf3+0x358>
8000db68:	08091e63          	bnez	s2,8000dc04 <__subdf3+0x304>
8000db6c:	00a7e6b3          	or	a3,a5,a0
8000db70:	02069263          	bnez	a3,8000db94 <__subdf3+0x294>
8000db74:	7ff00793          	li	a5,2047
8000db78:	00f71863          	bne	a4,a5,8000db88 <__subdf3+0x288>
8000db7c:	00c36533          	or	a0,t1,a2
8000db80:	00000793          	li	a5,0
8000db84:	e20502e3          	beqz	a0,8000d9a8 <__subdf3+0xa8>
8000db88:	00030793          	mv	a5,t1
8000db8c:	00060513          	mv	a0,a2
8000db90:	11c0006f          	j	8000dcac <__subdf3+0x3ac>
8000db94:	fff00693          	li	a3,-1
8000db98:	00d81c63          	bne	a6,a3,8000dbb0 <__subdf3+0x2b0>
8000db9c:	00c50533          	add	a0,a0,a2
8000dba0:	006787b3          	add	a5,a5,t1
8000dba4:	00c53633          	sltu	a2,a0,a2
8000dba8:	00c787b3          	add	a5,a5,a2
8000dbac:	ec5ff06f          	j	8000da70 <__subdf3+0x170>
8000dbb0:	7ff00693          	li	a3,2047
8000dbb4:	fff84813          	not	a6,a6
8000dbb8:	fcd702e3          	beq	a4,a3,8000db7c <__subdf3+0x27c>
8000dbbc:	03800693          	li	a3,56
8000dbc0:	0906c663          	blt	a3,a6,8000dc4c <__subdf3+0x34c>
8000dbc4:	01f00693          	li	a3,31
8000dbc8:	0506ca63          	blt	a3,a6,8000dc1c <__subdf3+0x31c>
8000dbcc:	02000593          	li	a1,32
8000dbd0:	410585b3          	sub	a1,a1,a6
8000dbd4:	010558b3          	srl	a7,a0,a6
8000dbd8:	00b796b3          	sll	a3,a5,a1
8000dbdc:	00b51533          	sll	a0,a0,a1
8000dbe0:	0116e6b3          	or	a3,a3,a7
8000dbe4:	00a03533          	snez	a0,a0
8000dbe8:	00a6e533          	or	a0,a3,a0
8000dbec:	0107d833          	srl	a6,a5,a6
8000dbf0:	00c50533          	add	a0,a0,a2
8000dbf4:	00680833          	add	a6,a6,t1
8000dbf8:	00c537b3          	sltu	a5,a0,a2
8000dbfc:	00f807b3          	add	a5,a6,a5
8000dc00:	e71ff06f          	j	8000da70 <__subdf3+0x170>
8000dc04:	7ff00693          	li	a3,2047
8000dc08:	f6d70ae3          	beq	a4,a3,8000db7c <__subdf3+0x27c>
8000dc0c:	008006b7          	lui	a3,0x800
8000dc10:	41000833          	neg	a6,a6
8000dc14:	00d7e7b3          	or	a5,a5,a3
8000dc18:	fa5ff06f          	j	8000dbbc <__subdf3+0x2bc>
8000dc1c:	02000893          	li	a7,32
8000dc20:	0107d6b3          	srl	a3,a5,a6
8000dc24:	00000593          	li	a1,0
8000dc28:	01180863          	beq	a6,a7,8000dc38 <__subdf3+0x338>
8000dc2c:	04000593          	li	a1,64
8000dc30:	41058833          	sub	a6,a1,a6
8000dc34:	010795b3          	sll	a1,a5,a6
8000dc38:	00a5e533          	or	a0,a1,a0
8000dc3c:	00a03533          	snez	a0,a0
8000dc40:	00a6e533          	or	a0,a3,a0
8000dc44:	00000813          	li	a6,0
8000dc48:	fa9ff06f          	j	8000dbf0 <__subdf3+0x2f0>
8000dc4c:	00a7e533          	or	a0,a5,a0
8000dc50:	00a03533          	snez	a0,a0
8000dc54:	ff1ff06f          	j	8000dc44 <__subdf3+0x344>
8000dc58:	00190713          	addi	a4,s2,1
8000dc5c:	7ff77593          	andi	a1,a4,2047
8000dc60:	00100693          	li	a3,1
8000dc64:	08b6c863          	blt	a3,a1,8000dcf4 <__subdf3+0x3f4>
8000dc68:	00a7e733          	or	a4,a5,a0
8000dc6c:	06091463          	bnez	s2,8000dcd4 <__subdf3+0x3d4>
8000dc70:	44070863          	beqz	a4,8000e0c0 <__subdf3+0x7c0>
8000dc74:	00c366b3          	or	a3,t1,a2
8000dc78:	00000713          	li	a4,0
8000dc7c:	02068863          	beqz	a3,8000dcac <__subdf3+0x3ac>
8000dc80:	00c50633          	add	a2,a0,a2
8000dc84:	00a63533          	sltu	a0,a2,a0
8000dc88:	006787b3          	add	a5,a5,t1
8000dc8c:	00a787b3          	add	a5,a5,a0
8000dc90:	00879693          	slli	a3,a5,0x8
8000dc94:	00060513          	mv	a0,a2
8000dc98:	0006da63          	bgez	a3,8000dcac <__subdf3+0x3ac>
8000dc9c:	ff800737          	lui	a4,0xff800
8000dca0:	fff70713          	addi	a4,a4,-1 # ff7fffff <__global_pointer$+0x7f7f141f>
8000dca4:	00e7f7b3          	and	a5,a5,a4
8000dca8:	00100713          	li	a4,1
8000dcac:	00757693          	andi	a3,a0,7
8000dcb0:	ce068ce3          	beqz	a3,8000d9a8 <__subdf3+0xa8>
8000dcb4:	00f57693          	andi	a3,a0,15
8000dcb8:	00400613          	li	a2,4
8000dcbc:	cec686e3          	beq	a3,a2,8000d9a8 <__subdf3+0xa8>
8000dcc0:	00450693          	addi	a3,a0,4
8000dcc4:	00a6b533          	sltu	a0,a3,a0
8000dcc8:	00a787b3          	add	a5,a5,a0
8000dccc:	00068513          	mv	a0,a3
8000dcd0:	cd9ff06f          	j	8000d9a8 <__subdf3+0xa8>
8000dcd4:	3e070c63          	beqz	a4,8000e0cc <__subdf3+0x7cc>
8000dcd8:	00c36833          	or	a6,t1,a2
8000dcdc:	de0800e3          	beqz	a6,8000dabc <__subdf3+0x1bc>
8000dce0:	004007b7          	lui	a5,0x400
8000dce4:	00000513          	li	a0,0
8000dce8:	7ff00713          	li	a4,2047
8000dcec:	00000493          	li	s1,0
8000dcf0:	cb9ff06f          	j	8000d9a8 <__subdf3+0xa8>
8000dcf4:	7ff00693          	li	a3,2047
8000dcf8:	cad704e3          	beq	a4,a3,8000d9a0 <__subdf3+0xa0>
8000dcfc:	00c50633          	add	a2,a0,a2
8000dd00:	00678833          	add	a6,a5,t1
8000dd04:	00a637b3          	sltu	a5,a2,a0
8000dd08:	00f80833          	add	a6,a6,a5
8000dd0c:	01f81513          	slli	a0,a6,0x1f
8000dd10:	00165613          	srli	a2,a2,0x1
8000dd14:	00c56533          	or	a0,a0,a2
8000dd18:	00185793          	srli	a5,a6,0x1
8000dd1c:	f91ff06f          	j	8000dcac <__subdf3+0x3ac>
8000dd20:	0f005e63          	blez	a6,8000de1c <__subdf3+0x51c>
8000dd24:	0a071263          	bnez	a4,8000ddc8 <__subdf3+0x4c8>
8000dd28:	00c36733          	or	a4,t1,a2
8000dd2c:	c60700e3          	beqz	a4,8000d98c <__subdf3+0x8c>
8000dd30:	fff80693          	addi	a3,a6,-1
8000dd34:	02069e63          	bnez	a3,8000dd70 <__subdf3+0x470>
8000dd38:	40c50633          	sub	a2,a0,a2
8000dd3c:	00c53533          	sltu	a0,a0,a2
8000dd40:	406787b3          	sub	a5,a5,t1
8000dd44:	40a787b3          	sub	a5,a5,a0
8000dd48:	00100713          	li	a4,1
8000dd4c:	00060513          	mv	a0,a2
8000dd50:	00879693          	slli	a3,a5,0x8
8000dd54:	f406dce3          	bgez	a3,8000dcac <__subdf3+0x3ac>
8000dd58:	00800437          	lui	s0,0x800
8000dd5c:	fff40413          	addi	s0,s0,-1 # 7fffff <_tbss_end+0x7fff7b>
8000dd60:	0087f433          	and	s0,a5,s0
8000dd64:	00050993          	mv	s3,a0
8000dd68:	00070913          	mv	s2,a4
8000dd6c:	2700006f          	j	8000dfdc <__subdf3+0x6dc>
8000dd70:	7ff00713          	li	a4,2047
8000dd74:	d4e800e3          	beq	a6,a4,8000dab4 <__subdf3+0x1b4>
8000dd78:	03800713          	li	a4,56
8000dd7c:	08d74a63          	blt	a4,a3,8000de10 <__subdf3+0x510>
8000dd80:	01f00713          	li	a4,31
8000dd84:	04d74e63          	blt	a4,a3,8000dde0 <__subdf3+0x4e0>
8000dd88:	02000713          	li	a4,32
8000dd8c:	40d70733          	sub	a4,a4,a3
8000dd90:	00d655b3          	srl	a1,a2,a3
8000dd94:	00e31833          	sll	a6,t1,a4
8000dd98:	00e61633          	sll	a2,a2,a4
8000dd9c:	00b86833          	or	a6,a6,a1
8000dda0:	00c03633          	snez	a2,a2
8000dda4:	00c86833          	or	a6,a6,a2
8000dda8:	00d356b3          	srl	a3,t1,a3
8000ddac:	41050833          	sub	a6,a0,a6
8000ddb0:	40d786b3          	sub	a3,a5,a3
8000ddb4:	010537b3          	sltu	a5,a0,a6
8000ddb8:	40f687b3          	sub	a5,a3,a5
8000ddbc:	00080513          	mv	a0,a6
8000ddc0:	00090713          	mv	a4,s2
8000ddc4:	f8dff06f          	j	8000dd50 <__subdf3+0x450>
8000ddc8:	7ff00713          	li	a4,2047
8000ddcc:	cee904e3          	beq	s2,a4,8000dab4 <__subdf3+0x1b4>
8000ddd0:	00800737          	lui	a4,0x800
8000ddd4:	00e36333          	or	t1,t1,a4
8000ddd8:	00080693          	mv	a3,a6
8000dddc:	f9dff06f          	j	8000dd78 <__subdf3+0x478>
8000dde0:	02000713          	li	a4,32
8000dde4:	00d35833          	srl	a6,t1,a3
8000dde8:	00000413          	li	s0,0
8000ddec:	00e68863          	beq	a3,a4,8000ddfc <__subdf3+0x4fc>
8000ddf0:	04000413          	li	s0,64
8000ddf4:	40d406b3          	sub	a3,s0,a3
8000ddf8:	00d31433          	sll	s0,t1,a3
8000ddfc:	00c46633          	or	a2,s0,a2
8000de00:	00c03633          	snez	a2,a2
8000de04:	00c86833          	or	a6,a6,a2
8000de08:	00000693          	li	a3,0
8000de0c:	fa1ff06f          	j	8000ddac <__subdf3+0x4ac>
8000de10:	00c36833          	or	a6,t1,a2
8000de14:	01003833          	snez	a6,a6
8000de18:	ff1ff06f          	j	8000de08 <__subdf3+0x508>
8000de1c:	0e080a63          	beqz	a6,8000df10 <__subdf3+0x610>
8000de20:	08091e63          	bnez	s2,8000debc <__subdf3+0x5bc>
8000de24:	00a7e6b3          	or	a3,a5,a0
8000de28:	02069063          	bnez	a3,8000de48 <__subdf3+0x548>
8000de2c:	7ff00793          	li	a5,2047
8000de30:	00f71663          	bne	a4,a5,8000de3c <__subdf3+0x53c>
8000de34:	00c36533          	or	a0,t1,a2
8000de38:	2a050863          	beqz	a0,8000e0e8 <__subdf3+0x7e8>
8000de3c:	00030793          	mv	a5,t1
8000de40:	00060513          	mv	a0,a2
8000de44:	0fc0006f          	j	8000df40 <__subdf3+0x640>
8000de48:	fff00693          	li	a3,-1
8000de4c:	00d81e63          	bne	a6,a3,8000de68 <__subdf3+0x568>
8000de50:	40a60533          	sub	a0,a2,a0
8000de54:	40f307b3          	sub	a5,t1,a5
8000de58:	00a63633          	sltu	a2,a2,a0
8000de5c:	40c787b3          	sub	a5,a5,a2
8000de60:	00088493          	mv	s1,a7
8000de64:	eedff06f          	j	8000dd50 <__subdf3+0x450>
8000de68:	7ff00693          	li	a3,2047
8000de6c:	fff84813          	not	a6,a6
8000de70:	fcd702e3          	beq	a4,a3,8000de34 <__subdf3+0x534>
8000de74:	03800693          	li	a3,56
8000de78:	0906c663          	blt	a3,a6,8000df04 <__subdf3+0x604>
8000de7c:	01f00693          	li	a3,31
8000de80:	0506ca63          	blt	a3,a6,8000ded4 <__subdf3+0x5d4>
8000de84:	02000593          	li	a1,32
8000de88:	410585b3          	sub	a1,a1,a6
8000de8c:	01055e33          	srl	t3,a0,a6
8000de90:	00b796b3          	sll	a3,a5,a1
8000de94:	00b51533          	sll	a0,a0,a1
8000de98:	01c6e6b3          	or	a3,a3,t3
8000de9c:	00a03533          	snez	a0,a0
8000dea0:	00a6e533          	or	a0,a3,a0
8000dea4:	0107d833          	srl	a6,a5,a6
8000dea8:	40a60533          	sub	a0,a2,a0
8000deac:	41030833          	sub	a6,t1,a6
8000deb0:	00a637b3          	sltu	a5,a2,a0
8000deb4:	40f807b3          	sub	a5,a6,a5
8000deb8:	fa9ff06f          	j	8000de60 <__subdf3+0x560>
8000debc:	7ff00693          	li	a3,2047
8000dec0:	f6d70ae3          	beq	a4,a3,8000de34 <__subdf3+0x534>
8000dec4:	008006b7          	lui	a3,0x800
8000dec8:	41000833          	neg	a6,a6
8000decc:	00d7e7b3          	or	a5,a5,a3
8000ded0:	fa5ff06f          	j	8000de74 <__subdf3+0x574>
8000ded4:	02000e13          	li	t3,32
8000ded8:	0107d6b3          	srl	a3,a5,a6
8000dedc:	00000593          	li	a1,0
8000dee0:	01c80863          	beq	a6,t3,8000def0 <__subdf3+0x5f0>
8000dee4:	04000593          	li	a1,64
8000dee8:	41058833          	sub	a6,a1,a6
8000deec:	010795b3          	sll	a1,a5,a6
8000def0:	00a5e533          	or	a0,a1,a0
8000def4:	00a03533          	snez	a0,a0
8000def8:	00a6e533          	or	a0,a3,a0
8000defc:	00000813          	li	a6,0
8000df00:	fa9ff06f          	j	8000dea8 <__subdf3+0x5a8>
8000df04:	00a7e533          	or	a0,a5,a0
8000df08:	00a03533          	snez	a0,a0
8000df0c:	ff1ff06f          	j	8000defc <__subdf3+0x5fc>
8000df10:	00190713          	addi	a4,s2,1
8000df14:	7ff77713          	andi	a4,a4,2047
8000df18:	00100693          	li	a3,1
8000df1c:	08e6ca63          	blt	a3,a4,8000dfb0 <__subdf3+0x6b0>
8000df20:	00a7e6b3          	or	a3,a5,a0
8000df24:	00c36733          	or	a4,t1,a2
8000df28:	06091463          	bnez	s2,8000df90 <__subdf3+0x690>
8000df2c:	00069e63          	bnez	a3,8000df48 <__subdf3+0x648>
8000df30:	1c070263          	beqz	a4,8000e0f4 <__subdf3+0x7f4>
8000df34:	00030793          	mv	a5,t1
8000df38:	00060513          	mv	a0,a2
8000df3c:	00000713          	li	a4,0
8000df40:	00088493          	mv	s1,a7
8000df44:	d69ff06f          	j	8000dcac <__subdf3+0x3ac>
8000df48:	04070063          	beqz	a4,8000df88 <__subdf3+0x688>
8000df4c:	40c506b3          	sub	a3,a0,a2
8000df50:	00d535b3          	sltu	a1,a0,a3
8000df54:	40678733          	sub	a4,a5,t1
8000df58:	40b70733          	sub	a4,a4,a1
8000df5c:	00871593          	slli	a1,a4,0x8
8000df60:	0005dc63          	bgez	a1,8000df78 <__subdf3+0x678>
8000df64:	40a60533          	sub	a0,a2,a0
8000df68:	40f307b3          	sub	a5,t1,a5
8000df6c:	00a63633          	sltu	a2,a2,a0
8000df70:	40c787b3          	sub	a5,a5,a2
8000df74:	fc9ff06f          	j	8000df3c <__subdf3+0x63c>
8000df78:	00e6e533          	or	a0,a3,a4
8000df7c:	0c050a63          	beqz	a0,8000e050 <__subdf3+0x750>
8000df80:	00070793          	mv	a5,a4
8000df84:	00068513          	mv	a0,a3
8000df88:	00000713          	li	a4,0
8000df8c:	d21ff06f          	j	8000dcac <__subdf3+0x3ac>
8000df90:	00069c63          	bnez	a3,8000dfa8 <__subdf3+0x6a8>
8000df94:	16070863          	beqz	a4,8000e104 <__subdf3+0x804>
8000df98:	00030793          	mv	a5,t1
8000df9c:	00060513          	mv	a0,a2
8000dfa0:	00088493          	mv	s1,a7
8000dfa4:	b19ff06f          	j	8000dabc <__subdf3+0x1bc>
8000dfa8:	b0070ae3          	beqz	a4,8000dabc <__subdf3+0x1bc>
8000dfac:	d35ff06f          	j	8000dce0 <__subdf3+0x3e0>
8000dfb0:	40c509b3          	sub	s3,a0,a2
8000dfb4:	40678433          	sub	s0,a5,t1
8000dfb8:	01353833          	sltu	a6,a0,s3
8000dfbc:	41040433          	sub	s0,s0,a6
8000dfc0:	00841713          	slli	a4,s0,0x8
8000dfc4:	08075263          	bgez	a4,8000e048 <__subdf3+0x748>
8000dfc8:	40a609b3          	sub	s3,a2,a0
8000dfcc:	40f30433          	sub	s0,t1,a5
8000dfd0:	013637b3          	sltu	a5,a2,s3
8000dfd4:	40f40433          	sub	s0,s0,a5
8000dfd8:	00088493          	mv	s1,a7
8000dfdc:	06040e63          	beqz	s0,8000e058 <__subdf3+0x758>
8000dfe0:	00040513          	mv	a0,s0
8000dfe4:	38c000ef          	jal	ra,8000e370 <__clzsi2>
8000dfe8:	ff850713          	addi	a4,a0,-8
8000dfec:	01f00793          	li	a5,31
8000dff0:	06e7cc63          	blt	a5,a4,8000e068 <__subdf3+0x768>
8000dff4:	02000793          	li	a5,32
8000dff8:	40e787b3          	sub	a5,a5,a4
8000dffc:	00e41433          	sll	s0,s0,a4
8000e000:	00f9d7b3          	srl	a5,s3,a5
8000e004:	0087e433          	or	s0,a5,s0
8000e008:	00e99533          	sll	a0,s3,a4
8000e00c:	0b274063          	blt	a4,s2,8000e0ac <__subdf3+0x7ac>
8000e010:	41270733          	sub	a4,a4,s2
8000e014:	00170793          	addi	a5,a4,1 # 800001 <_tbss_end+0x7fff7d>
8000e018:	01f00693          	li	a3,31
8000e01c:	04f6ce63          	blt	a3,a5,8000e078 <__subdf3+0x778>
8000e020:	02000713          	li	a4,32
8000e024:	40f70733          	sub	a4,a4,a5
8000e028:	00f55633          	srl	a2,a0,a5
8000e02c:	00e416b3          	sll	a3,s0,a4
8000e030:	00e51533          	sll	a0,a0,a4
8000e034:	00c6e6b3          	or	a3,a3,a2
8000e038:	00a03533          	snez	a0,a0
8000e03c:	00a6e533          	or	a0,a3,a0
8000e040:	00f457b3          	srl	a5,s0,a5
8000e044:	f45ff06f          	j	8000df88 <__subdf3+0x688>
8000e048:	0089e533          	or	a0,s3,s0
8000e04c:	f80518e3          	bnez	a0,8000dfdc <__subdf3+0x6dc>
8000e050:	00000793          	li	a5,0
8000e054:	0a80006f          	j	8000e0fc <__subdf3+0x7fc>
8000e058:	00098513          	mv	a0,s3
8000e05c:	314000ef          	jal	ra,8000e370 <__clzsi2>
8000e060:	02050513          	addi	a0,a0,32
8000e064:	f85ff06f          	j	8000dfe8 <__subdf3+0x6e8>
8000e068:	fd850413          	addi	s0,a0,-40
8000e06c:	00899433          	sll	s0,s3,s0
8000e070:	00000513          	li	a0,0
8000e074:	f99ff06f          	j	8000e00c <__subdf3+0x70c>
8000e078:	fe170713          	addi	a4,a4,-31
8000e07c:	02000613          	li	a2,32
8000e080:	00e45733          	srl	a4,s0,a4
8000e084:	00000693          	li	a3,0
8000e088:	00c78863          	beq	a5,a2,8000e098 <__subdf3+0x798>
8000e08c:	04000693          	li	a3,64
8000e090:	40f686b3          	sub	a3,a3,a5
8000e094:	00d416b3          	sll	a3,s0,a3
8000e098:	00d56533          	or	a0,a0,a3
8000e09c:	00a03533          	snez	a0,a0
8000e0a0:	00a76533          	or	a0,a4,a0
8000e0a4:	00000793          	li	a5,0
8000e0a8:	ee1ff06f          	j	8000df88 <__subdf3+0x688>
8000e0ac:	ff8007b7          	lui	a5,0xff800
8000e0b0:	fff78793          	addi	a5,a5,-1 # ff7fffff <__global_pointer$+0x7f7f141f>
8000e0b4:	40e90733          	sub	a4,s2,a4
8000e0b8:	00f477b3          	and	a5,s0,a5
8000e0bc:	bf1ff06f          	j	8000dcac <__subdf3+0x3ac>
8000e0c0:	00030793          	mv	a5,t1
8000e0c4:	00060513          	mv	a0,a2
8000e0c8:	ec1ff06f          	j	8000df88 <__subdf3+0x688>
8000e0cc:	00030793          	mv	a5,t1
8000e0d0:	00060513          	mv	a0,a2
8000e0d4:	9e9ff06f          	j	8000dabc <__subdf3+0x1bc>
8000e0d8:	00000793          	li	a5,0
8000e0dc:	00000513          	li	a0,0
8000e0e0:	7ff00713          	li	a4,2047
8000e0e4:	8c5ff06f          	j	8000d9a8 <__subdf3+0xa8>
8000e0e8:	00000793          	li	a5,0
8000e0ec:	00088493          	mv	s1,a7
8000e0f0:	8b9ff06f          	j	8000d9a8 <__subdf3+0xa8>
8000e0f4:	00000793          	li	a5,0
8000e0f8:	00000513          	li	a0,0
8000e0fc:	00000713          	li	a4,0
8000e100:	bedff06f          	j	8000dcec <__subdf3+0x3ec>
8000e104:	00000513          	li	a0,0
8000e108:	004007b7          	lui	a5,0x400
8000e10c:	bddff06f          	j	8000dce8 <__subdf3+0x3e8>
8000e110:	00000793          	li	a5,0
8000e114:	00000513          	li	a0,0
8000e118:	8b1ff06f          	j	8000d9c8 <__subdf3+0xc8>

8000e11c <__floatundidf>:
8000e11c:	fe010113          	addi	sp,sp,-32
8000e120:	00112e23          	sw	ra,28(sp)
8000e124:	00812c23          	sw	s0,24(sp)
8000e128:	00912a23          	sw	s1,20(sp)
8000e12c:	01212823          	sw	s2,16(sp)
8000e130:	01312623          	sw	s3,12(sp)
8000e134:	01412423          	sw	s4,8(sp)
8000e138:	00b567b3          	or	a5,a0,a1
8000e13c:	1a078a63          	beqz	a5,8000e2f0 <__floatundidf+0x1d4>
8000e140:	00050493          	mv	s1,a0
8000e144:	00058913          	mv	s2,a1
8000e148:	00058413          	mv	s0,a1
8000e14c:	0a058663          	beqz	a1,8000e1f8 <__floatundidf+0xdc>
8000e150:	00058513          	mv	a0,a1
8000e154:	21c000ef          	jal	ra,8000e370 <__clzsi2>
8000e158:	00050993          	mv	s3,a0
8000e15c:	43e00a13          	li	s4,1086
8000e160:	413a0a33          	sub	s4,s4,s3
8000e164:	43300793          	li	a5,1075
8000e168:	0b47c663          	blt	a5,s4,8000e214 <__floatundidf+0xf8>
8000e16c:	00b00793          	li	a5,11
8000e170:	00048513          	mv	a0,s1
8000e174:	0337d463          	ble	s3,a5,8000e19c <__floatundidf+0x80>
8000e178:	02a00793          	li	a5,42
8000e17c:	0937c463          	blt	a5,s3,8000e204 <__floatundidf+0xe8>
8000e180:	02b00593          	li	a1,43
8000e184:	ff598793          	addi	a5,s3,-11
8000e188:	413585b3          	sub	a1,a1,s3
8000e18c:	00b4d5b3          	srl	a1,s1,a1
8000e190:	00f91433          	sll	s0,s2,a5
8000e194:	0085e433          	or	s0,a1,s0
8000e198:	00f49533          	sll	a0,s1,a5
8000e19c:	001005b7          	lui	a1,0x100
8000e1a0:	fff58593          	addi	a1,a1,-1 # fffff <_tbss_end+0xfff7b>
8000e1a4:	00b475b3          	and	a1,s0,a1
8000e1a8:	80100437          	lui	s0,0x80100
8000e1ac:	fff40413          	addi	s0,s0,-1 # 800fffff <__global_pointer$+0xf141f>
8000e1b0:	7ffa7a13          	andi	s4,s4,2047
8000e1b4:	014a1a13          	slli	s4,s4,0x14
8000e1b8:	0085f5b3          	and	a1,a1,s0
8000e1bc:	01c12083          	lw	ra,28(sp)
8000e1c0:	01812403          	lw	s0,24(sp)
8000e1c4:	800007b7          	lui	a5,0x80000
8000e1c8:	0145e5b3          	or	a1,a1,s4
8000e1cc:	fff7c793          	not	a5,a5
8000e1d0:	00050713          	mv	a4,a0
8000e1d4:	00f5f7b3          	and	a5,a1,a5
8000e1d8:	01412483          	lw	s1,20(sp)
8000e1dc:	01012903          	lw	s2,16(sp)
8000e1e0:	00c12983          	lw	s3,12(sp)
8000e1e4:	00812a03          	lw	s4,8(sp)
8000e1e8:	00070513          	mv	a0,a4
8000e1ec:	00078593          	mv	a1,a5
8000e1f0:	02010113          	addi	sp,sp,32
8000e1f4:	00008067          	ret
8000e1f8:	178000ef          	jal	ra,8000e370 <__clzsi2>
8000e1fc:	02050993          	addi	s3,a0,32
8000e200:	f5dff06f          	j	8000e15c <__floatundidf+0x40>
8000e204:	fd598593          	addi	a1,s3,-43
8000e208:	00b49433          	sll	s0,s1,a1
8000e20c:	00000513          	li	a0,0
8000e210:	f8dff06f          	j	8000e19c <__floatundidf+0x80>
8000e214:	43600793          	li	a5,1078
8000e218:	0347dc63          	ble	s4,a5,8000e250 <__floatundidf+0x134>
8000e21c:	03898613          	addi	a2,s3,56
8000e220:	00048513          	mv	a0,s1
8000e224:	00090593          	mv	a1,s2
8000e228:	110000ef          	jal	ra,8000e338 <__ashldi3>
8000e22c:	00b565b3          	or	a1,a0,a1
8000e230:	00800613          	li	a2,8
8000e234:	00b03433          	snez	s0,a1
8000e238:	00048513          	mv	a0,s1
8000e23c:	00090593          	mv	a1,s2
8000e240:	41360633          	sub	a2,a2,s3
8000e244:	0bc000ef          	jal	ra,8000e300 <__lshrdi3>
8000e248:	00a464b3          	or	s1,s0,a0
8000e24c:	00058913          	mv	s2,a1
8000e250:	00800793          	li	a5,8
8000e254:	00048513          	mv	a0,s1
8000e258:	0337d463          	ble	s3,a5,8000e280 <__floatundidf+0x164>
8000e25c:	02700793          	li	a5,39
8000e260:	0937c063          	blt	a5,s3,8000e2e0 <__floatundidf+0x1c4>
8000e264:	02800593          	li	a1,40
8000e268:	ff898793          	addi	a5,s3,-8
8000e26c:	413585b3          	sub	a1,a1,s3
8000e270:	00f91933          	sll	s2,s2,a5
8000e274:	00b4d5b3          	srl	a1,s1,a1
8000e278:	0125e933          	or	s2,a1,s2
8000e27c:	00f49533          	sll	a0,s1,a5
8000e280:	ff8007b7          	lui	a5,0xff800
8000e284:	fff78793          	addi	a5,a5,-1 # ff7fffff <__global_pointer$+0x7f7f141f>
8000e288:	00f975b3          	and	a1,s2,a5
8000e28c:	00757793          	andi	a5,a0,7
8000e290:	02078063          	beqz	a5,8000e2b0 <__floatundidf+0x194>
8000e294:	00f57793          	andi	a5,a0,15
8000e298:	00400713          	li	a4,4
8000e29c:	00e78a63          	beq	a5,a4,8000e2b0 <__floatundidf+0x194>
8000e2a0:	00450793          	addi	a5,a0,4
8000e2a4:	00a7b533          	sltu	a0,a5,a0
8000e2a8:	00a585b3          	add	a1,a1,a0
8000e2ac:	00078513          	mv	a0,a5
8000e2b0:	00859793          	slli	a5,a1,0x8
8000e2b4:	0007dc63          	bgez	a5,8000e2cc <__floatundidf+0x1b0>
8000e2b8:	ff8007b7          	lui	a5,0xff800
8000e2bc:	fff78793          	addi	a5,a5,-1 # ff7fffff <__global_pointer$+0x7f7f141f>
8000e2c0:	43f00a13          	li	s4,1087
8000e2c4:	00f5f5b3          	and	a1,a1,a5
8000e2c8:	413a0a33          	sub	s4,s4,s3
8000e2cc:	00355513          	srli	a0,a0,0x3
8000e2d0:	01d59793          	slli	a5,a1,0x1d
8000e2d4:	00a7e533          	or	a0,a5,a0
8000e2d8:	0035d413          	srli	s0,a1,0x3
8000e2dc:	ec1ff06f          	j	8000e19c <__floatundidf+0x80>
8000e2e0:	fd898913          	addi	s2,s3,-40
8000e2e4:	01249933          	sll	s2,s1,s2
8000e2e8:	00000513          	li	a0,0
8000e2ec:	f95ff06f          	j	8000e280 <__floatundidf+0x164>
8000e2f0:	00000413          	li	s0,0
8000e2f4:	00000513          	li	a0,0
8000e2f8:	00000a13          	li	s4,0
8000e2fc:	ea1ff06f          	j	8000e19c <__floatundidf+0x80>

8000e300 <__lshrdi3>:
8000e300:	02060063          	beqz	a2,8000e320 <__lshrdi3+0x20>
8000e304:	02000793          	li	a5,32
8000e308:	40c787b3          	sub	a5,a5,a2
8000e30c:	00f04c63          	bgtz	a5,8000e324 <__lshrdi3+0x24>
8000e310:	40f00533          	neg	a0,a5
8000e314:	00000713          	li	a4,0
8000e318:	00a5d533          	srl	a0,a1,a0
8000e31c:	00070593          	mv	a1,a4
8000e320:	00008067          	ret
8000e324:	00c5d733          	srl	a4,a1,a2
8000e328:	00c55533          	srl	a0,a0,a2
8000e32c:	00f595b3          	sll	a1,a1,a5
8000e330:	00b56533          	or	a0,a0,a1
8000e334:	fe9ff06f          	j	8000e31c <__lshrdi3+0x1c>

8000e338 <__ashldi3>:
8000e338:	02060063          	beqz	a2,8000e358 <__ashldi3+0x20>
8000e33c:	02000793          	li	a5,32
8000e340:	40c787b3          	sub	a5,a5,a2
8000e344:	00f04c63          	bgtz	a5,8000e35c <__ashldi3+0x24>
8000e348:	40f005b3          	neg	a1,a5
8000e34c:	00000713          	li	a4,0
8000e350:	00b515b3          	sll	a1,a0,a1
8000e354:	00070513          	mv	a0,a4
8000e358:	00008067          	ret
8000e35c:	00c51733          	sll	a4,a0,a2
8000e360:	00c595b3          	sll	a1,a1,a2
8000e364:	00f55533          	srl	a0,a0,a5
8000e368:	00a5e5b3          	or	a1,a1,a0
8000e36c:	fe9ff06f          	j	8000e354 <__ashldi3+0x1c>

8000e370 <__clzsi2>:
8000e370:	000107b7          	lui	a5,0x10
8000e374:	02f57863          	bleu	a5,a0,8000e3a4 <__clzsi2+0x34>
8000e378:	0ff00793          	li	a5,255
8000e37c:	00a7b7b3          	sltu	a5,a5,a0
8000e380:	00379793          	slli	a5,a5,0x3
8000e384:	02000713          	li	a4,32
8000e388:	40f70733          	sub	a4,a4,a5
8000e38c:	00f557b3          	srl	a5,a0,a5
8000e390:	a8018513          	addi	a0,gp,-1408 # 8000e660 <__clz_tab>
8000e394:	00a787b3          	add	a5,a5,a0
8000e398:	0007c503          	lbu	a0,0(a5) # 10000 <_tbss_end+0xff7c>
8000e39c:	40a70533          	sub	a0,a4,a0
8000e3a0:	00008067          	ret
8000e3a4:	01000737          	lui	a4,0x1000
8000e3a8:	01000793          	li	a5,16
8000e3ac:	fce56ce3          	bltu	a0,a4,8000e384 <__clzsi2+0x14>
8000e3b0:	01800793          	li	a5,24
8000e3b4:	fd1ff06f          	j	8000e384 <__clzsi2+0x14>

Disassembly of section .text.startup:

8000e3b8 <main>:
8000e3b8:	ff010113          	addi	sp,sp,-16
8000e3bc:	00000517          	auipc	a0,0x0
8000e3c0:	0ec50513          	addi	a0,a0,236 # 8000e4a8 <main+0xf0>
8000e3c4:	00112623          	sw	ra,12(sp)
8000e3c8:	d6cfd0ef          	jal	ra,8000b934 <printstr>
8000e3cc:	00c12083          	lw	ra,12(sp)
8000e3d0:	fff00513          	li	a0,-1
8000e3d4:	01010113          	addi	sp,sp,16
8000e3d8:	00008067          	ret
