
mt-matmul.riscv:     file format elf32-littleriscv


Disassembly of section .text:

80001048 <matmul>:
80001048:	02b65833          	divu	a6,a2,a1
8000104c:	fe010113          	addi	sp,sp,-32
80001050:	01212a23          	sw	s2,20(sp)
80001054:	00812e23          	sw	s0,28(sp)
80001058:	00912c23          	sw	s1,24(sp)
8000105c:	01312823          	sw	s3,16(sp)
80001060:	01412623          	sw	s4,12(sp)
80001064:	02a80933          	mul	s2,a6,a0
80001068:	20060663          	beqz	a2,80001274 <matmul+0x22c>
8000106c:	00261e13          	slli	t3,a2,0x2
80001070:	00190593          	addi	a1,s2,1
80001074:	01280533          	add	a0,a6,s2
80001078:	00000493          	li	s1,0
8000107c:	03c90a33          	mul	s4,s2,t3
80001080:	03c585b3          	mul	a1,a1,t3
80001084:	01478433          	add	s0,a5,s4
80001088:	01468a33          	add	s4,a3,s4
8000108c:	00b689b3          	add	s3,a3,a1
80001090:	1ca97a63          	bleu	a0,s2,80001264 <matmul+0x21c>
80001094:	00098e93          	mv	t4,s3
80001098:	000a0f93          	mv	t6,s4
8000109c:	00040393          	mv	t2,s0
800010a0:	00090293          	mv	t0,s2
800010a4:	41fe85b3          	sub	a1,t4,t6
800010a8:	ffc58593          	addi	a1,a1,-4
800010ac:	0025d593          	srli	a1,a1,0x2
800010b0:	00158593          	addi	a1,a1,1
800010b4:	0075f593          	andi	a1,a1,7
800010b8:	00070793          	mv	a5,a4
800010bc:	000f8313          	mv	t1,t6
800010c0:	00000693          	li	a3,0
800010c4:	0c058e63          	beqz	a1,800011a0 <matmul+0x158>
800010c8:	00100813          	li	a6,1
800010cc:	0b058c63          	beq	a1,a6,80001184 <matmul+0x13c>
800010d0:	00200813          	li	a6,2
800010d4:	09058c63          	beq	a1,a6,8000116c <matmul+0x124>
800010d8:	00300813          	li	a6,3
800010dc:	07058c63          	beq	a1,a6,80001154 <matmul+0x10c>
800010e0:	00400813          	li	a6,4
800010e4:	05058c63          	beq	a1,a6,8000113c <matmul+0xf4>
800010e8:	00500813          	li	a6,5
800010ec:	03058c63          	beq	a1,a6,80001124 <matmul+0xdc>
800010f0:	00600813          	li	a6,6
800010f4:	01058c63          	beq	a1,a6,8000110c <matmul+0xc4>
800010f8:	000fa803          	lw	a6,0(t6)
800010fc:	00072583          	lw	a1,0(a4)
80001100:	004f8313          	addi	t1,t6,4
80001104:	01c707b3          	add	a5,a4,t3
80001108:	02b806b3          	mul	a3,a6,a1
8000110c:	00032803          	lw	a6,0(t1)
80001110:	0007a583          	lw	a1,0(a5)
80001114:	00430313          	addi	t1,t1,4
80001118:	01c787b3          	add	a5,a5,t3
8000111c:	02b808b3          	mul	a7,a6,a1
80001120:	011686b3          	add	a3,a3,a7
80001124:	00032803          	lw	a6,0(t1)
80001128:	0007a583          	lw	a1,0(a5)
8000112c:	00430313          	addi	t1,t1,4
80001130:	01c787b3          	add	a5,a5,t3
80001134:	02b808b3          	mul	a7,a6,a1
80001138:	011686b3          	add	a3,a3,a7
8000113c:	00032803          	lw	a6,0(t1)
80001140:	0007a583          	lw	a1,0(a5)
80001144:	00430313          	addi	t1,t1,4
80001148:	01c787b3          	add	a5,a5,t3
8000114c:	02b808b3          	mul	a7,a6,a1
80001150:	011686b3          	add	a3,a3,a7
80001154:	00032803          	lw	a6,0(t1)
80001158:	0007a583          	lw	a1,0(a5)
8000115c:	00430313          	addi	t1,t1,4
80001160:	01c787b3          	add	a5,a5,t3
80001164:	02b808b3          	mul	a7,a6,a1
80001168:	011686b3          	add	a3,a3,a7
8000116c:	00032803          	lw	a6,0(t1)
80001170:	0007a583          	lw	a1,0(a5)
80001174:	00430313          	addi	t1,t1,4
80001178:	01c787b3          	add	a5,a5,t3
8000117c:	02b808b3          	mul	a7,a6,a1
80001180:	011686b3          	add	a3,a3,a7
80001184:	00032803          	lw	a6,0(t1)
80001188:	0007a583          	lw	a1,0(a5)
8000118c:	00430313          	addi	t1,t1,4
80001190:	01c787b3          	add	a5,a5,t3
80001194:	02b808b3          	mul	a7,a6,a1
80001198:	011686b3          	add	a3,a3,a7
8000119c:	0a6e8863          	beq	t4,t1,8000124c <matmul+0x204>
800011a0:	00032803          	lw	a6,0(t1)
800011a4:	0007a583          	lw	a1,0(a5)
800011a8:	01c787b3          	add	a5,a5,t3
800011ac:	00430f13          	addi	t5,t1,4
800011b0:	02b808b3          	mul	a7,a6,a1
800011b4:	00432803          	lw	a6,4(t1)
800011b8:	0007a583          	lw	a1,0(a5)
800011bc:	01c787b3          	add	a5,a5,t3
800011c0:	02030313          	addi	t1,t1,32
800011c4:	011686b3          	add	a3,a3,a7
800011c8:	02b808b3          	mul	a7,a6,a1
800011cc:	fe832803          	lw	a6,-24(t1)
800011d0:	0007a583          	lw	a1,0(a5)
800011d4:	01c787b3          	add	a5,a5,t3
800011d8:	011686b3          	add	a3,a3,a7
800011dc:	02b808b3          	mul	a7,a6,a1
800011e0:	0007a583          	lw	a1,0(a5)
800011e4:	008f2803          	lw	a6,8(t5)
800011e8:	01c787b3          	add	a5,a5,t3
800011ec:	011686b3          	add	a3,a3,a7
800011f0:	02b808b3          	mul	a7,a6,a1
800011f4:	0007a583          	lw	a1,0(a5)
800011f8:	00cf2803          	lw	a6,12(t5)
800011fc:	01c787b3          	add	a5,a5,t3
80001200:	011686b3          	add	a3,a3,a7
80001204:	02b808b3          	mul	a7,a6,a1
80001208:	0007a583          	lw	a1,0(a5)
8000120c:	010f2803          	lw	a6,16(t5)
80001210:	01c787b3          	add	a5,a5,t3
80001214:	011686b3          	add	a3,a3,a7
80001218:	02b808b3          	mul	a7,a6,a1
8000121c:	0007a583          	lw	a1,0(a5)
80001220:	014f2803          	lw	a6,20(t5)
80001224:	01c787b3          	add	a5,a5,t3
80001228:	011686b3          	add	a3,a3,a7
8000122c:	02b808b3          	mul	a7,a6,a1
80001230:	0007a583          	lw	a1,0(a5)
80001234:	018f2803          	lw	a6,24(t5)
80001238:	01c787b3          	add	a5,a5,t3
8000123c:	011686b3          	add	a3,a3,a7
80001240:	02b808b3          	mul	a7,a6,a1
80001244:	011686b3          	add	a3,a3,a7
80001248:	f46e9ce3          	bne	t4,t1,800011a0 <matmul+0x158>
8000124c:	00d3a023          	sw	a3,0(t2)
80001250:	00128293          	addi	t0,t0,1
80001254:	01c383b3          	add	t2,t2,t3
80001258:	01cf8fb3          	add	t6,t6,t3
8000125c:	01ce8eb3          	add	t4,t4,t3
80001260:	e4a292e3          	bne	t0,a0,800010a4 <matmul+0x5c>
80001264:	00148493          	addi	s1,s1,1
80001268:	00470713          	addi	a4,a4,4
8000126c:	00440413          	addi	s0,s0,4
80001270:	e29610e3          	bne	a2,s1,80001090 <matmul+0x48>
80001274:	01c12403          	lw	s0,28(sp)
80001278:	01812483          	lw	s1,24(sp)
8000127c:	01412903          	lw	s2,20(sp)
80001280:	01012983          	lw	s3,16(sp)
80001284:	00c12a03          	lw	s4,12(sp)
80001288:	02010113          	addi	sp,sp,32
8000128c:	00008067          	ret

80001290 <barrier>:
80001290:	0ff0000f          	fence
80001294:	00022683          	lw	a3,0(tp) # 0 <_tdata_begin>
80001298:	00003717          	auipc	a4,0x3
8000129c:	8b470713          	addi	a4,a4,-1868 # 80003b4c <count.3034>
800012a0:	00100613          	li	a2,1
800012a4:	0016b693          	seqz	a3,a3
800012a8:	00d22023          	sw	a3,0(tp) # 0 <_tdata_begin>
800012ac:	0f50000f          	fence	iorw,ow
800012b0:	04c726af          	amoadd.w.aq	a3,a2,(a4)
800012b4:	fff50513          	addi	a0,a0,-1
800012b8:	02a68063          	beq	a3,a0,800012d8 <barrier+0x48>
800012bc:	00022683          	lw	a3,0(tp) # 0 <_tdata_begin>
800012c0:	00003717          	auipc	a4,0x3
800012c4:	88870713          	addi	a4,a4,-1912 # 80003b48 <sense.3033>
800012c8:	00072783          	lw	a5,0(a4)
800012cc:	fed79ee3          	bne	a5,a3,800012c8 <barrier+0x38>
800012d0:	0ff0000f          	fence
800012d4:	00008067          	ret
800012d8:	00022783          	lw	a5,0(tp) # 0 <_tdata_begin>
800012dc:	00003717          	auipc	a4,0x3
800012e0:	86072823          	sw	zero,-1936(a4) # 80003b4c <count.3034>
800012e4:	00003717          	auipc	a4,0x3
800012e8:	86f72223          	sw	a5,-1948(a4) # 80003b48 <sense.3033>
800012ec:	fe5ff06f          	j	800012d0 <barrier+0x40>

800012f0 <thread_entry>:
800012f0:	fe010113          	addi	sp,sp,-32
800012f4:	00812c23          	sw	s0,24(sp)
800012f8:	00912a23          	sw	s1,20(sp)
800012fc:	00112e23          	sw	ra,28(sp)
80001300:	01212823          	sw	s2,16(sp)
80001304:	01312623          	sw	s3,12(sp)
80001308:	00050413          	mv	s0,a0
8000130c:	00058493          	mv	s1,a1
80001310:	b00029f3          	csrr	s3,mcycle
80001314:	b0202973          	csrr	s2,minstret
80001318:	00003797          	auipc	a5,0x3
8000131c:	84878793          	addi	a5,a5,-1976 # 80003b60 <results_data.3057>
80001320:	00002717          	auipc	a4,0x2
80001324:	c2870713          	addi	a4,a4,-984 # 80002f48 <input2_data>
80001328:	00002697          	auipc	a3,0x2
8000132c:	02068693          	addi	a3,a3,32 # 80003348 <input1_data>
80001330:	01000613          	li	a2,16
80001334:	d15ff0ef          	jal	ra,80001048 <matmul>
80001338:	00048513          	mv	a0,s1
8000133c:	f55ff0ef          	jal	ra,80001290 <barrier>
80001340:	b00027f3          	csrr	a5,mcycle
80001344:	b02026f3          	csrr	a3,minstret
80001348:	04040a63          	beqz	s0,8000139c <thread_entry+0xac>
8000134c:	00003717          	auipc	a4,0x3
80001350:	81470713          	addi	a4,a4,-2028 # 80003b60 <results_data.3057>
80001354:	00002797          	auipc	a5,0x2
80001358:	3f478793          	addi	a5,a5,1012 # 80003748 <verify_data>
8000135c:	00000513          	li	a0,0
80001360:	10000893          	li	a7,256
80001364:	00072603          	lw	a2,0(a4)
80001368:	0007a683          	lw	a3,0(a5)
8000136c:	00472803          	lw	a6,4(a4)
80001370:	0047a583          	lw	a1,4(a5)
80001374:	02d61063          	bne	a2,a3,80001394 <thread_entry+0xa4>
80001378:	00250513          	addi	a0,a0,2
8000137c:	00b81a63          	bne	a6,a1,80001390 <thread_entry+0xa0>
80001380:	00870713          	addi	a4,a4,8
80001384:	00878793          	addi	a5,a5,8
80001388:	fd151ee3          	bne	a0,a7,80001364 <thread_entry+0x74>
8000138c:	00000513          	li	a0,0
80001390:	720000ef          	jal	ra,80001ab0 <exit>
80001394:	00150513          	addi	a0,a0,1
80001398:	ff9ff06f          	j	80001390 <thread_entry+0xa0>
8000139c:	413787b3          	sub	a5,a5,s3
800013a0:	00a00713          	li	a4,10
800013a4:	02e78333          	mul	t1,a5,a4
800013a8:	41268933          	sub	s2,a3,s2
800013ac:	00078613          	mv	a2,a5
800013b0:	00c7d693          	srli	a3,a5,0xc
800013b4:	00002597          	auipc	a1,0x2
800013b8:	82c58593          	addi	a1,a1,-2004 # 80002be0 <main+0x24>
800013bc:	00002517          	auipc	a0,0x2
800013c0:	87050513          	addi	a0,a0,-1936 # 80002c2c <main+0x70>
800013c4:	03235833          	divu	a6,t1,s2
800013c8:	00c35313          	srli	t1,t1,0xc
800013cc:	02e87833          	remu	a6,a6,a4
800013d0:	0327d7b3          	divu	a5,a5,s2
800013d4:	02e37733          	remu	a4,t1,a4
800013d8:	7a4000ef          	jal	ra,80001b7c <printf>
800013dc:	f71ff06f          	j	8000134c <thread_entry+0x5c>

800013e0 <vprintfmt>:
800013e0:	eb010113          	addi	sp,sp,-336
800013e4:	13a12023          	sw	s10,288(sp)
800013e8:	40000d37          	lui	s10,0x40000
800013ec:	fffd0793          	addi	a5,s10,-1 # 3fffffff <_tbss_end+0x3fffff7b>
800013f0:	14812423          	sw	s0,328(sp)
800013f4:	14912223          	sw	s1,324(sp)
800013f8:	15212023          	sw	s2,320(sp)
800013fc:	13512a23          	sw	s5,308(sp)
80001400:	14112623          	sw	ra,332(sp)
80001404:	13312e23          	sw	s3,316(sp)
80001408:	13412c23          	sw	s4,312(sp)
8000140c:	13612823          	sw	s6,304(sp)
80001410:	13712623          	sw	s7,300(sp)
80001414:	13812423          	sw	s8,296(sp)
80001418:	13912223          	sw	s9,292(sp)
8000141c:	11b12e23          	sw	s11,284(sp)
80001420:	00050913          	mv	s2,a0
80001424:	00058493          	mv	s1,a1
80001428:	00060413          	mv	s0,a2
8000142c:	00d12423          	sw	a3,8(sp)
80001430:	02500a93          	li	s5,37
80001434:	00f12623          	sw	a5,12(sp)
80001438:	0140006f          	j	8000144c <vprintfmt+0x6c>
8000143c:	06050463          	beqz	a0,800014a4 <vprintfmt+0xc4>
80001440:	00048593          	mv	a1,s1
80001444:	00140413          	addi	s0,s0,1
80001448:	000900e7          	jalr	s2
8000144c:	00044503          	lbu	a0,0(s0)
80001450:	ff5516e3          	bne	a0,s5,8000143c <vprintfmt+0x5c>
80001454:	00144683          	lbu	a3,1(s0)
80001458:	00140b13          	addi	s6,s0,1
8000145c:	000b0713          	mv	a4,s6
80001460:	02000b93          	li	s7,32
80001464:	fff00a13          	li	s4,-1
80001468:	fff00993          	li	s3,-1
8000146c:	00000593          	li	a1,0
80001470:	05500513          	li	a0,85
80001474:	00900813          	li	a6,9
80001478:	fdd68793          	addi	a5,a3,-35
8000147c:	0ff7f793          	andi	a5,a5,255
80001480:	00170413          	addi	s0,a4,1
80001484:	34f56a63          	bltu	a0,a5,800017d8 <vprintfmt+0x3f8>
80001488:	00002617          	auipc	a2,0x2
8000148c:	81860613          	addi	a2,a2,-2024 # 80002ca0 <main+0xe4>
80001490:	00279793          	slli	a5,a5,0x2
80001494:	00c787b3          	add	a5,a5,a2
80001498:	0007a783          	lw	a5,0(a5)
8000149c:	00c787b3          	add	a5,a5,a2
800014a0:	00078067          	jr	a5
800014a4:	14c12083          	lw	ra,332(sp)
800014a8:	14812403          	lw	s0,328(sp)
800014ac:	14412483          	lw	s1,324(sp)
800014b0:	14012903          	lw	s2,320(sp)
800014b4:	13c12983          	lw	s3,316(sp)
800014b8:	13812a03          	lw	s4,312(sp)
800014bc:	13412a83          	lw	s5,308(sp)
800014c0:	13012b03          	lw	s6,304(sp)
800014c4:	12c12b83          	lw	s7,300(sp)
800014c8:	12812c03          	lw	s8,296(sp)
800014cc:	12412c83          	lw	s9,292(sp)
800014d0:	12012d03          	lw	s10,288(sp)
800014d4:	11c12d83          	lw	s11,284(sp)
800014d8:	15010113          	addi	sp,sp,336
800014dc:	00008067          	ret
800014e0:	00800b13          	li	s6,8
800014e4:	00012223          	sw	zero,4(sp)
800014e8:	00100793          	li	a5,1
800014ec:	26b7d863          	ble	a1,a5,8000175c <vprintfmt+0x37c>
800014f0:	00812783          	lw	a5,8(sp)
800014f4:	00778c93          	addi	s9,a5,7
800014f8:	ff8cf793          	andi	a5,s9,-8
800014fc:	0007ad83          	lw	s11,0(a5)
80001500:	0047ac03          	lw	s8,4(a5)
80001504:	00878713          	addi	a4,a5,8
80001508:	00e12423          	sw	a4,8(sp)
8000150c:	000b0613          	mv	a2,s6
80001510:	00000693          	li	a3,0
80001514:	000d8513          	mv	a0,s11
80001518:	000c0593          	mv	a1,s8
8000151c:	290010ef          	jal	ra,800027ac <__umoddi3>
80001520:	00a12823          	sw	a0,16(sp)
80001524:	00000793          	li	a5,0
80001528:	2d878263          	beq	a5,s8,800017ec <vprintfmt+0x40c>
8000152c:	01410c93          	addi	s9,sp,20
80001530:	00100a13          	li	s4,1
80001534:	000b0613          	mv	a2,s6
80001538:	00000693          	li	a3,0
8000153c:	000d8513          	mv	a0,s11
80001540:	000c0593          	mv	a1,s8
80001544:	635000ef          	jal	ra,80002378 <__udivdi3>
80001548:	000b0613          	mv	a2,s6
8000154c:	00000693          	li	a3,0
80001550:	00050d93          	mv	s11,a0
80001554:	00058c13          	mv	s8,a1
80001558:	254010ef          	jal	ra,800027ac <__umoddi3>
8000155c:	00412783          	lw	a5,4(sp)
80001560:	00aca023          	sw	a0,0(s9)
80001564:	001a0d13          	addi	s10,s4,1
80001568:	004c8c93          	addi	s9,s9,4
8000156c:	01878663          	beq	a5,s8,80001578 <vprintfmt+0x198>
80001570:	000d0a13          	mv	s4,s10
80001574:	fc1ff06f          	j	80001534 <vprintfmt+0x154>
80001578:	ff6dfce3          	bleu	s6,s11,80001570 <vprintfmt+0x190>
8000157c:	013d5c63          	ble	s3,s10,80001594 <vprintfmt+0x1b4>
80001580:	fff98993          	addi	s3,s3,-1
80001584:	00048593          	mv	a1,s1
80001588:	000b8513          	mv	a0,s7
8000158c:	000900e7          	jalr	s2
80001590:	ff3d48e3          	blt	s10,s3,80001580 <vprintfmt+0x1a0>
80001594:	002a1793          	slli	a5,s4,0x2
80001598:	11010713          	addi	a4,sp,272
8000159c:	00f707b3          	add	a5,a4,a5
800015a0:	f007a503          	lw	a0,-256(a5)
800015a4:	00c12783          	lw	a5,12(sp)
800015a8:	00900b13          	li	s6,9
800015ac:	00fa09b3          	add	s3,s4,a5
800015b0:	00299993          	slli	s3,s3,0x2
800015b4:	01010793          	addi	a5,sp,16
800015b8:	013789b3          	add	s3,a5,s3
800015bc:	0100006f          	j	800015cc <vprintfmt+0x1ec>
800015c0:	0009a503          	lw	a0,0(s3)
800015c4:	fffa0a13          	addi	s4,s4,-1
800015c8:	ffc98993          	addi	s3,s3,-4
800015cc:	03000793          	li	a5,48
800015d0:	00ab7463          	bleu	a0,s6,800015d8 <vprintfmt+0x1f8>
800015d4:	05700793          	li	a5,87
800015d8:	00048593          	mv	a1,s1
800015dc:	00a78533          	add	a0,a5,a0
800015e0:	000900e7          	jalr	s2
800015e4:	fd404ee3          	bgtz	s4,800015c0 <vprintfmt+0x1e0>
800015e8:	e65ff06f          	j	8000144c <vprintfmt+0x6c>
800015ec:	03000513          	li	a0,48
800015f0:	00048593          	mv	a1,s1
800015f4:	000900e7          	jalr	s2
800015f8:	00048593          	mv	a1,s1
800015fc:	07800513          	li	a0,120
80001600:	000900e7          	jalr	s2
80001604:	00812783          	lw	a5,8(sp)
80001608:	01000b13          	li	s6,16
8000160c:	00012223          	sw	zero,4(sp)
80001610:	00478693          	addi	a3,a5,4
80001614:	00812783          	lw	a5,8(sp)
80001618:	00000c13          	li	s8,0
8000161c:	0007ad83          	lw	s11,0(a5)
80001620:	00d12423          	sw	a3,8(sp)
80001624:	ee9ff06f          	j	8000150c <vprintfmt+0x12c>
80001628:	00812783          	lw	a5,8(sp)
8000162c:	00174683          	lbu	a3,1(a4)
80001630:	00040713          	mv	a4,s0
80001634:	0007aa03          	lw	s4,0(a5)
80001638:	00478793          	addi	a5,a5,4
8000163c:	00f12423          	sw	a5,8(sp)
80001640:	e209dce3          	bgez	s3,80001478 <vprintfmt+0x98>
80001644:	000a0993          	mv	s3,s4
80001648:	fff00a13          	li	s4,-1
8000164c:	e2dff06f          	j	80001478 <vprintfmt+0x98>
80001650:	00174683          	lbu	a3,1(a4)
80001654:	02d00b93          	li	s7,45
80001658:	00040713          	mv	a4,s0
8000165c:	e1dff06f          	j	80001478 <vprintfmt+0x98>
80001660:	fff9c793          	not	a5,s3
80001664:	41f7d793          	srai	a5,a5,0x1f
80001668:	00174683          	lbu	a3,1(a4)
8000166c:	00f9f9b3          	and	s3,s3,a5
80001670:	00040713          	mv	a4,s0
80001674:	e05ff06f          	j	80001478 <vprintfmt+0x98>
80001678:	00174683          	lbu	a3,1(a4)
8000167c:	03000b93          	li	s7,48
80001680:	00040713          	mv	a4,s0
80001684:	df5ff06f          	j	80001478 <vprintfmt+0x98>
80001688:	00174603          	lbu	a2,1(a4)
8000168c:	fd068a13          	addi	s4,a3,-48
80001690:	00040713          	mv	a4,s0
80001694:	fd060793          	addi	a5,a2,-48
80001698:	00060693          	mv	a3,a2
8000169c:	faf862e3          	bltu	a6,a5,80001640 <vprintfmt+0x260>
800016a0:	002a1793          	slli	a5,s4,0x2
800016a4:	01478a33          	add	s4,a5,s4
800016a8:	00170713          	addi	a4,a4,1
800016ac:	001a1a13          	slli	s4,s4,0x1
800016b0:	00ca0a33          	add	s4,s4,a2
800016b4:	00074603          	lbu	a2,0(a4)
800016b8:	fd0a0a13          	addi	s4,s4,-48
800016bc:	fd060793          	addi	a5,a2,-48
800016c0:	00060693          	mv	a3,a2
800016c4:	fcf87ee3          	bleu	a5,a6,800016a0 <vprintfmt+0x2c0>
800016c8:	f79ff06f          	j	80001640 <vprintfmt+0x260>
800016cc:	00812783          	lw	a5,8(sp)
800016d0:	00048593          	mv	a1,s1
800016d4:	0007a503          	lw	a0,0(a5)
800016d8:	00478c93          	addi	s9,a5,4
800016dc:	000900e7          	jalr	s2
800016e0:	01912423          	sw	s9,8(sp)
800016e4:	d69ff06f          	j	8000144c <vprintfmt+0x6c>
800016e8:	00100793          	li	a5,1
800016ec:	1ab7da63          	ble	a1,a5,800018a0 <vprintfmt+0x4c0>
800016f0:	00812783          	lw	a5,8(sp)
800016f4:	00778793          	addi	a5,a5,7
800016f8:	ff87f793          	andi	a5,a5,-8
800016fc:	0007ad83          	lw	s11,0(a5)
80001700:	0047ac03          	lw	s8,4(a5)
80001704:	00878713          	addi	a4,a5,8
80001708:	00e12423          	sw	a4,8(sp)
8000170c:	020c5263          	bgez	s8,80001730 <vprintfmt+0x350>
80001710:	00048593          	mv	a1,s1
80001714:	02d00513          	li	a0,45
80001718:	000900e7          	jalr	s2
8000171c:	41b00733          	neg	a4,s11
80001720:	00e036b3          	snez	a3,a4
80001724:	418007b3          	neg	a5,s8
80001728:	00070d93          	mv	s11,a4
8000172c:	40d78c33          	sub	s8,a5,a3
80001730:	00a00b13          	li	s6,10
80001734:	00012223          	sw	zero,4(sp)
80001738:	dd5ff06f          	j	8000150c <vprintfmt+0x12c>
8000173c:	00174683          	lbu	a3,1(a4)
80001740:	00158593          	addi	a1,a1,1
80001744:	00040713          	mv	a4,s0
80001748:	d31ff06f          	j	80001478 <vprintfmt+0x98>
8000174c:	00012223          	sw	zero,4(sp)
80001750:	00100793          	li	a5,1
80001754:	00a00b13          	li	s6,10
80001758:	d8b7cce3          	blt	a5,a1,800014f0 <vprintfmt+0x110>
8000175c:	00812783          	lw	a5,8(sp)
80001760:	00478693          	addi	a3,a5,4
80001764:	eb1ff06f          	j	80001614 <vprintfmt+0x234>
80001768:	01000b13          	li	s6,16
8000176c:	00012223          	sw	zero,4(sp)
80001770:	d79ff06f          	j	800014e8 <vprintfmt+0x108>
80001774:	00174683          	lbu	a3,1(a4)
80001778:	00040713          	mv	a4,s0
8000177c:	cfdff06f          	j	80001478 <vprintfmt+0x98>
80001780:	00048593          	mv	a1,s1
80001784:	02500513          	li	a0,37
80001788:	000900e7          	jalr	s2
8000178c:	cc1ff06f          	j	8000144c <vprintfmt+0x6c>
80001790:	00812783          	lw	a5,8(sp)
80001794:	0007ab03          	lw	s6,0(a5)
80001798:	00478c93          	addi	s9,a5,4
8000179c:	120b0263          	beqz	s6,800018c0 <vprintfmt+0x4e0>
800017a0:	07305863          	blez	s3,80001810 <vprintfmt+0x430>
800017a4:	02d00793          	li	a5,45
800017a8:	0efb8463          	beq	s7,a5,80001890 <vprintfmt+0x4b0>
800017ac:	0a0a0c63          	beqz	s4,80001864 <vprintfmt+0x484>
800017b0:	000b4783          	lbu	a5,0(s6)
800017b4:	0a078863          	beqz	a5,80001864 <vprintfmt+0x484>
800017b8:	001b0793          	addi	a5,s6,1
800017bc:	014b0633          	add	a2,s6,s4
800017c0:	12f60663          	beq	a2,a5,800018ec <vprintfmt+0x50c>
800017c4:	00178713          	addi	a4,a5,1
800017c8:	fff74683          	lbu	a3,-1(a4)
800017cc:	02068c63          	beqz	a3,80001804 <vprintfmt+0x424>
800017d0:	00070793          	mv	a5,a4
800017d4:	fedff06f          	j	800017c0 <vprintfmt+0x3e0>
800017d8:	00048593          	mv	a1,s1
800017dc:	02500513          	li	a0,37
800017e0:	000900e7          	jalr	s2
800017e4:	000b0413          	mv	s0,s6
800017e8:	c65ff06f          	j	8000144c <vprintfmt+0x6c>
800017ec:	d56df0e3          	bleu	s6,s11,8000152c <vprintfmt+0x14c>
800017f0:	00100793          	li	a5,1
800017f4:	00000a13          	li	s4,0
800017f8:	00100d13          	li	s10,1
800017fc:	d937c2e3          	blt	a5,s3,80001580 <vprintfmt+0x1a0>
80001800:	da5ff06f          	j	800015a4 <vprintfmt+0x1c4>
80001804:	416787b3          	sub	a5,a5,s6
80001808:	40f989b3          	sub	s3,s3,a5
8000180c:	05304c63          	bgtz	s3,80001864 <vprintfmt+0x484>
80001810:	000b4503          	lbu	a0,0(s6)
80001814:	02050e63          	beqz	a0,80001850 <vprintfmt+0x470>
80001818:	fff00b93          	li	s7,-1
8000181c:	020a5e63          	bgez	s4,80001858 <vprintfmt+0x478>
80001820:	00048593          	mv	a1,s1
80001824:	001b0b13          	addi	s6,s6,1
80001828:	000900e7          	jalr	s2
8000182c:	000b4503          	lbu	a0,0(s6)
80001830:	fff98993          	addi	s3,s3,-1
80001834:	fe0514e3          	bnez	a0,8000181c <vprintfmt+0x43c>
80001838:	01305c63          	blez	s3,80001850 <vprintfmt+0x470>
8000183c:	fff98993          	addi	s3,s3,-1
80001840:	00048593          	mv	a1,s1
80001844:	02000513          	li	a0,32
80001848:	000900e7          	jalr	s2
8000184c:	fe0998e3          	bnez	s3,8000183c <vprintfmt+0x45c>
80001850:	01912423          	sw	s9,8(sp)
80001854:	bf9ff06f          	j	8000144c <vprintfmt+0x6c>
80001858:	fffa0a13          	addi	s4,s4,-1
8000185c:	fd7a12e3          	bne	s4,s7,80001820 <vprintfmt+0x440>
80001860:	fd9ff06f          	j	80001838 <vprintfmt+0x458>
80001864:	fff98993          	addi	s3,s3,-1
80001868:	00048593          	mv	a1,s1
8000186c:	000b8513          	mv	a0,s7
80001870:	000900e7          	jalr	s2
80001874:	f8098ee3          	beqz	s3,80001810 <vprintfmt+0x430>
80001878:	fff98993          	addi	s3,s3,-1
8000187c:	00048593          	mv	a1,s1
80001880:	000b8513          	mv	a0,s7
80001884:	000900e7          	jalr	s2
80001888:	fc099ee3          	bnez	s3,80001864 <vprintfmt+0x484>
8000188c:	f85ff06f          	j	80001810 <vprintfmt+0x430>
80001890:	000b4503          	lbu	a0,0(s6)
80001894:	fa0504e3          	beqz	a0,8000183c <vprintfmt+0x45c>
80001898:	fff00b93          	li	s7,-1
8000189c:	f81ff06f          	j	8000181c <vprintfmt+0x43c>
800018a0:	00812703          	lw	a4,8(sp)
800018a4:	00470793          	addi	a5,a4,4
800018a8:	00059463          	bnez	a1,800018b0 <vprintfmt+0x4d0>
800018ac:	00812703          	lw	a4,8(sp)
800018b0:	00072d83          	lw	s11,0(a4)
800018b4:	00f12423          	sw	a5,8(sp)
800018b8:	41fddc13          	srai	s8,s11,0x1f
800018bc:	e51ff06f          	j	8000170c <vprintfmt+0x32c>
800018c0:	01305c63          	blez	s3,800018d8 <vprintfmt+0x4f8>
800018c4:	02d00793          	li	a5,45
800018c8:	00fb8863          	beq	s7,a5,800018d8 <vprintfmt+0x4f8>
800018cc:	00001b17          	auipc	s6,0x1
800018d0:	394b0b13          	addi	s6,s6,916 # 80002c60 <main+0xa4>
800018d4:	ed9ff06f          	j	800017ac <vprintfmt+0x3cc>
800018d8:	00001b17          	auipc	s6,0x1
800018dc:	388b0b13          	addi	s6,s6,904 # 80002c60 <main+0xa4>
800018e0:	02800513          	li	a0,40
800018e4:	fff00b93          	li	s7,-1
800018e8:	f35ff06f          	j	8000181c <vprintfmt+0x43c>
800018ec:	41660633          	sub	a2,a2,s6
800018f0:	40c989b3          	sub	s3,s3,a2
800018f4:	f73048e3          	bgtz	s3,80001864 <vprintfmt+0x484>
800018f8:	f19ff06f          	j	80001810 <vprintfmt+0x430>

800018fc <sprintf_putch.2916>:
800018fc:	0005a783          	lw	a5,0(a1)
80001900:	00a78023          	sb	a0,0(a5)
80001904:	0005a783          	lw	a5,0(a1)
80001908:	00178793          	addi	a5,a5,1
8000190c:	00f5a023          	sw	a5,0(a1)
80001910:	00008067          	ret

80001914 <syscall.constprop.2>:
80001914:	f8010113          	addi	sp,sp,-128
80001918:	03f10813          	addi	a6,sp,63
8000191c:	fc087813          	andi	a6,a6,-64
80001920:	04000713          	li	a4,64
80001924:	00e82023          	sw	a4,0(a6)
80001928:	00000793          	li	a5,0
8000192c:	00f82223          	sw	a5,4(a6)
80001930:	00100713          	li	a4,1
80001934:	00e82423          	sw	a4,8(a6)
80001938:	00000793          	li	a5,0
8000193c:	00f82623          	sw	a5,12(a6)
80001940:	00a82823          	sw	a0,16(a6)
80001944:	00b82a23          	sw	a1,20(a6)
80001948:	00c82c23          	sw	a2,24(a6)
8000194c:	00d82e23          	sw	a3,28(a6)
80001950:	0ff0000f          	fence
80001954:	fffff697          	auipc	a3,0xfffff
80001958:	6ac68693          	addi	a3,a3,1708 # 80001000 <tohost>
8000195c:	0106a023          	sw	a6,0(a3)
80001960:	00000793          	li	a5,0
80001964:	00f6a223          	sw	a5,4(a3)
80001968:	fffff697          	auipc	a3,0xfffff
8000196c:	6d868693          	addi	a3,a3,1752 # 80001040 <fromhost>
80001970:	0006a703          	lw	a4,0(a3)
80001974:	0046a783          	lw	a5,4(a3)
80001978:	00f76733          	or	a4,a4,a5
8000197c:	fe070ae3          	beqz	a4,80001970 <syscall.constprop.2+0x5c>
80001980:	00000713          	li	a4,0
80001984:	00e6a023          	sw	a4,0(a3)
80001988:	00000793          	li	a5,0
8000198c:	00f6a223          	sw	a5,4(a3)
80001990:	0ff0000f          	fence
80001994:	00082503          	lw	a0,0(a6)
80001998:	00482583          	lw	a1,4(a6)
8000199c:	08010113          	addi	sp,sp,128
800019a0:	00008067          	ret

800019a4 <putchar>:
800019a4:	ff010113          	addi	sp,sp,-16
800019a8:	00812423          	sw	s0,8(sp)
800019ac:	08022583          	lw	a1,128(tp) # 80 <buflen.2802>
800019b0:	04020793          	addi	a5,tp,64 # 40 <buf.2801>
800019b4:	00112623          	sw	ra,12(sp)
800019b8:	00b787b3          	add	a5,a5,a1
800019bc:	00158613          	addi	a2,a1,1
800019c0:	00a78023          	sb	a0,0(a5)
800019c4:	08c22023          	sw	a2,128(tp) # 80 <buflen.2802>
800019c8:	00a00793          	li	a5,10
800019cc:	02f50063          	beq	a0,a5,800019ec <putchar+0x48>
800019d0:	04000793          	li	a5,64
800019d4:	00f60c63          	beq	a2,a5,800019ec <putchar+0x48>
800019d8:	00c12083          	lw	ra,12(sp)
800019dc:	00812403          	lw	s0,8(sp)
800019e0:	00000513          	li	a0,0
800019e4:	01010113          	addi	sp,sp,16
800019e8:	00008067          	ret
800019ec:	41f65693          	srai	a3,a2,0x1f
800019f0:	04020513          	addi	a0,tp,64 # 40 <buf.2801>
800019f4:	00000593          	li	a1,0
800019f8:	f1dff0ef          	jal	ra,80001914 <syscall.constprop.2>
800019fc:	08022023          	sw	zero,128(tp) # 80 <buflen.2802>
80001a00:	00c12083          	lw	ra,12(sp)
80001a04:	00812403          	lw	s0,8(sp)
80001a08:	00000513          	li	a0,0
80001a0c:	01010113          	addi	sp,sp,16
80001a10:	00008067          	ret

80001a14 <setStats>:
80001a14:	b00027f3          	csrr	a5,mcycle
80001a18:	00002717          	auipc	a4,0x2
80001a1c:	14070713          	addi	a4,a4,320 # 80003b58 <counters>
80001a20:	00051e63          	bnez	a0,80001a3c <setStats+0x28>
80001a24:	00072683          	lw	a3,0(a4)
80001a28:	00001617          	auipc	a2,0x1
80001a2c:	24060613          	addi	a2,a2,576 # 80002c68 <main+0xac>
80001a30:	00002597          	auipc	a1,0x2
80001a34:	12c5a023          	sw	a2,288(a1) # 80003b50 <counter_names>
80001a38:	40d787b3          	sub	a5,a5,a3
80001a3c:	00002697          	auipc	a3,0x2
80001a40:	10f6ae23          	sw	a5,284(a3) # 80003b58 <counters>
80001a44:	b02027f3          	csrr	a5,minstret
80001a48:	00051e63          	bnez	a0,80001a64 <setStats+0x50>
80001a4c:	00472703          	lw	a4,4(a4)
80001a50:	00001697          	auipc	a3,0x1
80001a54:	22068693          	addi	a3,a3,544 # 80002c70 <main+0xb4>
80001a58:	00002617          	auipc	a2,0x2
80001a5c:	0ed62e23          	sw	a3,252(a2) # 80003b54 <counter_names+0x4>
80001a60:	40e787b3          	sub	a5,a5,a4
80001a64:	00002717          	auipc	a4,0x2
80001a68:	0ef72c23          	sw	a5,248(a4) # 80003b5c <counters+0x4>
80001a6c:	00008067          	ret

80001a70 <tohost_exit>:
80001a70:	00151513          	slli	a0,a0,0x1
80001a74:	fffff697          	auipc	a3,0xfffff
80001a78:	58c68693          	addi	a3,a3,1420 # 80001000 <tohost>
80001a7c:	00156713          	ori	a4,a0,1
80001a80:	00000793          	li	a5,0
80001a84:	00e6a023          	sw	a4,0(a3)
80001a88:	00f6a223          	sw	a5,4(a3)
80001a8c:	0000006f          	j	80001a8c <tohost_exit+0x1c>

80001a90 <handle_trap>:
80001a90:	00001637          	lui	a2,0x1
80001a94:	fffff797          	auipc	a5,0xfffff
80001a98:	56c78793          	addi	a5,a5,1388 # 80001000 <tohost>
80001a9c:	a7360613          	addi	a2,a2,-1421 # a73 <_tbss_end+0x9ef>
80001aa0:	00000693          	li	a3,0
80001aa4:	00c7a023          	sw	a2,0(a5)
80001aa8:	00d7a223          	sw	a3,4(a5)
80001aac:	0000006f          	j	80001aac <handle_trap+0x1c>

80001ab0 <exit>:
80001ab0:	ff010113          	addi	sp,sp,-16
80001ab4:	00112623          	sw	ra,12(sp)
80001ab8:	fb9ff0ef          	jal	ra,80001a70 <tohost_exit>

80001abc <abort>:
80001abc:	fffff797          	auipc	a5,0xfffff
80001ac0:	54478793          	addi	a5,a5,1348 # 80001000 <tohost>
80001ac4:	10d00613          	li	a2,269
80001ac8:	00000693          	li	a3,0
80001acc:	00c7a023          	sw	a2,0(a5)
80001ad0:	00d7a223          	sw	a3,4(a5)
80001ad4:	0000006f          	j	80001ad4 <abort+0x18>

80001ad8 <printstr>:
80001ad8:	00054783          	lbu	a5,0(a0)
80001adc:	00050613          	mv	a2,a0
80001ae0:	02078063          	beqz	a5,80001b00 <printstr+0x28>
80001ae4:	00160613          	addi	a2,a2,1
80001ae8:	00064783          	lbu	a5,0(a2)
80001aec:	fe079ce3          	bnez	a5,80001ae4 <printstr+0xc>
80001af0:	40a60633          	sub	a2,a2,a0
80001af4:	00000693          	li	a3,0
80001af8:	00000593          	li	a1,0
80001afc:	e19ff06f          	j	80001914 <syscall.constprop.2>
80001b00:	00000613          	li	a2,0
80001b04:	00000693          	li	a3,0
80001b08:	00000593          	li	a1,0
80001b0c:	e09ff06f          	j	80001914 <syscall.constprop.2>
80001b10:	00050463          	beqz	a0,80001b18 <printstr+0x40>
80001b14:	0000006f          	j	80001b14 <printstr+0x3c>
80001b18:	00008067          	ret

80001b1c <printhex>:
80001b1c:	fd010113          	addi	sp,sp,-48
80001b20:	02112623          	sw	ra,44(sp)
80001b24:	01b10793          	addi	a5,sp,27
80001b28:	00b10313          	addi	t1,sp,11
80001b2c:	00900893          	li	a7,9
80001b30:	00f57693          	andi	a3,a0,15
80001b34:	01c59813          	slli	a6,a1,0x1c
80001b38:	00455513          	srli	a0,a0,0x4
80001b3c:	05700613          	li	a2,87
80001b40:	0ff6f713          	andi	a4,a3,255
80001b44:	00d8e463          	bltu	a7,a3,80001b4c <printhex+0x30>
80001b48:	03000613          	li	a2,48
80001b4c:	00c70733          	add	a4,a4,a2
80001b50:	00e78023          	sb	a4,0(a5)
80001b54:	fff78793          	addi	a5,a5,-1
80001b58:	00a86533          	or	a0,a6,a0
80001b5c:	0045d593          	srli	a1,a1,0x4
80001b60:	fcf318e3          	bne	t1,a5,80001b30 <printhex+0x14>
80001b64:	00c10513          	addi	a0,sp,12
80001b68:	00010e23          	sb	zero,28(sp)
80001b6c:	f6dff0ef          	jal	ra,80001ad8 <printstr>
80001b70:	02c12083          	lw	ra,44(sp)
80001b74:	03010113          	addi	sp,sp,48
80001b78:	00008067          	ret

80001b7c <printf>:
80001b7c:	fc010113          	addi	sp,sp,-64
80001b80:	02410313          	addi	t1,sp,36
80001b84:	02b12223          	sw	a1,36(sp)
80001b88:	02c12423          	sw	a2,40(sp)
80001b8c:	02d12623          	sw	a3,44(sp)
80001b90:	00050613          	mv	a2,a0
80001b94:	00030693          	mv	a3,t1
80001b98:	00000517          	auipc	a0,0x0
80001b9c:	e0c50513          	addi	a0,a0,-500 # 800019a4 <putchar>
80001ba0:	00000593          	li	a1,0
80001ba4:	00112e23          	sw	ra,28(sp)
80001ba8:	02e12823          	sw	a4,48(sp)
80001bac:	02f12a23          	sw	a5,52(sp)
80001bb0:	03012c23          	sw	a6,56(sp)
80001bb4:	03112e23          	sw	a7,60(sp)
80001bb8:	00612623          	sw	t1,12(sp)
80001bbc:	825ff0ef          	jal	ra,800013e0 <vprintfmt>
80001bc0:	01c12083          	lw	ra,28(sp)
80001bc4:	00000513          	li	a0,0
80001bc8:	04010113          	addi	sp,sp,64
80001bcc:	00008067          	ret

80001bd0 <sprintf>:
80001bd0:	fb010113          	addi	sp,sp,-80
80001bd4:	03810313          	addi	t1,sp,56
80001bd8:	02812423          	sw	s0,40(sp)
80001bdc:	00a12623          	sw	a0,12(sp)
80001be0:	02c12c23          	sw	a2,56(sp)
80001be4:	02d12e23          	sw	a3,60(sp)
80001be8:	00050413          	mv	s0,a0
80001bec:	00058613          	mv	a2,a1
80001bf0:	00000517          	auipc	a0,0x0
80001bf4:	d0c50513          	addi	a0,a0,-756 # 800018fc <sprintf_putch.2916>
80001bf8:	00c10593          	addi	a1,sp,12
80001bfc:	00030693          	mv	a3,t1
80001c00:	02112623          	sw	ra,44(sp)
80001c04:	04f12223          	sw	a5,68(sp)
80001c08:	04e12023          	sw	a4,64(sp)
80001c0c:	05012423          	sw	a6,72(sp)
80001c10:	05112623          	sw	a7,76(sp)
80001c14:	00612e23          	sw	t1,28(sp)
80001c18:	fc8ff0ef          	jal	ra,800013e0 <vprintfmt>
80001c1c:	00c12783          	lw	a5,12(sp)
80001c20:	00078023          	sb	zero,0(a5)
80001c24:	00c12503          	lw	a0,12(sp)
80001c28:	02c12083          	lw	ra,44(sp)
80001c2c:	40850533          	sub	a0,a0,s0
80001c30:	02812403          	lw	s0,40(sp)
80001c34:	05010113          	addi	sp,sp,80
80001c38:	00008067          	ret

80001c3c <memcpy>:
80001c3c:	00c5e7b3          	or	a5,a1,a2
80001c40:	00f567b3          	or	a5,a0,a5
80001c44:	0037f793          	andi	a5,a5,3
80001c48:	00c506b3          	add	a3,a0,a2
80001c4c:	02078463          	beqz	a5,80001c74 <memcpy+0x38>
80001c50:	00c58633          	add	a2,a1,a2
80001c54:	00050793          	mv	a5,a0
80001c58:	02d57e63          	bleu	a3,a0,80001c94 <memcpy+0x58>
80001c5c:	00158593          	addi	a1,a1,1
80001c60:	fff5c703          	lbu	a4,-1(a1)
80001c64:	00178793          	addi	a5,a5,1
80001c68:	fee78fa3          	sb	a4,-1(a5)
80001c6c:	feb618e3          	bne	a2,a1,80001c5c <memcpy+0x20>
80001c70:	00008067          	ret
80001c74:	fed57ee3          	bleu	a3,a0,80001c70 <memcpy+0x34>
80001c78:	00050793          	mv	a5,a0
80001c7c:	00458593          	addi	a1,a1,4
80001c80:	ffc5a703          	lw	a4,-4(a1)
80001c84:	00478793          	addi	a5,a5,4
80001c88:	fee7ae23          	sw	a4,-4(a5)
80001c8c:	fed7e8e3          	bltu	a5,a3,80001c7c <memcpy+0x40>
80001c90:	00008067          	ret
80001c94:	00008067          	ret

80001c98 <memset>:
80001c98:	00c567b3          	or	a5,a0,a2
80001c9c:	0037f793          	andi	a5,a5,3
80001ca0:	00c50633          	add	a2,a0,a2
80001ca4:	02078063          	beqz	a5,80001cc4 <memset+0x2c>
80001ca8:	0ff5f593          	andi	a1,a1,255
80001cac:	00050793          	mv	a5,a0
80001cb0:	04c57063          	bleu	a2,a0,80001cf0 <memset+0x58>
80001cb4:	00178793          	addi	a5,a5,1
80001cb8:	feb78fa3          	sb	a1,-1(a5)
80001cbc:	fef61ce3          	bne	a2,a5,80001cb4 <memset+0x1c>
80001cc0:	00008067          	ret
80001cc4:	0ff5f593          	andi	a1,a1,255
80001cc8:	00859713          	slli	a4,a1,0x8
80001ccc:	00e5e733          	or	a4,a1,a4
80001cd0:	01071793          	slli	a5,a4,0x10
80001cd4:	00f76733          	or	a4,a4,a5
80001cd8:	fec574e3          	bleu	a2,a0,80001cc0 <memset+0x28>
80001cdc:	00050793          	mv	a5,a0
80001ce0:	00478793          	addi	a5,a5,4
80001ce4:	fee7ae23          	sw	a4,-4(a5)
80001ce8:	fec7ece3          	bltu	a5,a2,80001ce0 <memset+0x48>
80001cec:	00008067          	ret
80001cf0:	00008067          	ret

80001cf4 <_init>:
80001cf4:	f6010113          	addi	sp,sp,-160
80001cf8:	08812c23          	sw	s0,152(sp)
80001cfc:	08912a23          	sw	s1,148(sp)
80001d00:	00020493          	mv	s1,tp
80001d04:	00020413          	mv	s0,tp
80001d08:	40848433          	sub	s0,s1,s0
80001d0c:	00040613          	mv	a2,s0
80001d10:	09312623          	sw	s3,140(sp)
80001d14:	09412423          	sw	s4,136(sp)
80001d18:	00050993          	mv	s3,a0
80001d1c:	00058a13          	mv	s4,a1
80001d20:	00020513          	mv	a0,tp
80001d24:	c3818593          	addi	a1,gp,-968 # 80003f80 <_end>
80001d28:	08112e23          	sw	ra,156(sp)
80001d2c:	09212823          	sw	s2,144(sp)
80001d30:	09512223          	sw	s5,132(sp)
80001d34:	00020a93          	mv	s5,tp
80001d38:	f05ff0ef          	jal	ra,80001c3c <memcpy>
80001d3c:	08420613          	addi	a2,tp,132 # 84 <_tbss_end>
80001d40:	40960633          	sub	a2,a2,s1
80001d44:	00000593          	li	a1,0
80001d48:	008a8533          	add	a0,s5,s0
80001d4c:	f4dff0ef          	jal	ra,80001c98 <memset>
80001d50:	000a0593          	mv	a1,s4
80001d54:	00098513          	mv	a0,s3
80001d58:	d98ff0ef          	jal	ra,800012f0 <thread_entry>
80001d5c:	00000593          	li	a1,0
80001d60:	00000513          	li	a0,0
80001d64:	659000ef          	jal	ra,80002bbc <main>
80001d68:	00002417          	auipc	s0,0x2
80001d6c:	df040413          	addi	s0,s0,-528 # 80003b58 <counters>
80001d70:	00042683          	lw	a3,0(s0)
80001d74:	03f10913          	addi	s2,sp,63
80001d78:	fc097913          	andi	s2,s2,-64
80001d7c:	00050493          	mv	s1,a0
80001d80:	04069463          	bnez	a3,80001dc8 <_init+0xd4>
80001d84:	00442683          	lw	a3,4(s0)
80001d88:	00069663          	bnez	a3,80001d94 <_init+0xa0>
80001d8c:	00048513          	mv	a0,s1
80001d90:	ce1ff0ef          	jal	ra,80001a70 <tohost_exit>
80001d94:	00090413          	mv	s0,s2
80001d98:	00002997          	auipc	s3,0x2
80001d9c:	db898993          	addi	s3,s3,-584 # 80003b50 <counter_names>
80001da0:	0049a603          	lw	a2,4(s3)
80001da4:	00040513          	mv	a0,s0
80001da8:	00001597          	auipc	a1,0x1
80001dac:	eec58593          	addi	a1,a1,-276 # 80002c94 <main+0xd8>
80001db0:	e21ff0ef          	jal	ra,80001bd0 <sprintf>
80001db4:	00a40433          	add	s0,s0,a0
80001db8:	fc890ae3          	beq	s2,s0,80001d8c <_init+0x98>
80001dbc:	00090513          	mv	a0,s2
80001dc0:	d19ff0ef          	jal	ra,80001ad8 <printstr>
80001dc4:	fc9ff06f          	j	80001d8c <_init+0x98>
80001dc8:	00002997          	auipc	s3,0x2
80001dcc:	d8898993          	addi	s3,s3,-632 # 80003b50 <counter_names>
80001dd0:	0009a603          	lw	a2,0(s3)
80001dd4:	00001597          	auipc	a1,0x1
80001dd8:	ec058593          	addi	a1,a1,-320 # 80002c94 <main+0xd8>
80001ddc:	00090513          	mv	a0,s2
80001de0:	df1ff0ef          	jal	ra,80001bd0 <sprintf>
80001de4:	00442683          	lw	a3,4(s0)
80001de8:	00a90433          	add	s0,s2,a0
80001dec:	fc0686e3          	beqz	a3,80001db8 <_init+0xc4>
80001df0:	fb1ff06f          	j	80001da0 <_init+0xac>

80001df4 <strlen>:
80001df4:	00054783          	lbu	a5,0(a0)
80001df8:	00050713          	mv	a4,a0
80001dfc:	00078c63          	beqz	a5,80001e14 <strlen+0x20>
80001e00:	00150513          	addi	a0,a0,1
80001e04:	00054783          	lbu	a5,0(a0)
80001e08:	fe079ce3          	bnez	a5,80001e00 <strlen+0xc>
80001e0c:	40e50533          	sub	a0,a0,a4
80001e10:	00008067          	ret
80001e14:	00000513          	li	a0,0
80001e18:	00008067          	ret

80001e1c <strnlen>:
80001e1c:	00050713          	mv	a4,a0
80001e20:	02058663          	beqz	a1,80001e4c <strnlen+0x30>
80001e24:	00054783          	lbu	a5,0(a0)
80001e28:	02078263          	beqz	a5,80001e4c <strnlen+0x30>
80001e2c:	00b505b3          	add	a1,a0,a1
80001e30:	00c0006f          	j	80001e3c <strnlen+0x20>
80001e34:	00054783          	lbu	a5,0(a0)
80001e38:	00078663          	beqz	a5,80001e44 <strnlen+0x28>
80001e3c:	00150513          	addi	a0,a0,1
80001e40:	feb51ae3          	bne	a0,a1,80001e34 <strnlen+0x18>
80001e44:	40e50533          	sub	a0,a0,a4
80001e48:	00008067          	ret
80001e4c:	00000513          	li	a0,0
80001e50:	00008067          	ret

80001e54 <strcmp>:
80001e54:	00150513          	addi	a0,a0,1
80001e58:	fff54783          	lbu	a5,-1(a0)
80001e5c:	00158593          	addi	a1,a1,1
80001e60:	fff5c703          	lbu	a4,-1(a1)
80001e64:	00078863          	beqz	a5,80001e74 <strcmp+0x20>
80001e68:	fee786e3          	beq	a5,a4,80001e54 <strcmp>
80001e6c:	40e78533          	sub	a0,a5,a4
80001e70:	00008067          	ret
80001e74:	00000793          	li	a5,0
80001e78:	ff5ff06f          	j	80001e6c <strcmp+0x18>

80001e7c <strcpy>:
80001e7c:	00050793          	mv	a5,a0
80001e80:	00158593          	addi	a1,a1,1
80001e84:	fff5c703          	lbu	a4,-1(a1)
80001e88:	00178793          	addi	a5,a5,1
80001e8c:	fee78fa3          	sb	a4,-1(a5)
80001e90:	fe0718e3          	bnez	a4,80001e80 <strcpy+0x4>
80001e94:	00008067          	ret

80001e98 <atol>:
80001e98:	00054783          	lbu	a5,0(a0)
80001e9c:	02000713          	li	a4,32
80001ea0:	00e79863          	bne	a5,a4,80001eb0 <atol+0x18>
80001ea4:	00150513          	addi	a0,a0,1
80001ea8:	00054783          	lbu	a5,0(a0)
80001eac:	fee78ce3          	beq	a5,a4,80001ea4 <atol+0xc>
80001eb0:	fd578713          	addi	a4,a5,-43
80001eb4:	0fd77713          	andi	a4,a4,253
80001eb8:	04070263          	beqz	a4,80001efc <atol+0x64>
80001ebc:	00054683          	lbu	a3,0(a0)
80001ec0:	00050793          	mv	a5,a0
80001ec4:	00000613          	li	a2,0
80001ec8:	04068863          	beqz	a3,80001f18 <atol+0x80>
80001ecc:	00000513          	li	a0,0
80001ed0:	00178793          	addi	a5,a5,1
80001ed4:	fd068593          	addi	a1,a3,-48
80001ed8:	00251713          	slli	a4,a0,0x2
80001edc:	0007c683          	lbu	a3,0(a5)
80001ee0:	00a70533          	add	a0,a4,a0
80001ee4:	00151513          	slli	a0,a0,0x1
80001ee8:	00a58533          	add	a0,a1,a0
80001eec:	fe0692e3          	bnez	a3,80001ed0 <atol+0x38>
80001ef0:	00060463          	beqz	a2,80001ef8 <atol+0x60>
80001ef4:	40a00533          	neg	a0,a0
80001ef8:	00008067          	ret
80001efc:	00154683          	lbu	a3,1(a0)
80001f00:	fd378793          	addi	a5,a5,-45
80001f04:	0017b613          	seqz	a2,a5
80001f08:	00150793          	addi	a5,a0,1
80001f0c:	fc0690e3          	bnez	a3,80001ecc <atol+0x34>
80001f10:	00000513          	li	a0,0
80001f14:	fddff06f          	j	80001ef0 <atol+0x58>
80001f18:	00000513          	li	a0,0
80001f1c:	00008067          	ret

80001f20 <__moddi3>:
80001f20:	00000893          	li	a7,0
80001f24:	0005dc63          	bgez	a1,80001f3c <__moddi3+0x1c>
80001f28:	40a00533          	neg	a0,a0
80001f2c:	00a037b3          	snez	a5,a0
80001f30:	40b005b3          	neg	a1,a1
80001f34:	40f585b3          	sub	a1,a1,a5
80001f38:	fff00893          	li	a7,-1
80001f3c:	0006da63          	bgez	a3,80001f50 <__moddi3+0x30>
80001f40:	40c00633          	neg	a2,a2
80001f44:	00c037b3          	snez	a5,a2
80001f48:	40d006b3          	neg	a3,a3
80001f4c:	40f686b3          	sub	a3,a3,a5
80001f50:	00060813          	mv	a6,a2
80001f54:	00068313          	mv	t1,a3
80001f58:	00050793          	mv	a5,a0
80001f5c:	00058713          	mv	a4,a1
80001f60:	24069863          	bnez	a3,800021b0 <__moddi3+0x290>
80001f64:	800036b7          	lui	a3,0x80003
80001f68:	df868693          	addi	a3,a3,-520 # 80002df8 <__global_pointer$+0xffffeab0>
80001f6c:	0ec5f863          	bleu	a2,a1,8000205c <__moddi3+0x13c>
80001f70:	00010e37          	lui	t3,0x10
80001f74:	0dc67a63          	bleu	t3,a2,80002048 <__moddi3+0x128>
80001f78:	0ff00e13          	li	t3,255
80001f7c:	00ce7463          	bleu	a2,t3,80001f84 <__moddi3+0x64>
80001f80:	00800313          	li	t1,8
80001f84:	00665e33          	srl	t3,a2,t1
80001f88:	01c686b3          	add	a3,a3,t3
80001f8c:	0006ce03          	lbu	t3,0(a3)
80001f90:	006e0e33          	add	t3,t3,t1
80001f94:	02000313          	li	t1,32
80001f98:	41c30333          	sub	t1,t1,t3
80001f9c:	00030c63          	beqz	t1,80001fb4 <__moddi3+0x94>
80001fa0:	006595b3          	sll	a1,a1,t1
80001fa4:	01c55e33          	srl	t3,a0,t3
80001fa8:	00661833          	sll	a6,a2,t1
80001fac:	00be6733          	or	a4,t3,a1
80001fb0:	006517b3          	sll	a5,a0,t1
80001fb4:	01085593          	srli	a1,a6,0x10
80001fb8:	02b77633          	remu	a2,a4,a1
80001fbc:	01081513          	slli	a0,a6,0x10
80001fc0:	01055513          	srli	a0,a0,0x10
80001fc4:	0107d693          	srli	a3,a5,0x10
80001fc8:	02b75733          	divu	a4,a4,a1
80001fcc:	01061613          	slli	a2,a2,0x10
80001fd0:	00d666b3          	or	a3,a2,a3
80001fd4:	02e50733          	mul	a4,a0,a4
80001fd8:	00e6fa63          	bleu	a4,a3,80001fec <__moddi3+0xcc>
80001fdc:	010686b3          	add	a3,a3,a6
80001fe0:	0106e663          	bltu	a3,a6,80001fec <__moddi3+0xcc>
80001fe4:	00e6f463          	bleu	a4,a3,80001fec <__moddi3+0xcc>
80001fe8:	010686b3          	add	a3,a3,a6
80001fec:	40e686b3          	sub	a3,a3,a4
80001ff0:	02b6f733          	remu	a4,a3,a1
80001ff4:	01079793          	slli	a5,a5,0x10
80001ff8:	0107d793          	srli	a5,a5,0x10
80001ffc:	02b6d6b3          	divu	a3,a3,a1
80002000:	02d506b3          	mul	a3,a0,a3
80002004:	01071513          	slli	a0,a4,0x10
80002008:	00f567b3          	or	a5,a0,a5
8000200c:	00d7fa63          	bleu	a3,a5,80002020 <__moddi3+0x100>
80002010:	010787b3          	add	a5,a5,a6
80002014:	0107e663          	bltu	a5,a6,80002020 <__moddi3+0x100>
80002018:	00d7f463          	bleu	a3,a5,80002020 <__moddi3+0x100>
8000201c:	010787b3          	add	a5,a5,a6
80002020:	40d787b3          	sub	a5,a5,a3
80002024:	0067d533          	srl	a0,a5,t1
80002028:	00000593          	li	a1,0
8000202c:	00088c63          	beqz	a7,80002044 <__moddi3+0x124>
80002030:	40a007b3          	neg	a5,a0
80002034:	00f03733          	snez	a4,a5
80002038:	40b005b3          	neg	a1,a1
8000203c:	00078513          	mv	a0,a5
80002040:	40e585b3          	sub	a1,a1,a4
80002044:	00008067          	ret
80002048:	01000e37          	lui	t3,0x1000
8000204c:	01000313          	li	t1,16
80002050:	f3c66ae3          	bltu	a2,t3,80001f84 <__moddi3+0x64>
80002054:	01800313          	li	t1,24
80002058:	f2dff06f          	j	80001f84 <__moddi3+0x64>
8000205c:	00061663          	bnez	a2,80002068 <__moddi3+0x148>
80002060:	00100813          	li	a6,1
80002064:	02685833          	divu	a6,a6,t1
80002068:	00010737          	lui	a4,0x10
8000206c:	0ae87263          	bleu	a4,a6,80002110 <__moddi3+0x1f0>
80002070:	0ff00713          	li	a4,255
80002074:	01077463          	bleu	a6,a4,8000207c <__moddi3+0x15c>
80002078:	00800313          	li	t1,8
8000207c:	00685733          	srl	a4,a6,t1
80002080:	00e686b3          	add	a3,a3,a4
80002084:	0006ce03          	lbu	t3,0(a3)
80002088:	006e0e33          	add	t3,t3,t1
8000208c:	02000313          	li	t1,32
80002090:	41c30333          	sub	t1,t1,t3
80002094:	08031863          	bnez	t1,80002124 <__moddi3+0x204>
80002098:	410585b3          	sub	a1,a1,a6
8000209c:	01085693          	srli	a3,a6,0x10
800020a0:	01081513          	slli	a0,a6,0x10
800020a4:	01055513          	srli	a0,a0,0x10
800020a8:	0107d613          	srli	a2,a5,0x10
800020ac:	02d5f733          	remu	a4,a1,a3
800020b0:	02d5d5b3          	divu	a1,a1,a3
800020b4:	01071713          	slli	a4,a4,0x10
800020b8:	00c76733          	or	a4,a4,a2
800020bc:	02b505b3          	mul	a1,a0,a1
800020c0:	00b77a63          	bleu	a1,a4,800020d4 <__moddi3+0x1b4>
800020c4:	01070733          	add	a4,a4,a6
800020c8:	01076663          	bltu	a4,a6,800020d4 <__moddi3+0x1b4>
800020cc:	00b77463          	bleu	a1,a4,800020d4 <__moddi3+0x1b4>
800020d0:	01070733          	add	a4,a4,a6
800020d4:	40b705b3          	sub	a1,a4,a1
800020d8:	02d5f733          	remu	a4,a1,a3
800020dc:	01079793          	slli	a5,a5,0x10
800020e0:	0107d793          	srli	a5,a5,0x10
800020e4:	02d5d5b3          	divu	a1,a1,a3
800020e8:	02b505b3          	mul	a1,a0,a1
800020ec:	01071513          	slli	a0,a4,0x10
800020f0:	00f567b3          	or	a5,a0,a5
800020f4:	00b7fa63          	bleu	a1,a5,80002108 <__moddi3+0x1e8>
800020f8:	010787b3          	add	a5,a5,a6
800020fc:	0107e663          	bltu	a5,a6,80002108 <__moddi3+0x1e8>
80002100:	00b7f463          	bleu	a1,a5,80002108 <__moddi3+0x1e8>
80002104:	010787b3          	add	a5,a5,a6
80002108:	40b787b3          	sub	a5,a5,a1
8000210c:	f19ff06f          	j	80002024 <__moddi3+0x104>
80002110:	01000737          	lui	a4,0x1000
80002114:	01000313          	li	t1,16
80002118:	f6e862e3          	bltu	a6,a4,8000207c <__moddi3+0x15c>
8000211c:	01800313          	li	t1,24
80002120:	f5dff06f          	j	8000207c <__moddi3+0x15c>
80002124:	00681833          	sll	a6,a6,t1
80002128:	01c5deb3          	srl	t4,a1,t3
8000212c:	006517b3          	sll	a5,a0,t1
80002130:	01c55e33          	srl	t3,a0,t3
80002134:	01085513          	srli	a0,a6,0x10
80002138:	02aed6b3          	divu	a3,t4,a0
8000213c:	006595b3          	sll	a1,a1,t1
80002140:	00be6e33          	or	t3,t3,a1
80002144:	01081593          	slli	a1,a6,0x10
80002148:	0105d593          	srli	a1,a1,0x10
8000214c:	010e5613          	srli	a2,t3,0x10
80002150:	02aef733          	remu	a4,t4,a0
80002154:	02d586b3          	mul	a3,a1,a3
80002158:	01071713          	slli	a4,a4,0x10
8000215c:	00c76733          	or	a4,a4,a2
80002160:	00d77a63          	bleu	a3,a4,80002174 <__moddi3+0x254>
80002164:	01070733          	add	a4,a4,a6
80002168:	01076663          	bltu	a4,a6,80002174 <__moddi3+0x254>
8000216c:	00d77463          	bleu	a3,a4,80002174 <__moddi3+0x254>
80002170:	01070733          	add	a4,a4,a6
80002174:	40d70633          	sub	a2,a4,a3
80002178:	02a67733          	remu	a4,a2,a0
8000217c:	010e1e13          	slli	t3,t3,0x10
80002180:	010e5e13          	srli	t3,t3,0x10
80002184:	02a65633          	divu	a2,a2,a0
80002188:	01071713          	slli	a4,a4,0x10
8000218c:	02c58633          	mul	a2,a1,a2
80002190:	01c765b3          	or	a1,a4,t3
80002194:	00c5fa63          	bleu	a2,a1,800021a8 <__moddi3+0x288>
80002198:	010585b3          	add	a1,a1,a6
8000219c:	0105e663          	bltu	a1,a6,800021a8 <__moddi3+0x288>
800021a0:	00c5f463          	bleu	a2,a1,800021a8 <__moddi3+0x288>
800021a4:	010585b3          	add	a1,a1,a6
800021a8:	40c585b3          	sub	a1,a1,a2
800021ac:	ef1ff06f          	j	8000209c <__moddi3+0x17c>
800021b0:	e6d5eee3          	bltu	a1,a3,8000202c <__moddi3+0x10c>
800021b4:	00010837          	lui	a6,0x10
800021b8:	0506fc63          	bleu	a6,a3,80002210 <__moddi3+0x2f0>
800021bc:	0ff00e93          	li	t4,255
800021c0:	00deb833          	sltu	a6,t4,a3
800021c4:	00381813          	slli	a6,a6,0x3
800021c8:	80003e37          	lui	t3,0x80003
800021cc:	df8e0e13          	addi	t3,t3,-520 # 80002df8 <__global_pointer$+0xffffeab0>
800021d0:	0106d333          	srl	t1,a3,a6
800021d4:	01c30333          	add	t1,t1,t3
800021d8:	00034e83          	lbu	t4,0(t1)
800021dc:	02000e13          	li	t3,32
800021e0:	010e8eb3          	add	t4,t4,a6
800021e4:	41de0e33          	sub	t3,t3,t4
800021e8:	020e1e63          	bnez	t3,80002224 <__moddi3+0x304>
800021ec:	00b6e463          	bltu	a3,a1,800021f4 <__moddi3+0x2d4>
800021f0:	00c56a63          	bltu	a0,a2,80002204 <__moddi3+0x2e4>
800021f4:	40c507b3          	sub	a5,a0,a2
800021f8:	40d586b3          	sub	a3,a1,a3
800021fc:	00f53533          	sltu	a0,a0,a5
80002200:	40a68733          	sub	a4,a3,a0
80002204:	00078513          	mv	a0,a5
80002208:	00070593          	mv	a1,a4
8000220c:	e21ff06f          	j	8000202c <__moddi3+0x10c>
80002210:	01000337          	lui	t1,0x1000
80002214:	01000813          	li	a6,16
80002218:	fa66e8e3          	bltu	a3,t1,800021c8 <__moddi3+0x2a8>
8000221c:	01800813          	li	a6,24
80002220:	fa9ff06f          	j	800021c8 <__moddi3+0x2a8>
80002224:	01d65733          	srl	a4,a2,t4
80002228:	01c696b3          	sll	a3,a3,t3
8000222c:	00d766b3          	or	a3,a4,a3
80002230:	01d5d7b3          	srl	a5,a1,t4
80002234:	01d55733          	srl	a4,a0,t4
80002238:	01c595b3          	sll	a1,a1,t3
8000223c:	00b76733          	or	a4,a4,a1
80002240:	0106d593          	srli	a1,a3,0x10
80002244:	02b7f333          	remu	t1,a5,a1
80002248:	01069f13          	slli	t5,a3,0x10
8000224c:	010f5f13          	srli	t5,t5,0x10
80002250:	01075813          	srli	a6,a4,0x10
80002254:	01c61633          	sll	a2,a2,t3
80002258:	01c51533          	sll	a0,a0,t3
8000225c:	02b7d7b3          	divu	a5,a5,a1
80002260:	01031313          	slli	t1,t1,0x10
80002264:	01036833          	or	a6,t1,a6
80002268:	02ff0fb3          	mul	t6,t5,a5
8000226c:	00078313          	mv	t1,a5
80002270:	01f87e63          	bleu	t6,a6,8000228c <__moddi3+0x36c>
80002274:	00d80833          	add	a6,a6,a3
80002278:	fff78313          	addi	t1,a5,-1
8000227c:	00d86863          	bltu	a6,a3,8000228c <__moddi3+0x36c>
80002280:	01f87663          	bleu	t6,a6,8000228c <__moddi3+0x36c>
80002284:	ffe78313          	addi	t1,a5,-2
80002288:	00d80833          	add	a6,a6,a3
8000228c:	41f80833          	sub	a6,a6,t6
80002290:	02b87fb3          	remu	t6,a6,a1
80002294:	02b85833          	divu	a6,a6,a1
80002298:	010f9f93          	slli	t6,t6,0x10
8000229c:	030f05b3          	mul	a1,t5,a6
800022a0:	01071f13          	slli	t5,a4,0x10
800022a4:	010f5f13          	srli	t5,t5,0x10
800022a8:	01efef33          	or	t5,t6,t5
800022ac:	00080713          	mv	a4,a6
800022b0:	00bf7e63          	bleu	a1,t5,800022cc <__moddi3+0x3ac>
800022b4:	00df0f33          	add	t5,t5,a3
800022b8:	fff80713          	addi	a4,a6,-1 # ffff <_tbss_end+0xff7b>
800022bc:	00df6863          	bltu	t5,a3,800022cc <__moddi3+0x3ac>
800022c0:	00bf7663          	bleu	a1,t5,800022cc <__moddi3+0x3ac>
800022c4:	ffe80713          	addi	a4,a6,-2
800022c8:	00df0f33          	add	t5,t5,a3
800022cc:	01031313          	slli	t1,t1,0x10
800022d0:	00010fb7          	lui	t6,0x10
800022d4:	00e36333          	or	t1,t1,a4
800022d8:	ffff8793          	addi	a5,t6,-1 # ffff <_tbss_end+0xff7b>
800022dc:	01065813          	srli	a6,a2,0x10
800022e0:	40bf0f33          	sub	t5,t5,a1
800022e4:	00f375b3          	and	a1,t1,a5
800022e8:	01035313          	srli	t1,t1,0x10
800022ec:	00f677b3          	and	a5,a2,a5
800022f0:	02f58733          	mul	a4,a1,a5
800022f4:	02f307b3          	mul	a5,t1,a5
800022f8:	030585b3          	mul	a1,a1,a6
800022fc:	03030333          	mul	t1,t1,a6
80002300:	00f585b3          	add	a1,a1,a5
80002304:	01075813          	srli	a6,a4,0x10
80002308:	00b80833          	add	a6,a6,a1
8000230c:	00f87463          	bleu	a5,a6,80002314 <__moddi3+0x3f4>
80002310:	01f30333          	add	t1,t1,t6
80002314:	000107b7          	lui	a5,0x10
80002318:	fff78793          	addi	a5,a5,-1 # ffff <_tbss_end+0xff7b>
8000231c:	01085593          	srli	a1,a6,0x10
80002320:	00f87833          	and	a6,a6,a5
80002324:	01081813          	slli	a6,a6,0x10
80002328:	00f77733          	and	a4,a4,a5
8000232c:	006585b3          	add	a1,a1,t1
80002330:	00e80733          	add	a4,a6,a4
80002334:	00bf6663          	bltu	t5,a1,80002340 <__moddi3+0x420>
80002338:	00bf1e63          	bne	t5,a1,80002354 <__moddi3+0x434>
8000233c:	00e57c63          	bleu	a4,a0,80002354 <__moddi3+0x434>
80002340:	40c70633          	sub	a2,a4,a2
80002344:	00c73733          	sltu	a4,a4,a2
80002348:	40d585b3          	sub	a1,a1,a3
8000234c:	40e585b3          	sub	a1,a1,a4
80002350:	00060713          	mv	a4,a2
80002354:	40e50733          	sub	a4,a0,a4
80002358:	00e53533          	sltu	a0,a0,a4
8000235c:	40bf05b3          	sub	a1,t5,a1
80002360:	40a585b3          	sub	a1,a1,a0
80002364:	01d597b3          	sll	a5,a1,t4
80002368:	01c75733          	srl	a4,a4,t3
8000236c:	00e7e533          	or	a0,a5,a4
80002370:	01c5d5b3          	srl	a1,a1,t3
80002374:	cb9ff06f          	j	8000202c <__moddi3+0x10c>

80002378 <__udivdi3>:
80002378:	00058793          	mv	a5,a1
8000237c:	00060813          	mv	a6,a2
80002380:	00068893          	mv	a7,a3
80002384:	00050313          	mv	t1,a0
80002388:	28069663          	bnez	a3,80002614 <__udivdi3+0x29c>
8000238c:	80003737          	lui	a4,0x80003
80002390:	df870713          	addi	a4,a4,-520 # 80002df8 <__global_pointer$+0xffffeab0>
80002394:	0ec5f663          	bleu	a2,a1,80002480 <__udivdi3+0x108>
80002398:	000106b7          	lui	a3,0x10
8000239c:	0cd67863          	bleu	a3,a2,8000246c <__udivdi3+0xf4>
800023a0:	0ff00693          	li	a3,255
800023a4:	00c6b6b3          	sltu	a3,a3,a2
800023a8:	00369693          	slli	a3,a3,0x3
800023ac:	00d658b3          	srl	a7,a2,a3
800023b0:	01170733          	add	a4,a4,a7
800023b4:	00074703          	lbu	a4,0(a4)
800023b8:	00d706b3          	add	a3,a4,a3
800023bc:	02000713          	li	a4,32
800023c0:	40d70733          	sub	a4,a4,a3
800023c4:	00070c63          	beqz	a4,800023dc <__udivdi3+0x64>
800023c8:	00e797b3          	sll	a5,a5,a4
800023cc:	00d556b3          	srl	a3,a0,a3
800023d0:	00e61833          	sll	a6,a2,a4
800023d4:	00f6e5b3          	or	a1,a3,a5
800023d8:	00e51333          	sll	t1,a0,a4
800023dc:	01085513          	srli	a0,a6,0x10
800023e0:	02a5d7b3          	divu	a5,a1,a0
800023e4:	01081613          	slli	a2,a6,0x10
800023e8:	01065613          	srli	a2,a2,0x10
800023ec:	01035693          	srli	a3,t1,0x10
800023f0:	02a5f733          	remu	a4,a1,a0
800023f4:	02f605b3          	mul	a1,a2,a5
800023f8:	01071713          	slli	a4,a4,0x10
800023fc:	00d766b3          	or	a3,a4,a3
80002400:	00078713          	mv	a4,a5
80002404:	00b6fe63          	bleu	a1,a3,80002420 <__udivdi3+0xa8>
80002408:	010686b3          	add	a3,a3,a6
8000240c:	fff78713          	addi	a4,a5,-1
80002410:	0106e863          	bltu	a3,a6,80002420 <__udivdi3+0xa8>
80002414:	00b6f663          	bleu	a1,a3,80002420 <__udivdi3+0xa8>
80002418:	ffe78713          	addi	a4,a5,-2
8000241c:	010686b3          	add	a3,a3,a6
80002420:	40b686b3          	sub	a3,a3,a1
80002424:	02a6f7b3          	remu	a5,a3,a0
80002428:	01031313          	slli	t1,t1,0x10
8000242c:	01035313          	srli	t1,t1,0x10
80002430:	02a6d6b3          	divu	a3,a3,a0
80002434:	01079793          	slli	a5,a5,0x10
80002438:	0067e333          	or	t1,a5,t1
8000243c:	02d605b3          	mul	a1,a2,a3
80002440:	00068513          	mv	a0,a3
80002444:	00b37c63          	bleu	a1,t1,8000245c <__udivdi3+0xe4>
80002448:	00680333          	add	t1,a6,t1
8000244c:	fff68513          	addi	a0,a3,-1 # ffff <_tbss_end+0xff7b>
80002450:	01036663          	bltu	t1,a6,8000245c <__udivdi3+0xe4>
80002454:	00b37463          	bleu	a1,t1,8000245c <__udivdi3+0xe4>
80002458:	ffe68513          	addi	a0,a3,-2
8000245c:	01071713          	slli	a4,a4,0x10
80002460:	00a76733          	or	a4,a4,a0
80002464:	00000593          	li	a1,0
80002468:	0e40006f          	j	8000254c <__udivdi3+0x1d4>
8000246c:	010008b7          	lui	a7,0x1000
80002470:	01000693          	li	a3,16
80002474:	f3166ce3          	bltu	a2,a7,800023ac <__udivdi3+0x34>
80002478:	01800693          	li	a3,24
8000247c:	f31ff06f          	j	800023ac <__udivdi3+0x34>
80002480:	00061663          	bnez	a2,8000248c <__udivdi3+0x114>
80002484:	00100693          	li	a3,1
80002488:	02c6d833          	divu	a6,a3,a2
8000248c:	000106b7          	lui	a3,0x10
80002490:	0cd87263          	bleu	a3,a6,80002554 <__udivdi3+0x1dc>
80002494:	0ff00693          	li	a3,255
80002498:	0106f463          	bleu	a6,a3,800024a0 <__udivdi3+0x128>
8000249c:	00800893          	li	a7,8
800024a0:	011856b3          	srl	a3,a6,a7
800024a4:	00d70733          	add	a4,a4,a3
800024a8:	00074683          	lbu	a3,0(a4)
800024ac:	02000713          	li	a4,32
800024b0:	011686b3          	add	a3,a3,a7
800024b4:	40d70733          	sub	a4,a4,a3
800024b8:	0a071863          	bnez	a4,80002568 <__udivdi3+0x1f0>
800024bc:	410787b3          	sub	a5,a5,a6
800024c0:	00100593          	li	a1,1
800024c4:	01085613          	srli	a2,a6,0x10
800024c8:	01081893          	slli	a7,a6,0x10
800024cc:	0108d893          	srli	a7,a7,0x10
800024d0:	01035693          	srli	a3,t1,0x10
800024d4:	02c7f733          	remu	a4,a5,a2
800024d8:	02c7d7b3          	divu	a5,a5,a2
800024dc:	01071713          	slli	a4,a4,0x10
800024e0:	00d766b3          	or	a3,a4,a3
800024e4:	02f88533          	mul	a0,a7,a5
800024e8:	00078713          	mv	a4,a5
800024ec:	00a6fe63          	bleu	a0,a3,80002508 <__udivdi3+0x190>
800024f0:	010686b3          	add	a3,a3,a6
800024f4:	fff78713          	addi	a4,a5,-1
800024f8:	0106e863          	bltu	a3,a6,80002508 <__udivdi3+0x190>
800024fc:	00a6f663          	bleu	a0,a3,80002508 <__udivdi3+0x190>
80002500:	ffe78713          	addi	a4,a5,-2
80002504:	010686b3          	add	a3,a3,a6
80002508:	40a686b3          	sub	a3,a3,a0
8000250c:	02c6f7b3          	remu	a5,a3,a2
80002510:	01031313          	slli	t1,t1,0x10
80002514:	01035313          	srli	t1,t1,0x10
80002518:	02c6d6b3          	divu	a3,a3,a2
8000251c:	01079793          	slli	a5,a5,0x10
80002520:	0067e333          	or	t1,a5,t1
80002524:	02d888b3          	mul	a7,a7,a3
80002528:	00068513          	mv	a0,a3
8000252c:	01137c63          	bleu	a7,t1,80002544 <__udivdi3+0x1cc>
80002530:	00680333          	add	t1,a6,t1
80002534:	fff68513          	addi	a0,a3,-1 # ffff <_tbss_end+0xff7b>
80002538:	01036663          	bltu	t1,a6,80002544 <__udivdi3+0x1cc>
8000253c:	01137463          	bleu	a7,t1,80002544 <__udivdi3+0x1cc>
80002540:	ffe68513          	addi	a0,a3,-2
80002544:	01071713          	slli	a4,a4,0x10
80002548:	00a76733          	or	a4,a4,a0
8000254c:	00070513          	mv	a0,a4
80002550:	00008067          	ret
80002554:	010006b7          	lui	a3,0x1000
80002558:	01000893          	li	a7,16
8000255c:	f4d862e3          	bltu	a6,a3,800024a0 <__udivdi3+0x128>
80002560:	01800893          	li	a7,24
80002564:	f3dff06f          	j	800024a0 <__udivdi3+0x128>
80002568:	00e81833          	sll	a6,a6,a4
8000256c:	00d7d5b3          	srl	a1,a5,a3
80002570:	00e51333          	sll	t1,a0,a4
80002574:	00d556b3          	srl	a3,a0,a3
80002578:	01085513          	srli	a0,a6,0x10
8000257c:	00e797b3          	sll	a5,a5,a4
80002580:	02a5f733          	remu	a4,a1,a0
80002584:	00f6e8b3          	or	a7,a3,a5
80002588:	01081793          	slli	a5,a6,0x10
8000258c:	0107d793          	srli	a5,a5,0x10
80002590:	0108d613          	srli	a2,a7,0x10
80002594:	02a5d5b3          	divu	a1,a1,a0
80002598:	01071713          	slli	a4,a4,0x10
8000259c:	00c76733          	or	a4,a4,a2
800025a0:	02b786b3          	mul	a3,a5,a1
800025a4:	00058613          	mv	a2,a1
800025a8:	00d77e63          	bleu	a3,a4,800025c4 <__udivdi3+0x24c>
800025ac:	01070733          	add	a4,a4,a6
800025b0:	fff58613          	addi	a2,a1,-1
800025b4:	01076863          	bltu	a4,a6,800025c4 <__udivdi3+0x24c>
800025b8:	00d77663          	bleu	a3,a4,800025c4 <__udivdi3+0x24c>
800025bc:	ffe58613          	addi	a2,a1,-2
800025c0:	01070733          	add	a4,a4,a6
800025c4:	40d706b3          	sub	a3,a4,a3
800025c8:	02a6f733          	remu	a4,a3,a0
800025cc:	01089893          	slli	a7,a7,0x10
800025d0:	0108d893          	srli	a7,a7,0x10
800025d4:	02a6d6b3          	divu	a3,a3,a0
800025d8:	01071713          	slli	a4,a4,0x10
800025dc:	02d785b3          	mul	a1,a5,a3
800025e0:	011767b3          	or	a5,a4,a7
800025e4:	00068713          	mv	a4,a3
800025e8:	00b7fe63          	bleu	a1,a5,80002604 <__udivdi3+0x28c>
800025ec:	010787b3          	add	a5,a5,a6
800025f0:	fff68713          	addi	a4,a3,-1 # ffffff <_tbss_end+0xffff7b>
800025f4:	0107e863          	bltu	a5,a6,80002604 <__udivdi3+0x28c>
800025f8:	00b7f663          	bleu	a1,a5,80002604 <__udivdi3+0x28c>
800025fc:	ffe68713          	addi	a4,a3,-2
80002600:	010787b3          	add	a5,a5,a6
80002604:	40b787b3          	sub	a5,a5,a1
80002608:	01061593          	slli	a1,a2,0x10
8000260c:	00e5e5b3          	or	a1,a1,a4
80002610:	eb5ff06f          	j	800024c4 <__udivdi3+0x14c>
80002614:	18d5e663          	bltu	a1,a3,800027a0 <__udivdi3+0x428>
80002618:	00010737          	lui	a4,0x10
8000261c:	04e6f463          	bleu	a4,a3,80002664 <__udivdi3+0x2ec>
80002620:	0ff00813          	li	a6,255
80002624:	00d83733          	sltu	a4,a6,a3
80002628:	00371713          	slli	a4,a4,0x3
8000262c:	80003837          	lui	a6,0x80003
80002630:	df880813          	addi	a6,a6,-520 # 80002df8 <__global_pointer$+0xffffeab0>
80002634:	00e6d5b3          	srl	a1,a3,a4
80002638:	010585b3          	add	a1,a1,a6
8000263c:	0005c803          	lbu	a6,0(a1)
80002640:	02000593          	li	a1,32
80002644:	00e80833          	add	a6,a6,a4
80002648:	410585b3          	sub	a1,a1,a6
8000264c:	02059663          	bnez	a1,80002678 <__udivdi3+0x300>
80002650:	00100713          	li	a4,1
80002654:	eef6ece3          	bltu	a3,a5,8000254c <__udivdi3+0x1d4>
80002658:	00c53533          	sltu	a0,a0,a2
8000265c:	00154713          	xori	a4,a0,1
80002660:	eedff06f          	j	8000254c <__udivdi3+0x1d4>
80002664:	010005b7          	lui	a1,0x1000
80002668:	01000713          	li	a4,16
8000266c:	fcb6e0e3          	bltu	a3,a1,8000262c <__udivdi3+0x2b4>
80002670:	01800713          	li	a4,24
80002674:	fb9ff06f          	j	8000262c <__udivdi3+0x2b4>
80002678:	01065733          	srl	a4,a2,a6
8000267c:	00b696b3          	sll	a3,a3,a1
80002680:	00d766b3          	or	a3,a4,a3
80002684:	0106de93          	srli	t4,a3,0x10
80002688:	0107d733          	srl	a4,a5,a6
8000268c:	03d778b3          	remu	a7,a4,t4
80002690:	00b797b3          	sll	a5,a5,a1
80002694:	01055833          	srl	a6,a0,a6
80002698:	00f86333          	or	t1,a6,a5
8000269c:	01069793          	slli	a5,a3,0x10
800026a0:	0107d793          	srli	a5,a5,0x10
800026a4:	01035813          	srli	a6,t1,0x10
800026a8:	00b61633          	sll	a2,a2,a1
800026ac:	03d75733          	divu	a4,a4,t4
800026b0:	01089893          	slli	a7,a7,0x10
800026b4:	0108e833          	or	a6,a7,a6
800026b8:	02e78f33          	mul	t5,a5,a4
800026bc:	00070e13          	mv	t3,a4
800026c0:	01e87e63          	bleu	t5,a6,800026dc <__udivdi3+0x364>
800026c4:	00d80833          	add	a6,a6,a3
800026c8:	fff70e13          	addi	t3,a4,-1 # ffff <_tbss_end+0xff7b>
800026cc:	00d86863          	bltu	a6,a3,800026dc <__udivdi3+0x364>
800026d0:	01e87663          	bleu	t5,a6,800026dc <__udivdi3+0x364>
800026d4:	ffe70e13          	addi	t3,a4,-2
800026d8:	00d80833          	add	a6,a6,a3
800026dc:	41e80833          	sub	a6,a6,t5
800026e0:	03d878b3          	remu	a7,a6,t4
800026e4:	03d85833          	divu	a6,a6,t4
800026e8:	01089893          	slli	a7,a7,0x10
800026ec:	03078eb3          	mul	t4,a5,a6
800026f0:	01031793          	slli	a5,t1,0x10
800026f4:	0107d793          	srli	a5,a5,0x10
800026f8:	00f8e7b3          	or	a5,a7,a5
800026fc:	00080713          	mv	a4,a6
80002700:	01d7fe63          	bleu	t4,a5,8000271c <__udivdi3+0x3a4>
80002704:	00d787b3          	add	a5,a5,a3
80002708:	fff80713          	addi	a4,a6,-1
8000270c:	00d7e863          	bltu	a5,a3,8000271c <__udivdi3+0x3a4>
80002710:	01d7f663          	bleu	t4,a5,8000271c <__udivdi3+0x3a4>
80002714:	ffe80713          	addi	a4,a6,-2
80002718:	00d787b3          	add	a5,a5,a3
8000271c:	010e1e13          	slli	t3,t3,0x10
80002720:	41d787b3          	sub	a5,a5,t4
80002724:	00010eb7          	lui	t4,0x10
80002728:	00ee6733          	or	a4,t3,a4
8000272c:	fffe8813          	addi	a6,t4,-1 # ffff <_tbss_end+0xff7b>
80002730:	01077333          	and	t1,a4,a6
80002734:	01075893          	srli	a7,a4,0x10
80002738:	01067833          	and	a6,a2,a6
8000273c:	01065613          	srli	a2,a2,0x10
80002740:	03030e33          	mul	t3,t1,a6
80002744:	03088833          	mul	a6,a7,a6
80002748:	010e5693          	srli	a3,t3,0x10
8000274c:	02c30333          	mul	t1,t1,a2
80002750:	01030333          	add	t1,t1,a6
80002754:	006686b3          	add	a3,a3,t1
80002758:	02c888b3          	mul	a7,a7,a2
8000275c:	0106f463          	bleu	a6,a3,80002764 <__udivdi3+0x3ec>
80002760:	01d888b3          	add	a7,a7,t4
80002764:	0106d613          	srli	a2,a3,0x10
80002768:	011608b3          	add	a7,a2,a7
8000276c:	0317e663          	bltu	a5,a7,80002798 <__udivdi3+0x420>
80002770:	cf179ae3          	bne	a5,a7,80002464 <__udivdi3+0xec>
80002774:	000107b7          	lui	a5,0x10
80002778:	fff78793          	addi	a5,a5,-1 # ffff <_tbss_end+0xff7b>
8000277c:	00f6f6b3          	and	a3,a3,a5
80002780:	01069693          	slli	a3,a3,0x10
80002784:	00fe7e33          	and	t3,t3,a5
80002788:	00b51533          	sll	a0,a0,a1
8000278c:	01c686b3          	add	a3,a3,t3
80002790:	00000593          	li	a1,0
80002794:	dad57ce3          	bleu	a3,a0,8000254c <__udivdi3+0x1d4>
80002798:	fff70713          	addi	a4,a4,-1
8000279c:	cc9ff06f          	j	80002464 <__udivdi3+0xec>
800027a0:	00000593          	li	a1,0
800027a4:	00000713          	li	a4,0
800027a8:	da5ff06f          	j	8000254c <__udivdi3+0x1d4>

800027ac <__umoddi3>:
800027ac:	00060893          	mv	a7,a2
800027b0:	00068713          	mv	a4,a3
800027b4:	00050793          	mv	a5,a0
800027b8:	00058813          	mv	a6,a1
800027bc:	22069c63          	bnez	a3,800029f4 <__umoddi3+0x248>
800027c0:	800036b7          	lui	a3,0x80003
800027c4:	df868693          	addi	a3,a3,-520 # 80002df8 <__global_pointer$+0xffffeab0>
800027c8:	0cc5fc63          	bleu	a2,a1,800028a0 <__umoddi3+0xf4>
800027cc:	00010337          	lui	t1,0x10
800027d0:	0a667e63          	bleu	t1,a2,8000288c <__umoddi3+0xe0>
800027d4:	0ff00313          	li	t1,255
800027d8:	00c37463          	bleu	a2,t1,800027e0 <__umoddi3+0x34>
800027dc:	00800713          	li	a4,8
800027e0:	00e65333          	srl	t1,a2,a4
800027e4:	006686b3          	add	a3,a3,t1
800027e8:	0006ce03          	lbu	t3,0(a3)
800027ec:	02000313          	li	t1,32
800027f0:	00ee0e33          	add	t3,t3,a4
800027f4:	41c30333          	sub	t1,t1,t3
800027f8:	00030c63          	beqz	t1,80002810 <__umoddi3+0x64>
800027fc:	006595b3          	sll	a1,a1,t1
80002800:	01c55e33          	srl	t3,a0,t3
80002804:	006618b3          	sll	a7,a2,t1
80002808:	00be6833          	or	a6,t3,a1
8000280c:	006517b3          	sll	a5,a0,t1
80002810:	0108d613          	srli	a2,a7,0x10
80002814:	02c87733          	remu	a4,a6,a2
80002818:	01089513          	slli	a0,a7,0x10
8000281c:	01055513          	srli	a0,a0,0x10
80002820:	0107d693          	srli	a3,a5,0x10
80002824:	02c85833          	divu	a6,a6,a2
80002828:	01071713          	slli	a4,a4,0x10
8000282c:	00d766b3          	or	a3,a4,a3
80002830:	03050833          	mul	a6,a0,a6
80002834:	0106fa63          	bleu	a6,a3,80002848 <__umoddi3+0x9c>
80002838:	011686b3          	add	a3,a3,a7
8000283c:	0116e663          	bltu	a3,a7,80002848 <__umoddi3+0x9c>
80002840:	0106f463          	bleu	a6,a3,80002848 <__umoddi3+0x9c>
80002844:	011686b3          	add	a3,a3,a7
80002848:	410686b3          	sub	a3,a3,a6
8000284c:	02c6f733          	remu	a4,a3,a2
80002850:	01079793          	slli	a5,a5,0x10
80002854:	0107d793          	srli	a5,a5,0x10
80002858:	02c6d6b3          	divu	a3,a3,a2
8000285c:	02d506b3          	mul	a3,a0,a3
80002860:	01071513          	slli	a0,a4,0x10
80002864:	00f567b3          	or	a5,a0,a5
80002868:	00d7fa63          	bleu	a3,a5,8000287c <__umoddi3+0xd0>
8000286c:	011787b3          	add	a5,a5,a7
80002870:	0117e663          	bltu	a5,a7,8000287c <__umoddi3+0xd0>
80002874:	00d7f463          	bleu	a3,a5,8000287c <__umoddi3+0xd0>
80002878:	011787b3          	add	a5,a5,a7
8000287c:	40d787b3          	sub	a5,a5,a3
80002880:	0067d533          	srl	a0,a5,t1
80002884:	00000593          	li	a1,0
80002888:	00008067          	ret
8000288c:	01000337          	lui	t1,0x1000
80002890:	01000713          	li	a4,16
80002894:	f46666e3          	bltu	a2,t1,800027e0 <__umoddi3+0x34>
80002898:	01800713          	li	a4,24
8000289c:	f45ff06f          	j	800027e0 <__umoddi3+0x34>
800028a0:	00061663          	bnez	a2,800028ac <__umoddi3+0x100>
800028a4:	00100613          	li	a2,1
800028a8:	031658b3          	divu	a7,a2,a7
800028ac:	00010637          	lui	a2,0x10
800028b0:	0ac8f263          	bleu	a2,a7,80002954 <__umoddi3+0x1a8>
800028b4:	0ff00613          	li	a2,255
800028b8:	01167463          	bleu	a7,a2,800028c0 <__umoddi3+0x114>
800028bc:	00800713          	li	a4,8
800028c0:	00e8d633          	srl	a2,a7,a4
800028c4:	00c686b3          	add	a3,a3,a2
800028c8:	0006ce03          	lbu	t3,0(a3)
800028cc:	02000313          	li	t1,32
800028d0:	00ee0e33          	add	t3,t3,a4
800028d4:	41c30333          	sub	t1,t1,t3
800028d8:	08031863          	bnez	t1,80002968 <__umoddi3+0x1bc>
800028dc:	411585b3          	sub	a1,a1,a7
800028e0:	0108d713          	srli	a4,a7,0x10
800028e4:	01089513          	slli	a0,a7,0x10
800028e8:	01055513          	srli	a0,a0,0x10
800028ec:	0107d613          	srli	a2,a5,0x10
800028f0:	02e5f6b3          	remu	a3,a1,a4
800028f4:	02e5d5b3          	divu	a1,a1,a4
800028f8:	01069693          	slli	a3,a3,0x10
800028fc:	00c6e6b3          	or	a3,a3,a2
80002900:	02b505b3          	mul	a1,a0,a1
80002904:	00b6fa63          	bleu	a1,a3,80002918 <__umoddi3+0x16c>
80002908:	011686b3          	add	a3,a3,a7
8000290c:	0116e663          	bltu	a3,a7,80002918 <__umoddi3+0x16c>
80002910:	00b6f463          	bleu	a1,a3,80002918 <__umoddi3+0x16c>
80002914:	011686b3          	add	a3,a3,a7
80002918:	40b685b3          	sub	a1,a3,a1
8000291c:	02e5f6b3          	remu	a3,a1,a4
80002920:	01079793          	slli	a5,a5,0x10
80002924:	0107d793          	srli	a5,a5,0x10
80002928:	02e5d5b3          	divu	a1,a1,a4
8000292c:	02b505b3          	mul	a1,a0,a1
80002930:	01069513          	slli	a0,a3,0x10
80002934:	00f567b3          	or	a5,a0,a5
80002938:	00b7fa63          	bleu	a1,a5,8000294c <__umoddi3+0x1a0>
8000293c:	011787b3          	add	a5,a5,a7
80002940:	0117e663          	bltu	a5,a7,8000294c <__umoddi3+0x1a0>
80002944:	00b7f463          	bleu	a1,a5,8000294c <__umoddi3+0x1a0>
80002948:	011787b3          	add	a5,a5,a7
8000294c:	40b787b3          	sub	a5,a5,a1
80002950:	f31ff06f          	j	80002880 <__umoddi3+0xd4>
80002954:	01000637          	lui	a2,0x1000
80002958:	01000713          	li	a4,16
8000295c:	f6c8e2e3          	bltu	a7,a2,800028c0 <__umoddi3+0x114>
80002960:	01800713          	li	a4,24
80002964:	f5dff06f          	j	800028c0 <__umoddi3+0x114>
80002968:	006898b3          	sll	a7,a7,t1
8000296c:	01c5d733          	srl	a4,a1,t3
80002970:	006517b3          	sll	a5,a0,t1
80002974:	01c55e33          	srl	t3,a0,t3
80002978:	0108d513          	srli	a0,a7,0x10
8000297c:	02a776b3          	remu	a3,a4,a0
80002980:	006595b3          	sll	a1,a1,t1
80002984:	00be6e33          	or	t3,t3,a1
80002988:	01089593          	slli	a1,a7,0x10
8000298c:	0105d593          	srli	a1,a1,0x10
80002990:	010e5613          	srli	a2,t3,0x10
80002994:	02a75733          	divu	a4,a4,a0
80002998:	01069693          	slli	a3,a3,0x10
8000299c:	00c6e6b3          	or	a3,a3,a2
800029a0:	02e58733          	mul	a4,a1,a4
800029a4:	00e6fa63          	bleu	a4,a3,800029b8 <__umoddi3+0x20c>
800029a8:	011686b3          	add	a3,a3,a7
800029ac:	0116e663          	bltu	a3,a7,800029b8 <__umoddi3+0x20c>
800029b0:	00e6f463          	bleu	a4,a3,800029b8 <__umoddi3+0x20c>
800029b4:	011686b3          	add	a3,a3,a7
800029b8:	40e68633          	sub	a2,a3,a4
800029bc:	02a676b3          	remu	a3,a2,a0
800029c0:	010e1e13          	slli	t3,t3,0x10
800029c4:	010e5e13          	srli	t3,t3,0x10
800029c8:	02a65633          	divu	a2,a2,a0
800029cc:	01069693          	slli	a3,a3,0x10
800029d0:	02c58633          	mul	a2,a1,a2
800029d4:	01c6e5b3          	or	a1,a3,t3
800029d8:	00c5fa63          	bleu	a2,a1,800029ec <__umoddi3+0x240>
800029dc:	011585b3          	add	a1,a1,a7
800029e0:	0115e663          	bltu	a1,a7,800029ec <__umoddi3+0x240>
800029e4:	00c5f463          	bleu	a2,a1,800029ec <__umoddi3+0x240>
800029e8:	011585b3          	add	a1,a1,a7
800029ec:	40c585b3          	sub	a1,a1,a2
800029f0:	ef1ff06f          	j	800028e0 <__umoddi3+0x134>
800029f4:	e8d5eae3          	bltu	a1,a3,80002888 <__umoddi3+0xdc>
800029f8:	00010737          	lui	a4,0x10
800029fc:	04e6fc63          	bleu	a4,a3,80002a54 <__umoddi3+0x2a8>
80002a00:	0ff00e93          	li	t4,255
80002a04:	00deb733          	sltu	a4,t4,a3
80002a08:	00371713          	slli	a4,a4,0x3
80002a0c:	80003337          	lui	t1,0x80003
80002a10:	00e6d8b3          	srl	a7,a3,a4
80002a14:	df830313          	addi	t1,t1,-520 # 80002df8 <__global_pointer$+0xffffeab0>
80002a18:	006888b3          	add	a7,a7,t1
80002a1c:	0008ce83          	lbu	t4,0(a7) # 1000000 <_tbss_end+0xffff7c>
80002a20:	02000e13          	li	t3,32
80002a24:	00ee8eb3          	add	t4,t4,a4
80002a28:	41de0e33          	sub	t3,t3,t4
80002a2c:	020e1e63          	bnez	t3,80002a68 <__umoddi3+0x2bc>
80002a30:	00b6e463          	bltu	a3,a1,80002a38 <__umoddi3+0x28c>
80002a34:	00c56a63          	bltu	a0,a2,80002a48 <__umoddi3+0x29c>
80002a38:	40c507b3          	sub	a5,a0,a2
80002a3c:	40d585b3          	sub	a1,a1,a3
80002a40:	00f53533          	sltu	a0,a0,a5
80002a44:	40a58833          	sub	a6,a1,a0
80002a48:	00078513          	mv	a0,a5
80002a4c:	00080593          	mv	a1,a6
80002a50:	e39ff06f          	j	80002888 <__umoddi3+0xdc>
80002a54:	010008b7          	lui	a7,0x1000
80002a58:	01000713          	li	a4,16
80002a5c:	fb16e8e3          	bltu	a3,a7,80002a0c <__umoddi3+0x260>
80002a60:	01800713          	li	a4,24
80002a64:	fa9ff06f          	j	80002a0c <__umoddi3+0x260>
80002a68:	01d65733          	srl	a4,a2,t4
80002a6c:	01c696b3          	sll	a3,a3,t3
80002a70:	00d766b3          	or	a3,a4,a3
80002a74:	01d557b3          	srl	a5,a0,t4
80002a78:	01d5d733          	srl	a4,a1,t4
80002a7c:	01c595b3          	sll	a1,a1,t3
80002a80:	00b7e7b3          	or	a5,a5,a1
80002a84:	0106d593          	srli	a1,a3,0x10
80002a88:	02b77333          	remu	t1,a4,a1
80002a8c:	01069f13          	slli	t5,a3,0x10
80002a90:	010f5f13          	srli	t5,t5,0x10
80002a94:	0107d893          	srli	a7,a5,0x10
80002a98:	01c61633          	sll	a2,a2,t3
80002a9c:	01c51533          	sll	a0,a0,t3
80002aa0:	02b75733          	divu	a4,a4,a1
80002aa4:	01031313          	slli	t1,t1,0x10
80002aa8:	011368b3          	or	a7,t1,a7
80002aac:	02ef0833          	mul	a6,t5,a4
80002ab0:	00070313          	mv	t1,a4
80002ab4:	0108fe63          	bleu	a6,a7,80002ad0 <__umoddi3+0x324>
80002ab8:	00d888b3          	add	a7,a7,a3
80002abc:	fff70313          	addi	t1,a4,-1 # ffff <_tbss_end+0xff7b>
80002ac0:	00d8e863          	bltu	a7,a3,80002ad0 <__umoddi3+0x324>
80002ac4:	0108f663          	bleu	a6,a7,80002ad0 <__umoddi3+0x324>
80002ac8:	ffe70313          	addi	t1,a4,-2
80002acc:	00d888b3          	add	a7,a7,a3
80002ad0:	410888b3          	sub	a7,a7,a6
80002ad4:	02b8ffb3          	remu	t6,a7,a1
80002ad8:	02b8d8b3          	divu	a7,a7,a1
80002adc:	010f9f93          	slli	t6,t6,0x10
80002ae0:	031f05b3          	mul	a1,t5,a7
80002ae4:	01079f13          	slli	t5,a5,0x10
80002ae8:	010f5f13          	srli	t5,t5,0x10
80002aec:	01efef33          	or	t5,t6,t5
80002af0:	00088713          	mv	a4,a7
80002af4:	00bf7e63          	bleu	a1,t5,80002b10 <__umoddi3+0x364>
80002af8:	00df0f33          	add	t5,t5,a3
80002afc:	fff88713          	addi	a4,a7,-1 # ffffff <_tbss_end+0xffff7b>
80002b00:	00df6863          	bltu	t5,a3,80002b10 <__umoddi3+0x364>
80002b04:	00bf7663          	bleu	a1,t5,80002b10 <__umoddi3+0x364>
80002b08:	ffe88713          	addi	a4,a7,-2
80002b0c:	00df0f33          	add	t5,t5,a3
80002b10:	01031313          	slli	t1,t1,0x10
80002b14:	000108b7          	lui	a7,0x10
80002b18:	00e36333          	or	t1,t1,a4
80002b1c:	fff88793          	addi	a5,a7,-1 # ffff <_tbss_end+0xff7b>
80002b20:	01065813          	srli	a6,a2,0x10
80002b24:	40bf0f33          	sub	t5,t5,a1
80002b28:	00f375b3          	and	a1,t1,a5
80002b2c:	01035313          	srli	t1,t1,0x10
80002b30:	00f677b3          	and	a5,a2,a5
80002b34:	02f58733          	mul	a4,a1,a5
80002b38:	02f307b3          	mul	a5,t1,a5
80002b3c:	030585b3          	mul	a1,a1,a6
80002b40:	03030333          	mul	t1,t1,a6
80002b44:	00f585b3          	add	a1,a1,a5
80002b48:	01075813          	srli	a6,a4,0x10
80002b4c:	00b80833          	add	a6,a6,a1
80002b50:	00f87463          	bleu	a5,a6,80002b58 <__umoddi3+0x3ac>
80002b54:	01130333          	add	t1,t1,a7
80002b58:	000107b7          	lui	a5,0x10
80002b5c:	fff78793          	addi	a5,a5,-1 # ffff <_tbss_end+0xff7b>
80002b60:	01085593          	srli	a1,a6,0x10
80002b64:	00f87833          	and	a6,a6,a5
80002b68:	01081813          	slli	a6,a6,0x10
80002b6c:	00f77733          	and	a4,a4,a5
80002b70:	006585b3          	add	a1,a1,t1
80002b74:	00e80733          	add	a4,a6,a4
80002b78:	00bf6663          	bltu	t5,a1,80002b84 <__umoddi3+0x3d8>
80002b7c:	00bf1e63          	bne	t5,a1,80002b98 <__umoddi3+0x3ec>
80002b80:	00e57c63          	bleu	a4,a0,80002b98 <__umoddi3+0x3ec>
80002b84:	40c70633          	sub	a2,a4,a2
80002b88:	00c73733          	sltu	a4,a4,a2
80002b8c:	40d585b3          	sub	a1,a1,a3
80002b90:	40e585b3          	sub	a1,a1,a4
80002b94:	00060713          	mv	a4,a2
80002b98:	40e50733          	sub	a4,a0,a4
80002b9c:	00e53533          	sltu	a0,a0,a4
80002ba0:	40bf05b3          	sub	a1,t5,a1
80002ba4:	40a585b3          	sub	a1,a1,a0
80002ba8:	01d597b3          	sll	a5,a1,t4
80002bac:	01c75733          	srl	a4,a4,t3
80002bb0:	00e7e533          	or	a0,a5,a4
80002bb4:	01c5d5b3          	srl	a1,a1,t3
80002bb8:	cd1ff06f          	j	80002888 <__umoddi3+0xdc>

Disassembly of section .text.startup:

80002bbc <main>:
80002bbc:	ff010113          	addi	sp,sp,-16
80002bc0:	00000517          	auipc	a0,0x0
80002bc4:	0bc50513          	addi	a0,a0,188 # 80002c7c <main+0xc0>
80002bc8:	00112623          	sw	ra,12(sp)
80002bcc:	f0dfe0ef          	jal	ra,80001ad8 <printstr>
80002bd0:	00c12083          	lw	ra,12(sp)
80002bd4:	fff00513          	li	a0,-1
80002bd8:	01010113          	addi	sp,sp,16
80002bdc:	00008067          	ret

Disassembly of section .data:

80002f48 <input2_data>:
80002f48:	0001                	nop
80002f4a:	0000                	unimp
80002f4c:	0001                	nop
80002f4e:	0000                	unimp
80002f50:	0000                	unimp
80002f52:	0000                	unimp
80002f54:	00000003          	lb	zero,0(zero) # 0 <_tdata_begin>
80002f58:	0001                	nop
80002f5a:	0000                	unimp
80002f5c:	0002                	c.slli	zero,0x0
80002f5e:	0000                	unimp
80002f60:	0000                	unimp
80002f62:	0000                	unimp
80002f64:	0000                	unimp
80002f66:	0000                	unimp
80002f68:	0000                	unimp
80002f6a:	0000                	unimp
80002f6c:	0000                	unimp
80002f6e:	0000                	unimp
80002f70:	0000                	unimp
80002f72:	0000                	unimp
80002f74:	0002                	c.slli	zero,0x0
80002f76:	0000                	unimp
80002f78:	0001                	nop
80002f7a:	0000                	unimp
80002f7c:	0002                	c.slli	zero,0x0
80002f7e:	0000                	unimp
80002f80:	00000003          	lb	zero,0(zero) # 0 <_tdata_begin>
80002f84:	0000                	unimp
80002f86:	0000                	unimp
80002f88:	0000                	unimp
80002f8a:	0000                	unimp
80002f8c:	00000003          	lb	zero,0(zero) # 0 <_tdata_begin>
80002f90:	00000003          	lb	zero,0(zero) # 0 <_tdata_begin>
80002f94:	0002                	c.slli	zero,0x0
80002f96:	0000                	unimp
80002f98:	0002                	c.slli	zero,0x0
80002f9a:	0000                	unimp
80002f9c:	0001                	nop
80002f9e:	0000                	unimp
80002fa0:	0002                	c.slli	zero,0x0
80002fa2:	0000                	unimp
80002fa4:	00000003          	lb	zero,0(zero) # 0 <_tdata_begin>
80002fa8:	00000003          	lb	zero,0(zero) # 0 <_tdata_begin>
80002fac:	0000                	unimp
80002fae:	0000                	unimp
80002fb0:	0002                	c.slli	zero,0x0
80002fb2:	0000                	unimp
80002fb4:	0002                	c.slli	zero,0x0
80002fb6:	0000                	unimp
80002fb8:	0001                	nop
80002fba:	0000                	unimp
80002fbc:	0001                	nop
80002fbe:	0000                	unimp
80002fc0:	0002                	c.slli	zero,0x0
80002fc2:	0000                	unimp
80002fc4:	0002                	c.slli	zero,0x0
80002fc6:	0000                	unimp
80002fc8:	0000                	unimp
80002fca:	0000                	unimp
80002fcc:	0002                	c.slli	zero,0x0
80002fce:	0000                	unimp
80002fd0:	0002                	c.slli	zero,0x0
80002fd2:	0000                	unimp
80002fd4:	0001                	nop
80002fd6:	0000                	unimp
80002fd8:	0002                	c.slli	zero,0x0
80002fda:	0000                	unimp
80002fdc:	00000003          	lb	zero,0(zero) # 0 <_tdata_begin>
80002fe0:	0002                	c.slli	zero,0x0
80002fe2:	0000                	unimp
80002fe4:	0002                	c.slli	zero,0x0
80002fe6:	0000                	unimp
80002fe8:	00000003          	lb	zero,0(zero) # 0 <_tdata_begin>
80002fec:	00000003          	lb	zero,0(zero) # 0 <_tdata_begin>
80002ff0:	0002                	c.slli	zero,0x0
80002ff2:	0000                	unimp
80002ff4:	0002                	c.slli	zero,0x0
80002ff6:	0000                	unimp
80002ff8:	0001                	nop
80002ffa:	0000                	unimp
80002ffc:	0001                	nop
80002ffe:	0000                	unimp
80003000:	0001                	nop
80003002:	0000                	unimp
80003004:	0001                	nop
80003006:	0000                	unimp
80003008:	0002                	c.slli	zero,0x0
8000300a:	0000                	unimp
8000300c:	0001                	nop
8000300e:	0000                	unimp
80003010:	0002                	c.slli	zero,0x0
80003012:	0000                	unimp
80003014:	0002                	c.slli	zero,0x0
80003016:	0000                	unimp
80003018:	00000003          	lb	zero,0(zero) # 0 <_tdata_begin>
8000301c:	00000003          	lb	zero,0(zero) # 0 <_tdata_begin>
80003020:	00000003          	lb	zero,0(zero) # 0 <_tdata_begin>
80003024:	0000                	unimp
80003026:	0000                	unimp
80003028:	0000                	unimp
8000302a:	0000                	unimp
8000302c:	00000003          	lb	zero,0(zero) # 0 <_tdata_begin>
80003030:	0002                	c.slli	zero,0x0
80003032:	0000                	unimp
80003034:	00000003          	lb	zero,0(zero) # 0 <_tdata_begin>
80003038:	0002                	c.slli	zero,0x0
8000303a:	0000                	unimp
8000303c:	00000003          	lb	zero,0(zero) # 0 <_tdata_begin>
80003040:	0001                	nop
80003042:	0000                	unimp
80003044:	0002                	c.slli	zero,0x0
80003046:	0000                	unimp
80003048:	0001                	nop
8000304a:	0000                	unimp
8000304c:	0001                	nop
8000304e:	0000                	unimp
80003050:	0002                	c.slli	zero,0x0
80003052:	0000                	unimp
80003054:	0002                	c.slli	zero,0x0
80003056:	0000                	unimp
80003058:	0000                	unimp
8000305a:	0000                	unimp
8000305c:	0001                	nop
8000305e:	0000                	unimp
80003060:	0000                	unimp
80003062:	0000                	unimp
80003064:	00000003          	lb	zero,0(zero) # 0 <_tdata_begin>
80003068:	0002                	c.slli	zero,0x0
8000306a:	0000                	unimp
8000306c:	0001                	nop
8000306e:	0000                	unimp
80003070:	0001                	nop
80003072:	0000                	unimp
80003074:	0001                	nop
80003076:	0000                	unimp
80003078:	0002                	c.slli	zero,0x0
8000307a:	0000                	unimp
8000307c:	0000                	unimp
8000307e:	0000                	unimp
80003080:	0001                	nop
80003082:	0000                	unimp
80003084:	0002                	c.slli	zero,0x0
80003086:	0000                	unimp
80003088:	0002                	c.slli	zero,0x0
8000308a:	0000                	unimp
8000308c:	0000                	unimp
8000308e:	0000                	unimp
80003090:	0002                	c.slli	zero,0x0
80003092:	0000                	unimp
80003094:	0001                	nop
80003096:	0000                	unimp
80003098:	00000003          	lb	zero,0(zero) # 0 <_tdata_begin>
8000309c:	00000003          	lb	zero,0(zero) # 0 <_tdata_begin>
800030a0:	0002                	c.slli	zero,0x0
800030a2:	0000                	unimp
800030a4:	00000003          	lb	zero,0(zero) # 0 <_tdata_begin>
800030a8:	0002                	c.slli	zero,0x0
800030aa:	0000                	unimp
800030ac:	0000                	unimp
800030ae:	0000                	unimp
800030b0:	00000003          	lb	zero,0(zero) # 0 <_tdata_begin>
800030b4:	0001                	nop
800030b6:	0000                	unimp
800030b8:	00000003          	lb	zero,0(zero) # 0 <_tdata_begin>
800030bc:	00000003          	lb	zero,0(zero) # 0 <_tdata_begin>
800030c0:	0002                	c.slli	zero,0x0
800030c2:	0000                	unimp
800030c4:	0000                	unimp
800030c6:	0000                	unimp
800030c8:	0001                	nop
800030ca:	0000                	unimp
800030cc:	0000                	unimp
800030ce:	0000                	unimp
800030d0:	0001                	nop
800030d2:	0000                	unimp
800030d4:	0001                	nop
800030d6:	0000                	unimp
800030d8:	0002                	c.slli	zero,0x0
800030da:	0000                	unimp
800030dc:	0002                	c.slli	zero,0x0
800030de:	0000                	unimp
800030e0:	0001                	nop
800030e2:	0000                	unimp
800030e4:	0001                	nop
800030e6:	0000                	unimp
800030e8:	0002                	c.slli	zero,0x0
800030ea:	0000                	unimp
800030ec:	0002                	c.slli	zero,0x0
800030ee:	0000                	unimp
800030f0:	0001                	nop
800030f2:	0000                	unimp
800030f4:	0002                	c.slli	zero,0x0
800030f6:	0000                	unimp
800030f8:	00000003          	lb	zero,0(zero) # 0 <_tdata_begin>
800030fc:	00000003          	lb	zero,0(zero) # 0 <_tdata_begin>
80003100:	0001                	nop
80003102:	0000                	unimp
80003104:	00000003          	lb	zero,0(zero) # 0 <_tdata_begin>
80003108:	0002                	c.slli	zero,0x0
8000310a:	0000                	unimp
8000310c:	0002                	c.slli	zero,0x0
8000310e:	0000                	unimp
80003110:	0002                	c.slli	zero,0x0
80003112:	0000                	unimp
80003114:	00000003          	lb	zero,0(zero) # 0 <_tdata_begin>
80003118:	00000003          	lb	zero,0(zero) # 0 <_tdata_begin>
8000311c:	0001                	nop
8000311e:	0000                	unimp
80003120:	0000                	unimp
80003122:	0000                	unimp
80003124:	0002                	c.slli	zero,0x0
80003126:	0000                	unimp
80003128:	0001                	nop
8000312a:	0000                	unimp
8000312c:	0000                	unimp
8000312e:	0000                	unimp
80003130:	0000                	unimp
80003132:	0000                	unimp
80003134:	0000                	unimp
80003136:	0000                	unimp
80003138:	0001                	nop
8000313a:	0000                	unimp
8000313c:	0001                	nop
8000313e:	0000                	unimp
80003140:	0002                	c.slli	zero,0x0
80003142:	0000                	unimp
80003144:	0000                	unimp
80003146:	0000                	unimp
80003148:	00000003          	lb	zero,0(zero) # 0 <_tdata_begin>
8000314c:	0002                	c.slli	zero,0x0
8000314e:	0000                	unimp
80003150:	00000003          	lb	zero,0(zero) # 0 <_tdata_begin>
80003154:	00000003          	lb	zero,0(zero) # 0 <_tdata_begin>
80003158:	0000                	unimp
8000315a:	0000                	unimp
8000315c:	0002                	c.slli	zero,0x0
8000315e:	0000                	unimp
80003160:	00000003          	lb	zero,0(zero) # 0 <_tdata_begin>
80003164:	0001                	nop
80003166:	0000                	unimp
80003168:	0000                	unimp
8000316a:	0000                	unimp
8000316c:	0000                	unimp
8000316e:	0000                	unimp
80003170:	0002                	c.slli	zero,0x0
80003172:	0000                	unimp
80003174:	0001                	nop
80003176:	0000                	unimp
80003178:	0002                	c.slli	zero,0x0
8000317a:	0000                	unimp
8000317c:	0000                	unimp
8000317e:	0000                	unimp
80003180:	0002                	c.slli	zero,0x0
80003182:	0000                	unimp
80003184:	0001                	nop
80003186:	0000                	unimp
80003188:	0001                	nop
8000318a:	0000                	unimp
8000318c:	0002                	c.slli	zero,0x0
8000318e:	0000                	unimp
80003190:	00000003          	lb	zero,0(zero) # 0 <_tdata_begin>
80003194:	0001                	nop
80003196:	0000                	unimp
80003198:	00000003          	lb	zero,0(zero) # 0 <_tdata_begin>
8000319c:	0002                	c.slli	zero,0x0
8000319e:	0000                	unimp
800031a0:	0001                	nop
800031a2:	0000                	unimp
800031a4:	0000                	unimp
800031a6:	0000                	unimp
800031a8:	0000                	unimp
800031aa:	0000                	unimp
800031ac:	0000                	unimp
800031ae:	0000                	unimp
800031b0:	0000                	unimp
800031b2:	0000                	unimp
800031b4:	0000                	unimp
800031b6:	0000                	unimp
800031b8:	0002                	c.slli	zero,0x0
800031ba:	0000                	unimp
800031bc:	0002                	c.slli	zero,0x0
800031be:	0000                	unimp
800031c0:	0000                	unimp
800031c2:	0000                	unimp
800031c4:	0002                	c.slli	zero,0x0
800031c6:	0000                	unimp
800031c8:	0001                	nop
800031ca:	0000                	unimp
800031cc:	0002                	c.slli	zero,0x0
800031ce:	0000                	unimp
800031d0:	0000                	unimp
800031d2:	0000                	unimp
800031d4:	00000003          	lb	zero,0(zero) # 0 <_tdata_begin>
800031d8:	0002                	c.slli	zero,0x0
800031da:	0000                	unimp
800031dc:	0002                	c.slli	zero,0x0
800031de:	0000                	unimp
800031e0:	0000                	unimp
800031e2:	0000                	unimp
800031e4:	0000                	unimp
800031e6:	0000                	unimp
800031e8:	00000003          	lb	zero,0(zero) # 0 <_tdata_begin>
800031ec:	0002                	c.slli	zero,0x0
800031ee:	0000                	unimp
800031f0:	0001                	nop
800031f2:	0000                	unimp
800031f4:	0001                	nop
800031f6:	0000                	unimp
800031f8:	00000003          	lb	zero,0(zero) # 0 <_tdata_begin>
800031fc:	0000                	unimp
800031fe:	0000                	unimp
80003200:	0002                	c.slli	zero,0x0
80003202:	0000                	unimp
80003204:	0000                	unimp
80003206:	0000                	unimp
80003208:	0000                	unimp
8000320a:	0000                	unimp
8000320c:	0001                	nop
8000320e:	0000                	unimp
80003210:	0000                	unimp
80003212:	0000                	unimp
80003214:	0002                	c.slli	zero,0x0
80003216:	0000                	unimp
80003218:	00000003          	lb	zero,0(zero) # 0 <_tdata_begin>
8000321c:	00000003          	lb	zero,0(zero) # 0 <_tdata_begin>
80003220:	0001                	nop
80003222:	0000                	unimp
80003224:	00000003          	lb	zero,0(zero) # 0 <_tdata_begin>
80003228:	00000003          	lb	zero,0(zero) # 0 <_tdata_begin>
8000322c:	0000                	unimp
8000322e:	0000                	unimp
80003230:	0000                	unimp
80003232:	0000                	unimp
80003234:	0002                	c.slli	zero,0x0
80003236:	0000                	unimp
80003238:	0002                	c.slli	zero,0x0
8000323a:	0000                	unimp
8000323c:	0000                	unimp
8000323e:	0000                	unimp
80003240:	0000                	unimp
80003242:	0000                	unimp
80003244:	0000                	unimp
80003246:	0000                	unimp
80003248:	0001                	nop
8000324a:	0000                	unimp
8000324c:	0000                	unimp
8000324e:	0000                	unimp
80003250:	0000                	unimp
80003252:	0000                	unimp
80003254:	0001                	nop
80003256:	0000                	unimp
80003258:	00000003          	lb	zero,0(zero) # 0 <_tdata_begin>
8000325c:	0000                	unimp
8000325e:	0000                	unimp
80003260:	0002                	c.slli	zero,0x0
80003262:	0000                	unimp
80003264:	0001                	nop
80003266:	0000                	unimp
80003268:	00000003          	lb	zero,0(zero) # 0 <_tdata_begin>
8000326c:	0002                	c.slli	zero,0x0
8000326e:	0000                	unimp
80003270:	0002                	c.slli	zero,0x0
80003272:	0000                	unimp
80003274:	0001                	nop
80003276:	0000                	unimp
80003278:	00000003          	lb	zero,0(zero) # 0 <_tdata_begin>
8000327c:	0002                	c.slli	zero,0x0
8000327e:	0000                	unimp
80003280:	0000                	unimp
80003282:	0000                	unimp
80003284:	0001                	nop
80003286:	0000                	unimp
80003288:	0002                	c.slli	zero,0x0
8000328a:	0000                	unimp
8000328c:	0002                	c.slli	zero,0x0
8000328e:	0000                	unimp
80003290:	00000003          	lb	zero,0(zero) # 0 <_tdata_begin>
80003294:	0002                	c.slli	zero,0x0
80003296:	0000                	unimp
80003298:	0001                	nop
8000329a:	0000                	unimp
8000329c:	0001                	nop
8000329e:	0000                	unimp
800032a0:	0001                	nop
800032a2:	0000                	unimp
800032a4:	0001                	nop
800032a6:	0000                	unimp
800032a8:	00000003          	lb	zero,0(zero) # 0 <_tdata_begin>
800032ac:	0000                	unimp
800032ae:	0000                	unimp
800032b0:	0001                	nop
800032b2:	0000                	unimp
800032b4:	00000003          	lb	zero,0(zero) # 0 <_tdata_begin>
800032b8:	0002                	c.slli	zero,0x0
800032ba:	0000                	unimp
800032bc:	0002                	c.slli	zero,0x0
800032be:	0000                	unimp
800032c0:	00000003          	lb	zero,0(zero) # 0 <_tdata_begin>
800032c4:	0001                	nop
800032c6:	0000                	unimp
800032c8:	0001                	nop
800032ca:	0000                	unimp
800032cc:	0002                	c.slli	zero,0x0
800032ce:	0000                	unimp
800032d0:	0000                	unimp
800032d2:	0000                	unimp
800032d4:	0002                	c.slli	zero,0x0
800032d6:	0000                	unimp
800032d8:	0001                	nop
800032da:	0000                	unimp
800032dc:	0001                	nop
800032de:	0000                	unimp
800032e0:	0002                	c.slli	zero,0x0
800032e2:	0000                	unimp
800032e4:	00000003          	lb	zero,0(zero) # 0 <_tdata_begin>
800032e8:	0001                	nop
800032ea:	0000                	unimp
800032ec:	0000                	unimp
800032ee:	0000                	unimp
800032f0:	0001                	nop
800032f2:	0000                	unimp
800032f4:	0000                	unimp
800032f6:	0000                	unimp
800032f8:	0001                	nop
800032fa:	0000                	unimp
800032fc:	0001                	nop
800032fe:	0000                	unimp
80003300:	0000                	unimp
80003302:	0000                	unimp
80003304:	0000                	unimp
80003306:	0000                	unimp
80003308:	0002                	c.slli	zero,0x0
8000330a:	0000                	unimp
8000330c:	0000                	unimp
8000330e:	0000                	unimp
80003310:	00000003          	lb	zero,0(zero) # 0 <_tdata_begin>
80003314:	0000                	unimp
80003316:	0000                	unimp
80003318:	00000003          	lb	zero,0(zero) # 0 <_tdata_begin>
8000331c:	0000                	unimp
8000331e:	0000                	unimp
80003320:	00000003          	lb	zero,0(zero) # 0 <_tdata_begin>
80003324:	0002                	c.slli	zero,0x0
80003326:	0000                	unimp
80003328:	0002                	c.slli	zero,0x0
8000332a:	0000                	unimp
8000332c:	00000003          	lb	zero,0(zero) # 0 <_tdata_begin>
80003330:	00000003          	lb	zero,0(zero) # 0 <_tdata_begin>
80003334:	0002                	c.slli	zero,0x0
80003336:	0000                	unimp
80003338:	0001                	nop
8000333a:	0000                	unimp
8000333c:	0000                	unimp
8000333e:	0000                	unimp
80003340:	0002                	c.slli	zero,0x0
80003342:	0000                	unimp
80003344:	0002                	c.slli	zero,0x0
80003346:	0000                	unimp

80003348 <input1_data>:
80003348:	0000                	unimp
8000334a:	0000                	unimp
8000334c:	00000003          	lb	zero,0(zero) # 0 <_tdata_begin>
80003350:	0002                	c.slli	zero,0x0
80003352:	0000                	unimp
80003354:	0000                	unimp
80003356:	0000                	unimp
80003358:	00000003          	lb	zero,0(zero) # 0 <_tdata_begin>
8000335c:	0001                	nop
8000335e:	0000                	unimp
80003360:	0000                	unimp
80003362:	0000                	unimp
80003364:	00000003          	lb	zero,0(zero) # 0 <_tdata_begin>
80003368:	0002                	c.slli	zero,0x0
8000336a:	0000                	unimp
8000336c:	00000003          	lb	zero,0(zero) # 0 <_tdata_begin>
80003370:	0002                	c.slli	zero,0x0
80003372:	0000                	unimp
80003374:	0000                	unimp
80003376:	0000                	unimp
80003378:	00000003          	lb	zero,0(zero) # 0 <_tdata_begin>
8000337c:	00000003          	lb	zero,0(zero) # 0 <_tdata_begin>
80003380:	0001                	nop
80003382:	0000                	unimp
80003384:	0002                	c.slli	zero,0x0
80003386:	0000                	unimp
80003388:	00000003          	lb	zero,0(zero) # 0 <_tdata_begin>
8000338c:	0000                	unimp
8000338e:	0000                	unimp
80003390:	0000                	unimp
80003392:	0000                	unimp
80003394:	0001                	nop
80003396:	0000                	unimp
80003398:	0001                	nop
8000339a:	0000                	unimp
8000339c:	0001                	nop
8000339e:	0000                	unimp
800033a0:	0002                	c.slli	zero,0x0
800033a2:	0000                	unimp
800033a4:	00000003          	lb	zero,0(zero) # 0 <_tdata_begin>
800033a8:	0001                	nop
800033aa:	0000                	unimp
800033ac:	0002                	c.slli	zero,0x0
800033ae:	0000                	unimp
800033b0:	00000003          	lb	zero,0(zero) # 0 <_tdata_begin>
800033b4:	0001                	nop
800033b6:	0000                	unimp
800033b8:	0001                	nop
800033ba:	0000                	unimp
800033bc:	00000003          	lb	zero,0(zero) # 0 <_tdata_begin>
800033c0:	0002                	c.slli	zero,0x0
800033c2:	0000                	unimp
800033c4:	0002                	c.slli	zero,0x0
800033c6:	0000                	unimp
800033c8:	0000                	unimp
800033ca:	0000                	unimp
800033cc:	0001                	nop
800033ce:	0000                	unimp
800033d0:	00000003          	lb	zero,0(zero) # 0 <_tdata_begin>
800033d4:	0002                	c.slli	zero,0x0
800033d6:	0000                	unimp
800033d8:	0002                	c.slli	zero,0x0
800033da:	0000                	unimp
800033dc:	0002                	c.slli	zero,0x0
800033de:	0000                	unimp
800033e0:	0000                	unimp
800033e2:	0000                	unimp
800033e4:	0000                	unimp
800033e6:	0000                	unimp
800033e8:	0001                	nop
800033ea:	0000                	unimp
800033ec:	0000                	unimp
800033ee:	0000                	unimp
800033f0:	0001                	nop
800033f2:	0000                	unimp
800033f4:	00000003          	lb	zero,0(zero) # 0 <_tdata_begin>
800033f8:	00000003          	lb	zero,0(zero) # 0 <_tdata_begin>
800033fc:	0000                	unimp
800033fe:	0000                	unimp
80003400:	00000003          	lb	zero,0(zero) # 0 <_tdata_begin>
80003404:	00000003          	lb	zero,0(zero) # 0 <_tdata_begin>
80003408:	00000003          	lb	zero,0(zero) # 0 <_tdata_begin>
8000340c:	00000003          	lb	zero,0(zero) # 0 <_tdata_begin>
80003410:	0000                	unimp
80003412:	0000                	unimp
80003414:	00000003          	lb	zero,0(zero) # 0 <_tdata_begin>
80003418:	0002                	c.slli	zero,0x0
8000341a:	0000                	unimp
8000341c:	0001                	nop
8000341e:	0000                	unimp
80003420:	0002                	c.slli	zero,0x0
80003422:	0000                	unimp
80003424:	0002                	c.slli	zero,0x0
80003426:	0000                	unimp
80003428:	0000                	unimp
8000342a:	0000                	unimp
8000342c:	0000                	unimp
8000342e:	0000                	unimp
80003430:	00000003          	lb	zero,0(zero) # 0 <_tdata_begin>
80003434:	0000                	unimp
80003436:	0000                	unimp
80003438:	0001                	nop
8000343a:	0000                	unimp
8000343c:	0001                	nop
8000343e:	0000                	unimp
80003440:	0000                	unimp
80003442:	0000                	unimp
80003444:	00000003          	lb	zero,0(zero) # 0 <_tdata_begin>
80003448:	00000003          	lb	zero,0(zero) # 0 <_tdata_begin>
8000344c:	0001                	nop
8000344e:	0000                	unimp
80003450:	0002                	c.slli	zero,0x0
80003452:	0000                	unimp
80003454:	00000003          	lb	zero,0(zero) # 0 <_tdata_begin>
80003458:	00000003          	lb	zero,0(zero) # 0 <_tdata_begin>
8000345c:	0000                	unimp
8000345e:	0000                	unimp
80003460:	0001                	nop
80003462:	0000                	unimp
80003464:	0002                	c.slli	zero,0x0
80003466:	0000                	unimp
80003468:	0001                	nop
8000346a:	0000                	unimp
8000346c:	0000                	unimp
8000346e:	0000                	unimp
80003470:	0001                	nop
80003472:	0000                	unimp
80003474:	0002                	c.slli	zero,0x0
80003476:	0000                	unimp
80003478:	0002                	c.slli	zero,0x0
8000347a:	0000                	unimp
8000347c:	0001                	nop
8000347e:	0000                	unimp
80003480:	0000                	unimp
80003482:	0000                	unimp
80003484:	00000003          	lb	zero,0(zero) # 0 <_tdata_begin>
80003488:	0001                	nop
8000348a:	0000                	unimp
8000348c:	0000                	unimp
8000348e:	0000                	unimp
80003490:	0002                	c.slli	zero,0x0
80003492:	0000                	unimp
80003494:	0002                	c.slli	zero,0x0
80003496:	0000                	unimp
80003498:	0001                	nop
8000349a:	0000                	unimp
8000349c:	0001                	nop
8000349e:	0000                	unimp
800034a0:	0001                	nop
800034a2:	0000                	unimp
800034a4:	0001                	nop
800034a6:	0000                	unimp
800034a8:	0001                	nop
800034aa:	0000                	unimp
800034ac:	0001                	nop
800034ae:	0000                	unimp
800034b0:	0002                	c.slli	zero,0x0
800034b2:	0000                	unimp
800034b4:	0000                	unimp
800034b6:	0000                	unimp
800034b8:	00000003          	lb	zero,0(zero) # 0 <_tdata_begin>
800034bc:	0001                	nop
800034be:	0000                	unimp
800034c0:	0001                	nop
800034c2:	0000                	unimp
800034c4:	0002                	c.slli	zero,0x0
800034c6:	0000                	unimp
800034c8:	0002                	c.slli	zero,0x0
800034ca:	0000                	unimp
800034cc:	00000003          	lb	zero,0(zero) # 0 <_tdata_begin>
800034d0:	00000003          	lb	zero,0(zero) # 0 <_tdata_begin>
800034d4:	0001                	nop
800034d6:	0000                	unimp
800034d8:	00000003          	lb	zero,0(zero) # 0 <_tdata_begin>
800034dc:	0002                	c.slli	zero,0x0
800034de:	0000                	unimp
800034e0:	0000                	unimp
800034e2:	0000                	unimp
800034e4:	0000                	unimp
800034e6:	0000                	unimp
800034e8:	0000                	unimp
800034ea:	0000                	unimp
800034ec:	00000003          	lb	zero,0(zero) # 0 <_tdata_begin>
800034f0:	00000003          	lb	zero,0(zero) # 0 <_tdata_begin>
800034f4:	00000003          	lb	zero,0(zero) # 0 <_tdata_begin>
800034f8:	0002                	c.slli	zero,0x0
800034fa:	0000                	unimp
800034fc:	0001                	nop
800034fe:	0000                	unimp
80003500:	0002                	c.slli	zero,0x0
80003502:	0000                	unimp
80003504:	00000003          	lb	zero,0(zero) # 0 <_tdata_begin>
80003508:	0001                	nop
8000350a:	0000                	unimp
8000350c:	0000                	unimp
8000350e:	0000                	unimp
80003510:	0000                	unimp
80003512:	0000                	unimp
80003514:	0000                	unimp
80003516:	0000                	unimp
80003518:	0000                	unimp
8000351a:	0000                	unimp
8000351c:	0001                	nop
8000351e:	0000                	unimp
80003520:	0002                	c.slli	zero,0x0
80003522:	0000                	unimp
80003524:	0002                	c.slli	zero,0x0
80003526:	0000                	unimp
80003528:	0001                	nop
8000352a:	0000                	unimp
8000352c:	0001                	nop
8000352e:	0000                	unimp
80003530:	00000003          	lb	zero,0(zero) # 0 <_tdata_begin>
80003534:	00000003          	lb	zero,0(zero) # 0 <_tdata_begin>
80003538:	00000003          	lb	zero,0(zero) # 0 <_tdata_begin>
8000353c:	0001                	nop
8000353e:	0000                	unimp
80003540:	0001                	nop
80003542:	0000                	unimp
80003544:	0002                	c.slli	zero,0x0
80003546:	0000                	unimp
80003548:	00000003          	lb	zero,0(zero) # 0 <_tdata_begin>
8000354c:	0001                	nop
8000354e:	0000                	unimp
80003550:	00000003          	lb	zero,0(zero) # 0 <_tdata_begin>
80003554:	00000003          	lb	zero,0(zero) # 0 <_tdata_begin>
80003558:	0002                	c.slli	zero,0x0
8000355a:	0000                	unimp
8000355c:	00000003          	lb	zero,0(zero) # 0 <_tdata_begin>
80003560:	0002                	c.slli	zero,0x0
80003562:	0000                	unimp
80003564:	0001                	nop
80003566:	0000                	unimp
80003568:	0002                	c.slli	zero,0x0
8000356a:	0000                	unimp
8000356c:	00000003          	lb	zero,0(zero) # 0 <_tdata_begin>
80003570:	0000                	unimp
80003572:	0000                	unimp
80003574:	0002                	c.slli	zero,0x0
80003576:	0000                	unimp
80003578:	0002                	c.slli	zero,0x0
8000357a:	0000                	unimp
8000357c:	0001                	nop
8000357e:	0000                	unimp
80003580:	0001                	nop
80003582:	0000                	unimp
80003584:	0000                	unimp
80003586:	0000                	unimp
80003588:	0000                	unimp
8000358a:	0000                	unimp
8000358c:	0000                	unimp
8000358e:	0000                	unimp
80003590:	0000                	unimp
80003592:	0000                	unimp
80003594:	0000                	unimp
80003596:	0000                	unimp
80003598:	0001                	nop
8000359a:	0000                	unimp
8000359c:	00000003          	lb	zero,0(zero) # 0 <_tdata_begin>
800035a0:	00000003          	lb	zero,0(zero) # 0 <_tdata_begin>
800035a4:	0001                	nop
800035a6:	0000                	unimp
800035a8:	0001                	nop
800035aa:	0000                	unimp
800035ac:	0001                	nop
800035ae:	0000                	unimp
800035b0:	0002                	c.slli	zero,0x0
800035b2:	0000                	unimp
800035b4:	0002                	c.slli	zero,0x0
800035b6:	0000                	unimp
800035b8:	00000003          	lb	zero,0(zero) # 0 <_tdata_begin>
800035bc:	0002                	c.slli	zero,0x0
800035be:	0000                	unimp
800035c0:	0001                	nop
800035c2:	0000                	unimp
800035c4:	0001                	nop
800035c6:	0000                	unimp
800035c8:	0001                	nop
800035ca:	0000                	unimp
800035cc:	0001                	nop
800035ce:	0000                	unimp
800035d0:	00000003          	lb	zero,0(zero) # 0 <_tdata_begin>
800035d4:	0000                	unimp
800035d6:	0000                	unimp
800035d8:	0002                	c.slli	zero,0x0
800035da:	0000                	unimp
800035dc:	0002                	c.slli	zero,0x0
800035de:	0000                	unimp
800035e0:	0001                	nop
800035e2:	0000                	unimp
800035e4:	00000003          	lb	zero,0(zero) # 0 <_tdata_begin>
800035e8:	0002                	c.slli	zero,0x0
800035ea:	0000                	unimp
800035ec:	0001                	nop
800035ee:	0000                	unimp
800035f0:	0002                	c.slli	zero,0x0
800035f2:	0000                	unimp
800035f4:	0002                	c.slli	zero,0x0
800035f6:	0000                	unimp
800035f8:	0001                	nop
800035fa:	0000                	unimp
800035fc:	00000003          	lb	zero,0(zero) # 0 <_tdata_begin>
80003600:	0001                	nop
80003602:	0000                	unimp
80003604:	00000003          	lb	zero,0(zero) # 0 <_tdata_begin>
80003608:	0001                	nop
8000360a:	0000                	unimp
8000360c:	00000003          	lb	zero,0(zero) # 0 <_tdata_begin>
80003610:	0002                	c.slli	zero,0x0
80003612:	0000                	unimp
80003614:	00000003          	lb	zero,0(zero) # 0 <_tdata_begin>
80003618:	0001                	nop
8000361a:	0000                	unimp
8000361c:	0002                	c.slli	zero,0x0
8000361e:	0000                	unimp
80003620:	0001                	nop
80003622:	0000                	unimp
80003624:	00000003          	lb	zero,0(zero) # 0 <_tdata_begin>
80003628:	0002                	c.slli	zero,0x0
8000362a:	0000                	unimp
8000362c:	0002                	c.slli	zero,0x0
8000362e:	0000                	unimp
80003630:	0000                	unimp
80003632:	0000                	unimp
80003634:	0001                	nop
80003636:	0000                	unimp
80003638:	0000                	unimp
8000363a:	0000                	unimp
8000363c:	0000                	unimp
8000363e:	0000                	unimp
80003640:	0001                	nop
80003642:	0000                	unimp
80003644:	0002                	c.slli	zero,0x0
80003646:	0000                	unimp
80003648:	00000003          	lb	zero,0(zero) # 0 <_tdata_begin>
8000364c:	00000003          	lb	zero,0(zero) # 0 <_tdata_begin>
80003650:	0001                	nop
80003652:	0000                	unimp
80003654:	0000                	unimp
80003656:	0000                	unimp
80003658:	0000                	unimp
8000365a:	0000                	unimp
8000365c:	0000                	unimp
8000365e:	0000                	unimp
80003660:	00000003          	lb	zero,0(zero) # 0 <_tdata_begin>
80003664:	0001                	nop
80003666:	0000                	unimp
80003668:	0002                	c.slli	zero,0x0
8000366a:	0000                	unimp
8000366c:	00000003          	lb	zero,0(zero) # 0 <_tdata_begin>
80003670:	0002                	c.slli	zero,0x0
80003672:	0000                	unimp
80003674:	00000003          	lb	zero,0(zero) # 0 <_tdata_begin>
80003678:	0002                	c.slli	zero,0x0
8000367a:	0000                	unimp
8000367c:	0000                	unimp
8000367e:	0000                	unimp
80003680:	0000                	unimp
80003682:	0000                	unimp
80003684:	0000                	unimp
80003686:	0000                	unimp
80003688:	0000                	unimp
8000368a:	0000                	unimp
8000368c:	0000                	unimp
8000368e:	0000                	unimp
80003690:	00000003          	lb	zero,0(zero) # 0 <_tdata_begin>
80003694:	0001                	nop
80003696:	0000                	unimp
80003698:	00000003          	lb	zero,0(zero) # 0 <_tdata_begin>
8000369c:	0000                	unimp
8000369e:	0000                	unimp
800036a0:	0000                	unimp
800036a2:	0000                	unimp
800036a4:	0000                	unimp
800036a6:	0000                	unimp
800036a8:	00000003          	lb	zero,0(zero) # 0 <_tdata_begin>
800036ac:	0001                	nop
800036ae:	0000                	unimp
800036b0:	0001                	nop
800036b2:	0000                	unimp
800036b4:	0001                	nop
800036b6:	0000                	unimp
800036b8:	0001                	nop
800036ba:	0000                	unimp
800036bc:	0002                	c.slli	zero,0x0
800036be:	0000                	unimp
800036c0:	0001                	nop
800036c2:	0000                	unimp
800036c4:	0002                	c.slli	zero,0x0
800036c6:	0000                	unimp
800036c8:	00000003          	lb	zero,0(zero) # 0 <_tdata_begin>
800036cc:	0002                	c.slli	zero,0x0
800036ce:	0000                	unimp
800036d0:	0000                	unimp
800036d2:	0000                	unimp
800036d4:	0000                	unimp
800036d6:	0000                	unimp
800036d8:	0002                	c.slli	zero,0x0
800036da:	0000                	unimp
800036dc:	0002                	c.slli	zero,0x0
800036de:	0000                	unimp
800036e0:	00000003          	lb	zero,0(zero) # 0 <_tdata_begin>
800036e4:	0000                	unimp
800036e6:	0000                	unimp
800036e8:	00000003          	lb	zero,0(zero) # 0 <_tdata_begin>
800036ec:	0000                	unimp
800036ee:	0000                	unimp
800036f0:	0000                	unimp
800036f2:	0000                	unimp
800036f4:	00000003          	lb	zero,0(zero) # 0 <_tdata_begin>
800036f8:	0000                	unimp
800036fa:	0000                	unimp
800036fc:	00000003          	lb	zero,0(zero) # 0 <_tdata_begin>
80003700:	0001                	nop
80003702:	0000                	unimp
80003704:	00000003          	lb	zero,0(zero) # 0 <_tdata_begin>
80003708:	00000003          	lb	zero,0(zero) # 0 <_tdata_begin>
8000370c:	0001                	nop
8000370e:	0000                	unimp
80003710:	0001                	nop
80003712:	0000                	unimp
80003714:	0001                	nop
80003716:	0000                	unimp
80003718:	0002                	c.slli	zero,0x0
8000371a:	0000                	unimp
8000371c:	0002                	c.slli	zero,0x0
8000371e:	0000                	unimp
80003720:	0001                	nop
80003722:	0000                	unimp
80003724:	00000003          	lb	zero,0(zero) # 0 <_tdata_begin>
80003728:	0000                	unimp
8000372a:	0000                	unimp
8000372c:	00000003          	lb	zero,0(zero) # 0 <_tdata_begin>
80003730:	00000003          	lb	zero,0(zero) # 0 <_tdata_begin>
80003734:	0001                	nop
80003736:	0000                	unimp
80003738:	0000                	unimp
8000373a:	0000                	unimp
8000373c:	0000                	unimp
8000373e:	0000                	unimp
80003740:	00000003          	lb	zero,0(zero) # 0 <_tdata_begin>
80003744:	0002                	c.slli	zero,0x0
80003746:	0000                	unimp

80003748 <verify_data>:
80003748:	0024                	addi	s1,sp,8
8000374a:	0000                	unimp
8000374c:	002c                	addi	a1,sp,8
8000374e:	0000                	unimp
80003750:	0039                	c.nop	14
80003752:	0000                	unimp
80003754:	0032                	c.slli	zero,0xc
80003756:	0000                	unimp
80003758:	0036                	c.slli	zero,0xd
8000375a:	0000                	unimp
8000375c:	0024                	addi	s1,sp,8
8000375e:	0000                	unimp
80003760:	0026                	c.slli	zero,0x9
80003762:	0000                	unimp
80003764:	002e                	c.slli	zero,0xb
80003766:	0000                	unimp
80003768:	00000037          	lui	zero,0x0
8000376c:	0019                	c.nop	6
8000376e:	0000                	unimp
80003770:	0026                	c.slli	zero,0x9
80003772:	0000                	unimp
80003774:	0022                	c.slli	zero,0x8
80003776:	0000                	unimp
80003778:	00000033          	add	zero,zero,zero
8000377c:	001e                	c.slli	zero,0x7
8000377e:	0000                	unimp
80003780:	0028                	addi	a0,sp,8
80003782:	0000                	unimp
80003784:	0020                	addi	s0,sp,8
80003786:	0000                	unimp
80003788:	0025                	c.nop	9
8000378a:	0000                	unimp
8000378c:	0022                	c.slli	zero,0x8
8000378e:	0000                	unimp
80003790:	0026                	c.slli	zero,0x9
80003792:	0000                	unimp
80003794:	0034                	addi	a3,sp,8
80003796:	0000                	unimp
80003798:	00000033          	add	zero,zero,zero
8000379c:	0028                	addi	a0,sp,8
8000379e:	0000                	unimp
800037a0:	001c                	0x1c
800037a2:	0000                	unimp
800037a4:	0020                	addi	s0,sp,8
800037a6:	0000                	unimp
800037a8:	0029                	c.nop	10
800037aa:	0000                	unimp
800037ac:	0016                	c.slli	zero,0x5
800037ae:	0000                	unimp
800037b0:	001a                	c.slli	zero,0x6
800037b2:	0000                	unimp
800037b4:	00000023          	sb	zero,0(zero) # 0 <_tdata_begin>
800037b8:	0031                	c.nop	12
800037ba:	0000                	unimp
800037bc:	00000023          	sb	zero,0(zero) # 0 <_tdata_begin>
800037c0:	002a                	c.slli	zero,0xa
800037c2:	0000                	unimp
800037c4:	00000017          	auipc	zero,0x0
800037c8:	001a                	c.slli	zero,0x6
800037ca:	0000                	unimp
800037cc:	001a                	c.slli	zero,0x6
800037ce:	0000                	unimp
800037d0:	0021                	c.nop	8
800037d2:	0000                	unimp
800037d4:	0024                	addi	s1,sp,8
800037d6:	0000                	unimp
800037d8:	0034                	addi	a3,sp,8
800037da:	0000                	unimp
800037dc:	0028                	addi	a0,sp,8
800037de:	0000                	unimp
800037e0:	002d                	c.nop	11
800037e2:	0000                	unimp
800037e4:	0031                	c.nop	12
800037e6:	0000                	unimp
800037e8:	0032                	c.slli	zero,0xc
800037ea:	0000                	unimp
800037ec:	0022                	c.slli	zero,0x8
800037ee:	0000                	unimp
800037f0:	0029                	c.nop	10
800037f2:	0000                	unimp
800037f4:	00000023          	sb	zero,0(zero) # 800037c4 <verify_data+0x7c>
800037f8:	002c                	addi	a1,sp,8
800037fa:	0000                	unimp
800037fc:	0019                	c.nop	6
800037fe:	0000                	unimp
80003800:	00000017          	auipc	zero,0x0
80003804:	00000017          	auipc	zero,0x0
80003808:	001f 0000 001d      	0x1d0000001f
8000380e:	0000                	unimp
80003810:	00000027          	0x27
80003814:	002e                	c.slli	zero,0xb
80003816:	0000                	unimp
80003818:	0032                	c.slli	zero,0xc
8000381a:	0000                	unimp
8000381c:	0024                	addi	s1,sp,8
8000381e:	0000                	unimp
80003820:	001f 0000 0020      	0x200000001f
80003826:	0000                	unimp
80003828:	002a                	c.slli	zero,0xa
8000382a:	0000                	unimp
8000382c:	0020                	addi	s0,sp,8
8000382e:	0000                	unimp
80003830:	0022                	c.slli	zero,0x8
80003832:	0000                	unimp
80003834:	0029                	c.nop	10
80003836:	0000                	unimp
80003838:	002c                	addi	a1,sp,8
8000383a:	0000                	unimp
8000383c:	0021                	c.nop	8
8000383e:	0000                	unimp
80003840:	0000002b          	0x2b
80003844:	001e                	c.slli	zero,0x7
80003846:	0000                	unimp
80003848:	001f 0000 001c      	0x1c0000001f
8000384e:	0000                	unimp
80003850:	00000027          	0x27
80003854:	002e                	c.slli	zero,0xb
80003856:	0000                	unimp
80003858:	0032                	c.slli	zero,0xc
8000385a:	0000                	unimp
8000385c:	0028                	addi	a0,sp,8
8000385e:	0000                	unimp
80003860:	00000023          	sb	zero,0(zero) # 80003804 <verify_data+0xbc>
80003864:	0025                	c.nop	9
80003866:	0000                	unimp
80003868:	0000002b          	0x2b
8000386c:	00000023          	sb	zero,0(zero) # 0 <_tdata_begin>
80003870:	0021                	c.nop	8
80003872:	0000                	unimp
80003874:	0000002b          	0x2b
80003878:	0000002b          	0x2b
8000387c:	001d                	c.nop	7
8000387e:	0000                	unimp
80003880:	0025                	c.nop	9
80003882:	0000                	unimp
80003884:	001d                	c.nop	7
80003886:	0000                	unimp
80003888:	0000001b          	0x1b
8000388c:	0016                	c.slli	zero,0x5
8000388e:	0000                	unimp
80003890:	001e                	c.slli	zero,0x7
80003892:	0000                	unimp
80003894:	0021                	c.nop	8
80003896:	0000                	unimp
80003898:	0000002b          	0x2b
8000389c:	001f 0000 0020      	0x200000001f
800038a2:	0000                	unimp
800038a4:	0019                	c.nop	6
800038a6:	0000                	unimp
800038a8:	0024                	addi	s1,sp,8
800038aa:	0000                	unimp
800038ac:	001f 0000 001f      	0x1f0000001f
800038b2:	0000                	unimp
800038b4:	001d                	c.nop	7
800038b6:	0000                	unimp
800038b8:	0028                	addi	a0,sp,8
800038ba:	0000                	unimp
800038bc:	001c                	0x1c
800038be:	0000                	unimp
800038c0:	001a                	c.slli	zero,0x6
800038c2:	0000                	unimp
800038c4:	0016                	c.slli	zero,0x5
800038c6:	0000                	unimp
800038c8:	001d                	c.nop	7
800038ca:	0000                	unimp
800038cc:	002a                	c.slli	zero,0xa
800038ce:	0000                	unimp
800038d0:	0030                	addi	a2,sp,8
800038d2:	0000                	unimp
800038d4:	00000033          	add	zero,zero,zero
800038d8:	0041                	c.nop	16
800038da:	0000                	unimp
800038dc:	0034                	addi	a3,sp,8
800038de:	0000                	unimp
800038e0:	0000002b          	0x2b
800038e4:	0036                	c.slli	zero,0xd
800038e6:	0000                	unimp
800038e8:	0000003f 00000022 	0x220000003f
800038f0:	002a                	c.slli	zero,0xa
800038f2:	0000                	unimp
800038f4:	002c                	addi	a1,sp,8
800038f6:	0000                	unimp
800038f8:	0038                	addi	a4,sp,8
800038fa:	0000                	unimp
800038fc:	0021                	c.nop	8
800038fe:	0000                	unimp
80003900:	0026                	c.slli	zero,0x9
80003902:	0000                	unimp
80003904:	0020                	addi	s0,sp,8
80003906:	0000                	unimp
80003908:	001a                	c.slli	zero,0x6
8000390a:	0000                	unimp
8000390c:	0016                	c.slli	zero,0x5
8000390e:	0000                	unimp
80003910:	00000017          	auipc	zero,0x0
80003914:	0026                	c.slli	zero,0x9
80003916:	0000                	unimp
80003918:	0031                	c.nop	12
8000391a:	0000                	unimp
8000391c:	0020                	addi	s0,sp,8
8000391e:	0000                	unimp
80003920:	001a                	c.slli	zero,0x6
80003922:	0000                	unimp
80003924:	001e                	c.slli	zero,0x7
80003926:	0000                	unimp
80003928:	0000002b          	0x2b
8000392c:	0016                	c.slli	zero,0x5
8000392e:	0000                	unimp
80003930:	0018                	0x18
80003932:	0000                	unimp
80003934:	0000001b          	0x1b
80003938:	002d                	c.nop	11
8000393a:	0000                	unimp
8000393c:	0018                	0x18
8000393e:	0000                	unimp
80003940:	001a                	c.slli	zero,0x6
80003942:	0000                	unimp
80003944:	0011                	c.nop	4
80003946:	0000                	unimp
80003948:	00000023          	sb	zero,0(zero) # 80003910 <verify_data+0x1c8>
8000394c:	00000023          	sb	zero,0(zero) # 0 <_tdata_begin>
80003950:	0000002f          	0x2f
80003954:	00000033          	add	zero,zero,zero
80003958:	0000003b          	0x3b
8000395c:	0000003b          	0x3b
80003960:	0000002b          	0x2b
80003964:	002a                	c.slli	zero,0xa
80003966:	0000                	unimp
80003968:	0000002b          	0x2b
8000396c:	001c                	0x1c
8000396e:	0000                	unimp
80003970:	0025                	c.nop	9
80003972:	0000                	unimp
80003974:	0000002b          	0x2b
80003978:	0038                	addi	a4,sp,8
8000397a:	0000                	unimp
8000397c:	0030                	addi	a2,sp,8
8000397e:	0000                	unimp
80003980:	0024                	addi	s1,sp,8
80003982:	0000                	unimp
80003984:	0020                	addi	s0,sp,8
80003986:	0000                	unimp
80003988:	001c                	0x1c
8000398a:	0000                	unimp
8000398c:	00000013          	nop
80003990:	001c                	0x1c
80003992:	0000                	unimp
80003994:	0022                	c.slli	zero,0x8
80003996:	0000                	unimp
80003998:	002e                	c.slli	zero,0xb
8000399a:	0000                	unimp
8000399c:	0022                	c.slli	zero,0x8
8000399e:	0000                	unimp
800039a0:	001c                	0x1c
800039a2:	0000                	unimp
800039a4:	0022                	c.slli	zero,0x8
800039a6:	0000                	unimp
800039a8:	002d                	c.nop	11
800039aa:	0000                	unimp
800039ac:	0014                	0x14
800039ae:	0000                	unimp
800039b0:	001d                	c.nop	7
800039b2:	0000                	unimp
800039b4:	001c                	0x1c
800039b6:	0000                	unimp
800039b8:	0032                	c.slli	zero,0xc
800039ba:	0000                	unimp
800039bc:	0020                	addi	s0,sp,8
800039be:	0000                	unimp
800039c0:	001a                	c.slli	zero,0x6
800039c2:	0000                	unimp
800039c4:	0015                	c.nop	5
800039c6:	0000                	unimp
800039c8:	0025                	c.nop	9
800039ca:	0000                	unimp
800039cc:	0026                	c.slli	zero,0x9
800039ce:	0000                	unimp
800039d0:	00000033          	add	zero,zero,zero
800039d4:	0032                	c.slli	zero,0xc
800039d6:	0000                	unimp
800039d8:	00000037          	lui	zero,0x0
800039dc:	002d                	c.nop	11
800039de:	0000                	unimp
800039e0:	0026                	c.slli	zero,0x9
800039e2:	0000                	unimp
800039e4:	0031                	c.nop	12
800039e6:	0000                	unimp
800039e8:	0038                	addi	a4,sp,8
800039ea:	0000                	unimp
800039ec:	001c                	0x1c
800039ee:	0000                	unimp
800039f0:	0026                	c.slli	zero,0x9
800039f2:	0000                	unimp
800039f4:	0028                	addi	a0,sp,8
800039f6:	0000                	unimp
800039f8:	0032                	c.slli	zero,0xc
800039fa:	0000                	unimp
800039fc:	001d                	c.nop	7
800039fe:	0000                	unimp
80003a00:	002c                	addi	a1,sp,8
80003a02:	0000                	unimp
80003a04:	001a                	c.slli	zero,0x6
80003a06:	0000                	unimp
80003a08:	0020                	addi	s0,sp,8
80003a0a:	0000                	unimp
80003a0c:	00000023          	sb	zero,0(zero) # 0 <_tdata_begin>
80003a10:	0032                	c.slli	zero,0xc
80003a12:	0000                	unimp
80003a14:	0000002b          	0x2b
80003a18:	0035                	c.nop	13
80003a1a:	0000                	unimp
80003a1c:	002c                	addi	a1,sp,8
80003a1e:	0000                	unimp
80003a20:	0029                	c.nop	10
80003a22:	0000                	unimp
80003a24:	0029                	c.nop	10
80003a26:	0000                	unimp
80003a28:	0022                	c.slli	zero,0x8
80003a2a:	0000                	unimp
80003a2c:	0018                	0x18
80003a2e:	0000                	unimp
80003a30:	00000023          	sb	zero,0(zero) # 0 <_tdata_begin>
80003a34:	0022                	c.slli	zero,0x8
80003a36:	0000                	unimp
80003a38:	00000027          	0x27
80003a3c:	0021                	c.nop	8
80003a3e:	0000                	unimp
80003a40:	0022                	c.slli	zero,0x8
80003a42:	0000                	unimp
80003a44:	001d                	c.nop	7
80003a46:	0000                	unimp
80003a48:	0015                	c.nop	5
80003a4a:	0000                	unimp
80003a4c:	0021                	c.nop	8
80003a4e:	0000                	unimp
80003a50:	001f 0000 002d      	0x2d0000001f
80003a56:	0000                	unimp
80003a58:	0030                	addi	a2,sp,8
80003a5a:	0000                	unimp
80003a5c:	002a                	c.slli	zero,0xa
80003a5e:	0000                	unimp
80003a60:	0000001b          	0x1b
80003a64:	001d                	c.nop	7
80003a66:	0000                	unimp
80003a68:	0028                	addi	a0,sp,8
80003a6a:	0000                	unimp
80003a6c:	0011                	c.nop	4
80003a6e:	0000                	unimp
80003a70:	0015                	c.nop	5
80003a72:	0000                	unimp
80003a74:	0020                	addi	s0,sp,8
80003a76:	0000                	unimp
80003a78:	002d                	c.nop	11
80003a7a:	0000                	unimp
80003a7c:	001e                	c.slli	zero,0x7
80003a7e:	0000                	unimp
80003a80:	001d                	c.nop	7
80003a82:	0000                	unimp
80003a84:	001a                	c.slli	zero,0x6
80003a86:	0000                	unimp
80003a88:	001a                	c.slli	zero,0x6
80003a8a:	0000                	unimp
80003a8c:	0000001b          	0x1b
80003a90:	0026                	c.slli	zero,0x9
80003a92:	0000                	unimp
80003a94:	0021                	c.nop	8
80003a96:	0000                	unimp
80003a98:	001d                	c.nop	7
80003a9a:	0000                	unimp
80003a9c:	001f 0000 0020      	0x200000001f
80003aa2:	0000                	unimp
80003aa4:	001f 0000 0023      	0x230000001f
80003aaa:	0000                	unimp
80003aac:	0019                	c.nop	6
80003aae:	0000                	unimp
80003ab0:	001d                	c.nop	7
80003ab2:	0000                	unimp
80003ab4:	001d                	c.nop	7
80003ab6:	0000                	unimp
80003ab8:	0022                	c.slli	zero,0x8
80003aba:	0000                	unimp
80003abc:	0000000f          	fence	unknown,unknown
80003ac0:	0019                	c.nop	6
80003ac2:	0000                	unimp
80003ac4:	00000017          	auipc	zero,0x0
80003ac8:	0022                	c.slli	zero,0x8
80003aca:	0000                	unimp
80003acc:	001c                	0x1c
80003ace:	0000                	unimp
80003ad0:	002c                	addi	a1,sp,8
80003ad2:	0000                	unimp
80003ad4:	002d                	c.nop	11
80003ad6:	0000                	unimp
80003ad8:	0029                	c.nop	10
80003ada:	0000                	unimp
80003adc:	0029                	c.nop	10
80003ade:	0000                	unimp
80003ae0:	0025                	c.nop	9
80003ae2:	0000                	unimp
80003ae4:	002d                	c.nop	11
80003ae6:	0000                	unimp
80003ae8:	002d                	c.nop	11
80003aea:	0000                	unimp
80003aec:	0011                	c.nop	4
80003aee:	0000                	unimp
80003af0:	0022                	c.slli	zero,0x8
80003af2:	0000                	unimp
80003af4:	002c                	addi	a1,sp,8
80003af6:	0000                	unimp
80003af8:	002e                	c.slli	zero,0xb
80003afa:	0000                	unimp
80003afc:	001e                	c.slli	zero,0x7
80003afe:	0000                	unimp
80003b00:	0000002b          	0x2b
80003b04:	001d                	c.nop	7
80003b06:	0000                	unimp
80003b08:	001f 0000 0024      	0x240000001f
80003b0e:	0000                	unimp
80003b10:	0025                	c.nop	9
80003b12:	0000                	unimp
80003b14:	0032                	c.slli	zero,0xc
80003b16:	0000                	unimp
80003b18:	0036                	c.slli	zero,0xd
80003b1a:	0000                	unimp
80003b1c:	002c                	addi	a1,sp,8
80003b1e:	0000                	unimp
80003b20:	001c                	0x1c
80003b22:	0000                	unimp
80003b24:	0028                	addi	a0,sp,8
80003b26:	0000                	unimp
80003b28:	0026                	c.slli	zero,0x9
80003b2a:	0000                	unimp
80003b2c:	0016                	c.slli	zero,0x5
80003b2e:	0000                	unimp
80003b30:	0000001b          	0x1b
80003b34:	001c                	0x1c
80003b36:	0000                	unimp
80003b38:	002d                	c.nop	11
80003b3a:	0000                	unimp
80003b3c:	0020                	addi	s0,sp,8
80003b3e:	0000                	unimp
80003b40:	0024                	addi	s1,sp,8
80003b42:	0000                	unimp
80003b44:	0016                	c.slli	zero,0x5
80003b46:	0000                	unimp
